                                      1 ;--------------------------------------------------------
                                      2 ; File Created by SDCC : free open source ANSI-C Compiler
                                      3 ; Version 4.0.0 #11528 (Linux)
                                      4 ;--------------------------------------------------------
                                      5 	.module rpl_icmp6
                                      6 	.optsdcc -mmcs51 --model-huge
                                      7 	
                                      8 ;--------------------------------------------------------
                                      9 ; Public variables in this module
                                     10 ;--------------------------------------------------------
                                     11 	.globl _packetbuf_addr
                                     12 	.globl _rpl_reset_dio_timer
                                     13 	.globl _rpl_add_route
                                     14 	.globl _rpl_find_parent
                                     15 	.globl _rpl_process_dio
                                     16 	.globl _rpl_get_instance
                                     17 	.globl _uip_icmp6_send
                                     18 	.globl _uip_ds6_nbr_lookup
                                     19 	.globl _uip_ds6_nbr_add
                                     20 	.globl _uip_ds6_route_lookup
                                     21 	.globl _stimer_set
                                     22 	.globl ___memcpy
                                     23 	.globl _memset
                                     24 	.globl _memcmp
                                     25 	.globl _ACTIVE
                                     26 	.globl _TX_BYTE
                                     27 	.globl _RX_BYTE
                                     28 	.globl _ERR
                                     29 	.globl _FE
                                     30 	.globl _SLAVE
                                     31 	.globl _RE
                                     32 	.globl _MODE
                                     33 	.globl _T3OVFIF
                                     34 	.globl _T3CH0IF
                                     35 	.globl _T3CH1IF
                                     36 	.globl _T4OVFIF
                                     37 	.globl _T4CH0IF
                                     38 	.globl _T4CH1IF
                                     39 	.globl _OVFIM
                                     40 	.globl _B_0
                                     41 	.globl _B_1
                                     42 	.globl _B_2
                                     43 	.globl _B_3
                                     44 	.globl _B_4
                                     45 	.globl _B_5
                                     46 	.globl _B_6
                                     47 	.globl _B_7
                                     48 	.globl _P2IF
                                     49 	.globl _UTX0IF
                                     50 	.globl _UTX1IF
                                     51 	.globl _P1IF
                                     52 	.globl _WDTIF
                                     53 	.globl _ACC_0
                                     54 	.globl _ACC_1
                                     55 	.globl _ACC_2
                                     56 	.globl _ACC_3
                                     57 	.globl _ACC_4
                                     58 	.globl _ACC_5
                                     59 	.globl _ACC_6
                                     60 	.globl _ACC_7
                                     61 	.globl _P
                                     62 	.globl _F1
                                     63 	.globl _OV
                                     64 	.globl _RS0
                                     65 	.globl _RS1
                                     66 	.globl _F0
                                     67 	.globl _AC
                                     68 	.globl _CY
                                     69 	.globl _DMAIF
                                     70 	.globl _T1IF
                                     71 	.globl _T2IF
                                     72 	.globl _T3IF
                                     73 	.globl _T4IF
                                     74 	.globl _P0IF
                                     75 	.globl _STIF
                                     76 	.globl _DMAIE
                                     77 	.globl _T1IE
                                     78 	.globl _T2IE
                                     79 	.globl _T3IE
                                     80 	.globl _T4IE
                                     81 	.globl _P0IE
                                     82 	.globl _RFERRIE
                                     83 	.globl _ADCIE
                                     84 	.globl _URX0IE
                                     85 	.globl _URX1IE
                                     86 	.globl _ENCIE
                                     87 	.globl _STIE
                                     88 	.globl _EA
                                     89 	.globl _P2_0
                                     90 	.globl _P2_1
                                     91 	.globl _P2_2
                                     92 	.globl _P2_3
                                     93 	.globl _P2_4
                                     94 	.globl _P2_5
                                     95 	.globl _P2_6
                                     96 	.globl _P2_7
                                     97 	.globl _ENCIF_0
                                     98 	.globl _ENCIF_1
                                     99 	.globl _P1_0
                                    100 	.globl _P1_1
                                    101 	.globl _P1_2
                                    102 	.globl _P1_3
                                    103 	.globl _P1_4
                                    104 	.globl _P1_5
                                    105 	.globl _P1_6
                                    106 	.globl _P1_7
                                    107 	.globl _IT0
                                    108 	.globl _RFERRIF
                                    109 	.globl _IT1
                                    110 	.globl _URX0IF
                                    111 	.globl _ADCIF
                                    112 	.globl _URX1IF
                                    113 	.globl _P0_0
                                    114 	.globl _P0_1
                                    115 	.globl _P0_2
                                    116 	.globl _P0_3
                                    117 	.globl _P0_4
                                    118 	.globl _P0_5
                                    119 	.globl _P0_6
                                    120 	.globl _P0_7
                                    121 	.globl _WDCTL
                                    122 	.globl _U1GCR
                                    123 	.globl _U1UCR
                                    124 	.globl _U1BAUD
                                    125 	.globl _U1DBUF
                                    126 	.globl _U1CSR
                                    127 	.globl _U0GCR
                                    128 	.globl _U0UCR
                                    129 	.globl _U0BAUD
                                    130 	.globl _U0DBUF
                                    131 	.globl _U0CSR
                                    132 	.globl _TIMIF
                                    133 	.globl _T4CC1
                                    134 	.globl _T4CCTL1
                                    135 	.globl _T4CC0
                                    136 	.globl _T4CCTL0
                                    137 	.globl _T4CTL
                                    138 	.globl _T4CNT
                                    139 	.globl _T3CC1
                                    140 	.globl _T3CCTL1
                                    141 	.globl _T3CC0
                                    142 	.globl _T3CCTL0
                                    143 	.globl _T3CTL
                                    144 	.globl _T3CNT
                                    145 	.globl _T2MSEL
                                    146 	.globl _T2IRQM
                                    147 	.globl _T2MOVF2
                                    148 	.globl _T2MOVF1
                                    149 	.globl _T2MOVF0
                                    150 	.globl _T2M1
                                    151 	.globl _T2M0
                                    152 	.globl _T2IRQF
                                    153 	.globl _T2EVTCFG
                                    154 	.globl _T2CTRL
                                    155 	.globl _T1STAT
                                    156 	.globl _T1CCTL2
                                    157 	.globl _T1CCTL1
                                    158 	.globl _T1CCTL0
                                    159 	.globl _T1CTL
                                    160 	.globl _T1CNTH
                                    161 	.globl _T1CNTL
                                    162 	.globl _T1CC2H
                                    163 	.globl _T1CC2L
                                    164 	.globl _T1CC1H
                                    165 	.globl _T1CC1L
                                    166 	.globl _T1CC0H
                                    167 	.globl _T1CC0L
                                    168 	.globl _CLKCONSTA
                                    169 	.globl _CLKCONCMD
                                    170 	.globl _SLEEPSTA
                                    171 	.globl _SLEEPCMD
                                    172 	.globl _STLOAD
                                    173 	.globl _ST2
                                    174 	.globl _ST1
                                    175 	.globl _ST0
                                    176 	.globl _RFERRF
                                    177 	.globl _RFIRQF0
                                    178 	.globl _RFST
                                    179 	.globl _RFD
                                    180 	.globl _RFIRQF1
                                    181 	.globl _PSBANK
                                    182 	.globl _FMAP
                                    183 	.globl _MEMCTR
                                    184 	.globl __XPAGE
                                    185 	.globl _MPAGE
                                    186 	.globl _PMUX
                                    187 	.globl _P2DIR
                                    188 	.globl _P1DIR
                                    189 	.globl _P0DIR
                                    190 	.globl _P2INP
                                    191 	.globl _P1INP
                                    192 	.globl _P2SEL
                                    193 	.globl _P1SEL
                                    194 	.globl _P0SEL
                                    195 	.globl _APCFG
                                    196 	.globl _PERCFG
                                    197 	.globl _P0INP
                                    198 	.globl _P2IEN
                                    199 	.globl _P1IEN
                                    200 	.globl _P0IEN
                                    201 	.globl _PICTL
                                    202 	.globl _P2IFG
                                    203 	.globl _P1IFG
                                    204 	.globl _P0IFG
                                    205 	.globl _DMAREQ
                                    206 	.globl _DMAARM
                                    207 	.globl _DMA0CFGH
                                    208 	.globl _DMA0CFGL
                                    209 	.globl _DMA1CFGH
                                    210 	.globl _DMA1CFGL
                                    211 	.globl _DMAIRQ
                                    212 	.globl _ENCCS
                                    213 	.globl _ENCDO
                                    214 	.globl _ENCDI
                                    215 	.globl _RNDH
                                    216 	.globl _RNDL
                                    217 	.globl _ADCH
                                    218 	.globl _ADCL
                                    219 	.globl _ADCCON3
                                    220 	.globl _ADCCON2
                                    221 	.globl _ADCCON1
                                    222 	.globl _B
                                    223 	.globl _IRCON2
                                    224 	.globl _ACC
                                    225 	.globl _PSW
                                    226 	.globl _IRCON
                                    227 	.globl _IP1
                                    228 	.globl _IEN1
                                    229 	.globl _IP0
                                    230 	.globl _IEN0
                                    231 	.globl _P2
                                    232 	.globl _S1CON
                                    233 	.globl _IEN2
                                    234 	.globl _S0CON
                                    235 	.globl _DPS
                                    236 	.globl _P1
                                    237 	.globl _TCON
                                    238 	.globl _PCON
                                    239 	.globl _DPH1
                                    240 	.globl _DPL1
                                    241 	.globl _DPH0
                                    242 	.globl _DPL0
                                    243 	.globl _SP
                                    244 	.globl _P0
                                    245 	.globl _X_IEEE_ADDR
                                    246 	.globl _X_INFOPAGE
                                    247 	.globl _X_P2DIR
                                    248 	.globl _X_P1DIR
                                    249 	.globl _X_P0DIR
                                    250 	.globl _X_U1GCR
                                    251 	.globl _X_U1UCR
                                    252 	.globl _X_U1BAUD
                                    253 	.globl _X_U1DBUF
                                    254 	.globl _X_U1CSR
                                    255 	.globl _X_P2INP
                                    256 	.globl _X_P1INP
                                    257 	.globl _X_P2SEL
                                    258 	.globl _X_P1SEL
                                    259 	.globl _X_P0SEL
                                    260 	.globl _X_APCFG
                                    261 	.globl _X_PERCFG
                                    262 	.globl _X_T4CC1
                                    263 	.globl _X_T4CCTL1
                                    264 	.globl _X_T4CC0
                                    265 	.globl _X_T4CCTL0
                                    266 	.globl _X_T4CTL
                                    267 	.globl _X_T4CNT
                                    268 	.globl _X_RFIRQF0
                                    269 	.globl _X_T1CCTL2
                                    270 	.globl _X_T1CCTL1
                                    271 	.globl _X_T1CCTL0
                                    272 	.globl _X_T1CTL
                                    273 	.globl _X_T1CNTH
                                    274 	.globl _X_T1CNTL
                                    275 	.globl _X_RFST
                                    276 	.globl _X_T1CC2H
                                    277 	.globl _X_T1CC2L
                                    278 	.globl _X_T1CC1H
                                    279 	.globl _X_T1CC1L
                                    280 	.globl _X_T1CC0H
                                    281 	.globl _X_T1CC0L
                                    282 	.globl _X_RFD
                                    283 	.globl _X_TIMIF
                                    284 	.globl _X_DMAREQ
                                    285 	.globl _X_DMAARM
                                    286 	.globl _X_DMA0CFGH
                                    287 	.globl _X_DMA0CFGL
                                    288 	.globl _X_DMA1CFGH
                                    289 	.globl _X_DMA1CFGL
                                    290 	.globl _X_DMAIRQ
                                    291 	.globl _X_T3CC1
                                    292 	.globl _X_T3CCTL1
                                    293 	.globl _X_T3CC0
                                    294 	.globl _X_T3CCTL0
                                    295 	.globl _X_T3CTL
                                    296 	.globl _X_T3CNT
                                    297 	.globl _X_WDCTL
                                    298 	.globl _X_MEMCTR
                                    299 	.globl _X_CLKCONCMD
                                    300 	.globl _X_U0GCR
                                    301 	.globl _X_U0UCR
                                    302 	.globl _X_T2MSEL
                                    303 	.globl _X_U0BAUD
                                    304 	.globl _X_U0DBUF
                                    305 	.globl _X_RFERRF
                                    306 	.globl _X_SLEEPCMD
                                    307 	.globl _X_RNDH
                                    308 	.globl _X_RNDL
                                    309 	.globl _X_ADCH
                                    310 	.globl _X_ADCL
                                    311 	.globl _X_ADCCON3
                                    312 	.globl _X_ADCCON2
                                    313 	.globl _X_ADCCON1
                                    314 	.globl _X_ENCCS
                                    315 	.globl _X_ENCDO
                                    316 	.globl _X_ENCDI
                                    317 	.globl _X_T1STAT
                                    318 	.globl _X_PMUX
                                    319 	.globl _X_STLOAD
                                    320 	.globl _X_P2IEN
                                    321 	.globl _X_P0IEN
                                    322 	.globl _X_T2IRQM
                                    323 	.globl _X_T2MOVF2
                                    324 	.globl _X_T2MOVF1
                                    325 	.globl _X_T2MOVF0
                                    326 	.globl _X_T2M1
                                    327 	.globl _X_T2M0
                                    328 	.globl _X_T2IRQF
                                    329 	.globl _X_P2
                                    330 	.globl _X_PSBANK
                                    331 	.globl _X_FMAP
                                    332 	.globl _X_CLKCONSTA
                                    333 	.globl _X_SLEEPSTA
                                    334 	.globl _X_T2EVTCFG
                                    335 	.globl _X_ST2
                                    336 	.globl _X_ST1
                                    337 	.globl _X_ST0
                                    338 	.globl _X_T2CTRL
                                    339 	.globl _X__XPAGE
                                    340 	.globl _X_MPAGE
                                    341 	.globl _X_RFIRQF1
                                    342 	.globl _X_P1
                                    343 	.globl _X_P0INP
                                    344 	.globl _X_P1IEN
                                    345 	.globl _X_PICTL
                                    346 	.globl _X_P2IFG
                                    347 	.globl _X_P1IFG
                                    348 	.globl _X_P0IFG
                                    349 	.globl _X_U0CSR
                                    350 	.globl _X_P0
                                    351 	.globl _USBF5
                                    352 	.globl _USBF4
                                    353 	.globl _USBF3
                                    354 	.globl _USBF2
                                    355 	.globl _USBF1
                                    356 	.globl _USBF0
                                    357 	.globl _USBCNTH
                                    358 	.globl _USBCNTL
                                    359 	.globl _USBCNT0
                                    360 	.globl _USBCSOH
                                    361 	.globl _USBCSOL
                                    362 	.globl _USBMAXO
                                    363 	.globl _USBCSIH
                                    364 	.globl _USBCSIL
                                    365 	.globl _USBCS0
                                    366 	.globl _USBMAXI
                                    367 	.globl _USBCTRL
                                    368 	.globl _USBINDEX
                                    369 	.globl _USBFRMH
                                    370 	.globl _USBFRML
                                    371 	.globl _USBCIE
                                    372 	.globl _USBOIE
                                    373 	.globl _USBIIE
                                    374 	.globl _USBCIF
                                    375 	.globl _USBOIF
                                    376 	.globl _USBIIF
                                    377 	.globl _USBPOW
                                    378 	.globl _USBADDR
                                    379 	.globl _CSPT
                                    380 	.globl _CSPZ
                                    381 	.globl _CSPY
                                    382 	.globl _CSPX
                                    383 	.globl _CSPSTAT
                                    384 	.globl _CSPCTRL
                                    385 	.globl _CSPPROG23
                                    386 	.globl _CSPPROG22
                                    387 	.globl _CSPPROG21
                                    388 	.globl _CSPPROG20
                                    389 	.globl _CSPPROG19
                                    390 	.globl _CSPPROG18
                                    391 	.globl _CSPPROG17
                                    392 	.globl _CSPPROG16
                                    393 	.globl _CSPPROG15
                                    394 	.globl _CSPPROG14
                                    395 	.globl _CSPPROG13
                                    396 	.globl _CSPPROG12
                                    397 	.globl _CSPPROG11
                                    398 	.globl _CSPPROG10
                                    399 	.globl _CSPPROG9
                                    400 	.globl _CSPPROG8
                                    401 	.globl _CSPPROG7
                                    402 	.globl _CSPPROG6
                                    403 	.globl _CSPPROG5
                                    404 	.globl _CSPPROG4
                                    405 	.globl _CSPPROG3
                                    406 	.globl _CSPPROG2
                                    407 	.globl _CSPPROG1
                                    408 	.globl _CSPPROG0
                                    409 	.globl _RFC_OBS_CTRL2
                                    410 	.globl _RFC_OBS_CTRL1
                                    411 	.globl _RFC_OBS_CTRL0
                                    412 	.globl _TXFILTCFG
                                    413 	.globl _PTEST1
                                    414 	.globl _PTEST0
                                    415 	.globl _ATEST
                                    416 	.globl _DACTEST2
                                    417 	.globl _DACTEST1
                                    418 	.globl _DACTEST0
                                    419 	.globl _MDMTEST1
                                    420 	.globl _MDMTEST0
                                    421 	.globl _ADCTEST2
                                    422 	.globl _ADCTEST1
                                    423 	.globl _ADCTEST0
                                    424 	.globl _AGCCTRL3
                                    425 	.globl _AGCCTRL2
                                    426 	.globl _AGCCTRL1
                                    427 	.globl _AGCCTRL0
                                    428 	.globl _FSCAL3
                                    429 	.globl _FSCAL2
                                    430 	.globl _FSCAL1
                                    431 	.globl _FSCAL0
                                    432 	.globl _FSCTRL
                                    433 	.globl _RXCTRL
                                    434 	.globl _FREQEST
                                    435 	.globl _MDMCTRL1
                                    436 	.globl _MDMCTRL0
                                    437 	.globl _RFRND
                                    438 	.globl _RFERRM
                                    439 	.globl _RFIRQM1
                                    440 	.globl _RFIRQM0
                                    441 	.globl _TXLAST_PTR
                                    442 	.globl _TXFIRST_PTR
                                    443 	.globl _RXP1_PTR
                                    444 	.globl _RXLAST_PTR
                                    445 	.globl _RXFIRST_PTR
                                    446 	.globl _TXFIFOCNT
                                    447 	.globl _RXFIFOCNT
                                    448 	.globl _RXFIRST
                                    449 	.globl _RSSISTAT
                                    450 	.globl _RSSI
                                    451 	.globl _CCACTRL1
                                    452 	.globl _CCACTRL0
                                    453 	.globl _FSMCTRL
                                    454 	.globl _FIFOPCTRL
                                    455 	.globl _FSMSTAT1
                                    456 	.globl _FSMSTAT0
                                    457 	.globl _TXCTRL
                                    458 	.globl _TXPOWER
                                    459 	.globl _FREQCTRL
                                    460 	.globl _FREQTUNE
                                    461 	.globl _RXMASKCLR
                                    462 	.globl _RXMASKSET
                                    463 	.globl _RXENABLE
                                    464 	.globl _FRMCTRL1
                                    465 	.globl _FRMCTRL0
                                    466 	.globl _SRCEXTEN2
                                    467 	.globl _SRCEXTEN1
                                    468 	.globl _SRCEXTEN0
                                    469 	.globl _SRCSHORTEN2
                                    470 	.globl _SRCSHORTEN1
                                    471 	.globl _SRCSHORTEN0
                                    472 	.globl _SRCMATCH
                                    473 	.globl _FRMFILT1
                                    474 	.globl _FRMFILT0
                                    475 	.globl _SHORT_ADDR1
                                    476 	.globl _SHORT_ADDR0
                                    477 	.globl _PAN_ID1
                                    478 	.globl _PAN_ID0
                                    479 	.globl _EXT_ADDR7
                                    480 	.globl _EXT_ADDR6
                                    481 	.globl _EXT_ADDR5
                                    482 	.globl _EXT_ADDR4
                                    483 	.globl _EXT_ADDR3
                                    484 	.globl _EXT_ADDR2
                                    485 	.globl _EXT_ADDR1
                                    486 	.globl _EXT_ADDR0
                                    487 	.globl _SRCSHORTPENDEN2
                                    488 	.globl _SRCSHORTPENDEN1
                                    489 	.globl _SRCSHORTPENDEN0
                                    490 	.globl _SRCEXTPENDEN2
                                    491 	.globl _SRCEXTPENDEN1
                                    492 	.globl _SRCEXTPENDEN0
                                    493 	.globl _SRCRESINDEX
                                    494 	.globl _SRCRESMASK2
                                    495 	.globl _SRCRESMASK1
                                    496 	.globl _SRCRESMASK0
                                    497 	.globl _SRC_ADDR_TABLE
                                    498 	.globl _TXFIFO
                                    499 	.globl _RXFIFO
                                    500 	.globl _RFCORE_RAM
                                    501 	.globl _CMPCTL
                                    502 	.globl _OPAMPS
                                    503 	.globl _OPAMPC
                                    504 	.globl _STCV2
                                    505 	.globl _STCV1
                                    506 	.globl _STCV0
                                    507 	.globl _STCS
                                    508 	.globl _STCC
                                    509 	.globl _T1CC4H
                                    510 	.globl _T1CC4L
                                    511 	.globl _T1CC3H
                                    512 	.globl _T1CC3L
                                    513 	.globl _XX_T1CC2H
                                    514 	.globl _XX_T1CC2L
                                    515 	.globl _XX_T1CC1H
                                    516 	.globl _XX_T1CC1L
                                    517 	.globl _XX_T1CC0H
                                    518 	.globl _XX_T1CC0L
                                    519 	.globl _T1CCTL4
                                    520 	.globl _T1CCTL3
                                    521 	.globl _XX_T1CCTL2
                                    522 	.globl _XX_T1CCTL1
                                    523 	.globl _XX_T1CCTL0
                                    524 	.globl _CLD
                                    525 	.globl _IRCTL
                                    526 	.globl _CHIPINFO1
                                    527 	.globl _CHIPINFO0
                                    528 	.globl _FWDATA
                                    529 	.globl _FADDRH
                                    530 	.globl _FADDRL
                                    531 	.globl _FCTL
                                    532 	.globl _IVCTRL
                                    533 	.globl _BATTMON
                                    534 	.globl _SRCRC
                                    535 	.globl _DBGDATA
                                    536 	.globl _TESTREG0
                                    537 	.globl _CHIPID
                                    538 	.globl _CHVER
                                    539 	.globl _OBSSEL5
                                    540 	.globl _OBSSEL4
                                    541 	.globl _OBSSEL3
                                    542 	.globl _OBSSEL2
                                    543 	.globl _OBSSEL1
                                    544 	.globl _OBSSEL0
                                    545 	.globl _I2CIO
                                    546 	.globl _I2CWC
                                    547 	.globl _I2CADDR
                                    548 	.globl _I2CDATA
                                    549 	.globl _I2CSTAT
                                    550 	.globl _I2CCFG
                                    551 	.globl _OPAMPMC
                                    552 	.globl _MONMUX
                                    553 	.globl _dis_output
                                    554 	.globl _dio_output
                                    555 	.globl _dao_output
                                    556 	.globl _dao_ack_output
                                    557 	.globl _uip_rpl_input
                                    558 ;--------------------------------------------------------
                                    559 ; special function registers
                                    560 ;--------------------------------------------------------
                                    561 	.area RSEG    (ABS,DATA)
      000000                        562 	.org 0x0000
                           000080   563 _P0	=	0x0080
                           000081   564 _SP	=	0x0081
                           000082   565 _DPL0	=	0x0082
                           000083   566 _DPH0	=	0x0083
                           000084   567 _DPL1	=	0x0084
                           000085   568 _DPH1	=	0x0085
                           000087   569 _PCON	=	0x0087
                           000088   570 _TCON	=	0x0088
                           000090   571 _P1	=	0x0090
                           000092   572 _DPS	=	0x0092
                           000098   573 _S0CON	=	0x0098
                           00009A   574 _IEN2	=	0x009a
                           00009B   575 _S1CON	=	0x009b
                           0000A0   576 _P2	=	0x00a0
                           0000A8   577 _IEN0	=	0x00a8
                           0000A9   578 _IP0	=	0x00a9
                           0000B8   579 _IEN1	=	0x00b8
                           0000B9   580 _IP1	=	0x00b9
                           0000C0   581 _IRCON	=	0x00c0
                           0000D0   582 _PSW	=	0x00d0
                           0000E0   583 _ACC	=	0x00e0
                           0000E8   584 _IRCON2	=	0x00e8
                           0000F0   585 _B	=	0x00f0
                           0000B4   586 _ADCCON1	=	0x00b4
                           0000B5   587 _ADCCON2	=	0x00b5
                           0000B6   588 _ADCCON3	=	0x00b6
                           0000BA   589 _ADCL	=	0x00ba
                           0000BB   590 _ADCH	=	0x00bb
                           0000BC   591 _RNDL	=	0x00bc
                           0000BD   592 _RNDH	=	0x00bd
                           0000B1   593 _ENCDI	=	0x00b1
                           0000B2   594 _ENCDO	=	0x00b2
                           0000B3   595 _ENCCS	=	0x00b3
                           0000D1   596 _DMAIRQ	=	0x00d1
                           0000D2   597 _DMA1CFGL	=	0x00d2
                           0000D3   598 _DMA1CFGH	=	0x00d3
                           0000D4   599 _DMA0CFGL	=	0x00d4
                           0000D5   600 _DMA0CFGH	=	0x00d5
                           0000D6   601 _DMAARM	=	0x00d6
                           0000D7   602 _DMAREQ	=	0x00d7
                           000089   603 _P0IFG	=	0x0089
                           00008A   604 _P1IFG	=	0x008a
                           00008B   605 _P2IFG	=	0x008b
                           00008C   606 _PICTL	=	0x008c
                           0000AB   607 _P0IEN	=	0x00ab
                           00008D   608 _P1IEN	=	0x008d
                           0000AC   609 _P2IEN	=	0x00ac
                           00008F   610 _P0INP	=	0x008f
                           0000F1   611 _PERCFG	=	0x00f1
                           0000F2   612 _APCFG	=	0x00f2
                           0000F3   613 _P0SEL	=	0x00f3
                           0000F4   614 _P1SEL	=	0x00f4
                           0000F5   615 _P2SEL	=	0x00f5
                           0000F6   616 _P1INP	=	0x00f6
                           0000F7   617 _P2INP	=	0x00f7
                           0000FD   618 _P0DIR	=	0x00fd
                           0000FE   619 _P1DIR	=	0x00fe
                           0000FF   620 _P2DIR	=	0x00ff
                           0000AE   621 _PMUX	=	0x00ae
                           000093   622 _MPAGE	=	0x0093
                           000093   623 __XPAGE	=	0x0093
                           0000C7   624 _MEMCTR	=	0x00c7
                           00009F   625 _FMAP	=	0x009f
                           00009F   626 _PSBANK	=	0x009f
                           000091   627 _RFIRQF1	=	0x0091
                           0000D9   628 _RFD	=	0x00d9
                           0000E1   629 _RFST	=	0x00e1
                           0000E9   630 _RFIRQF0	=	0x00e9
                           0000BF   631 _RFERRF	=	0x00bf
                           000095   632 _ST0	=	0x0095
                           000096   633 _ST1	=	0x0096
                           000097   634 _ST2	=	0x0097
                           0000AD   635 _STLOAD	=	0x00ad
                           0000BE   636 _SLEEPCMD	=	0x00be
                           00009D   637 _SLEEPSTA	=	0x009d
                           0000C6   638 _CLKCONCMD	=	0x00c6
                           00009E   639 _CLKCONSTA	=	0x009e
                           0000DA   640 _T1CC0L	=	0x00da
                           0000DB   641 _T1CC0H	=	0x00db
                           0000DC   642 _T1CC1L	=	0x00dc
                           0000DD   643 _T1CC1H	=	0x00dd
                           0000DE   644 _T1CC2L	=	0x00de
                           0000DF   645 _T1CC2H	=	0x00df
                           0000E2   646 _T1CNTL	=	0x00e2
                           0000E3   647 _T1CNTH	=	0x00e3
                           0000E4   648 _T1CTL	=	0x00e4
                           0000E5   649 _T1CCTL0	=	0x00e5
                           0000E6   650 _T1CCTL1	=	0x00e6
                           0000E7   651 _T1CCTL2	=	0x00e7
                           0000AF   652 _T1STAT	=	0x00af
                           000094   653 _T2CTRL	=	0x0094
                           00009C   654 _T2EVTCFG	=	0x009c
                           0000A1   655 _T2IRQF	=	0x00a1
                           0000A2   656 _T2M0	=	0x00a2
                           0000A3   657 _T2M1	=	0x00a3
                           0000A4   658 _T2MOVF0	=	0x00a4
                           0000A5   659 _T2MOVF1	=	0x00a5
                           0000A6   660 _T2MOVF2	=	0x00a6
                           0000A7   661 _T2IRQM	=	0x00a7
                           0000C3   662 _T2MSEL	=	0x00c3
                           0000CA   663 _T3CNT	=	0x00ca
                           0000CB   664 _T3CTL	=	0x00cb
                           0000CC   665 _T3CCTL0	=	0x00cc
                           0000CD   666 _T3CC0	=	0x00cd
                           0000CE   667 _T3CCTL1	=	0x00ce
                           0000CF   668 _T3CC1	=	0x00cf
                           0000EA   669 _T4CNT	=	0x00ea
                           0000EB   670 _T4CTL	=	0x00eb
                           0000EC   671 _T4CCTL0	=	0x00ec
                           0000ED   672 _T4CC0	=	0x00ed
                           0000EE   673 _T4CCTL1	=	0x00ee
                           0000EF   674 _T4CC1	=	0x00ef
                           0000D8   675 _TIMIF	=	0x00d8
                           000086   676 _U0CSR	=	0x0086
                           0000C1   677 _U0DBUF	=	0x00c1
                           0000C2   678 _U0BAUD	=	0x00c2
                           0000C4   679 _U0UCR	=	0x00c4
                           0000C5   680 _U0GCR	=	0x00c5
                           0000F8   681 _U1CSR	=	0x00f8
                           0000F9   682 _U1DBUF	=	0x00f9
                           0000FA   683 _U1BAUD	=	0x00fa
                           0000FB   684 _U1UCR	=	0x00fb
                           0000FC   685 _U1GCR	=	0x00fc
                           0000C9   686 _WDCTL	=	0x00c9
                                    687 ;--------------------------------------------------------
                                    688 ; special function bits
                                    689 ;--------------------------------------------------------
                                    690 	.area RSEG    (ABS,DATA)
      000000                        691 	.org 0x0000
                           000087   692 _P0_7	=	0x0087
                           000086   693 _P0_6	=	0x0086
                           000085   694 _P0_5	=	0x0085
                           000084   695 _P0_4	=	0x0084
                           000083   696 _P0_3	=	0x0083
                           000082   697 _P0_2	=	0x0082
                           000081   698 _P0_1	=	0x0081
                           000080   699 _P0_0	=	0x0080
                           00008F   700 _URX1IF	=	0x008f
                           00008D   701 _ADCIF	=	0x008d
                           00008B   702 _URX0IF	=	0x008b
                           00008A   703 _IT1	=	0x008a
                           000089   704 _RFERRIF	=	0x0089
                           000088   705 _IT0	=	0x0088
                           000097   706 _P1_7	=	0x0097
                           000096   707 _P1_6	=	0x0096
                           000095   708 _P1_5	=	0x0095
                           000094   709 _P1_4	=	0x0094
                           000093   710 _P1_3	=	0x0093
                           000092   711 _P1_2	=	0x0092
                           000091   712 _P1_1	=	0x0091
                           000090   713 _P1_0	=	0x0090
                           000099   714 _ENCIF_1	=	0x0099
                           000098   715 _ENCIF_0	=	0x0098
                           0000A7   716 _P2_7	=	0x00a7
                           0000A6   717 _P2_6	=	0x00a6
                           0000A5   718 _P2_5	=	0x00a5
                           0000A4   719 _P2_4	=	0x00a4
                           0000A3   720 _P2_3	=	0x00a3
                           0000A2   721 _P2_2	=	0x00a2
                           0000A1   722 _P2_1	=	0x00a1
                           0000A0   723 _P2_0	=	0x00a0
                           0000AF   724 _EA	=	0x00af
                           0000AD   725 _STIE	=	0x00ad
                           0000AC   726 _ENCIE	=	0x00ac
                           0000AB   727 _URX1IE	=	0x00ab
                           0000AA   728 _URX0IE	=	0x00aa
                           0000A9   729 _ADCIE	=	0x00a9
                           0000A8   730 _RFERRIE	=	0x00a8
                           0000BD   731 _P0IE	=	0x00bd
                           0000BC   732 _T4IE	=	0x00bc
                           0000BB   733 _T3IE	=	0x00bb
                           0000BA   734 _T2IE	=	0x00ba
                           0000B9   735 _T1IE	=	0x00b9
                           0000B8   736 _DMAIE	=	0x00b8
                           0000C7   737 _STIF	=	0x00c7
                           0000C5   738 _P0IF	=	0x00c5
                           0000C4   739 _T4IF	=	0x00c4
                           0000C3   740 _T3IF	=	0x00c3
                           0000C2   741 _T2IF	=	0x00c2
                           0000C1   742 _T1IF	=	0x00c1
                           0000C0   743 _DMAIF	=	0x00c0
                           0000D7   744 _CY	=	0x00d7
                           0000D6   745 _AC	=	0x00d6
                           0000D5   746 _F0	=	0x00d5
                           0000D4   747 _RS1	=	0x00d4
                           0000D3   748 _RS0	=	0x00d3
                           0000D2   749 _OV	=	0x00d2
                           0000D1   750 _F1	=	0x00d1
                           0000D0   751 _P	=	0x00d0
                           0000E7   752 _ACC_7	=	0x00e7
                           0000E6   753 _ACC_6	=	0x00e6
                           0000E5   754 _ACC_5	=	0x00e5
                           0000E4   755 _ACC_4	=	0x00e4
                           0000E3   756 _ACC_3	=	0x00e3
                           0000E2   757 _ACC_2	=	0x00e2
                           0000E1   758 _ACC_1	=	0x00e1
                           0000E0   759 _ACC_0	=	0x00e0
                           0000EC   760 _WDTIF	=	0x00ec
                           0000EB   761 _P1IF	=	0x00eb
                           0000EA   762 _UTX1IF	=	0x00ea
                           0000E9   763 _UTX0IF	=	0x00e9
                           0000E8   764 _P2IF	=	0x00e8
                           0000F7   765 _B_7	=	0x00f7
                           0000F6   766 _B_6	=	0x00f6
                           0000F5   767 _B_5	=	0x00f5
                           0000F4   768 _B_4	=	0x00f4
                           0000F3   769 _B_3	=	0x00f3
                           0000F2   770 _B_2	=	0x00f2
                           0000F1   771 _B_1	=	0x00f1
                           0000F0   772 _B_0	=	0x00f0
                           0000DE   773 _OVFIM	=	0x00de
                           0000DD   774 _T4CH1IF	=	0x00dd
                           0000DC   775 _T4CH0IF	=	0x00dc
                           0000DB   776 _T4OVFIF	=	0x00db
                           0000DA   777 _T3CH1IF	=	0x00da
                           0000D9   778 _T3CH0IF	=	0x00d9
                           0000D8   779 _T3OVFIF	=	0x00d8
                           0000FF   780 _MODE	=	0x00ff
                           0000FE   781 _RE	=	0x00fe
                           0000FD   782 _SLAVE	=	0x00fd
                           0000FC   783 _FE	=	0x00fc
                           0000FB   784 _ERR	=	0x00fb
                           0000FA   785 _RX_BYTE	=	0x00fa
                           0000F9   786 _TX_BYTE	=	0x00f9
                           0000F8   787 _ACTIVE	=	0x00f8
                                    788 ;--------------------------------------------------------
                                    789 ; overlayable register banks
                                    790 ;--------------------------------------------------------
                                    791 	.area REG_BANK_0	(REL,OVR,DATA)
      000000                        792 	.ds 8
                                    793 ;--------------------------------------------------------
                                    794 ; internal ram data
                                    795 ;--------------------------------------------------------
                                    796 	.area DSEG    (DATA)
                                    797 ;--------------------------------------------------------
                                    798 ; overlayable items in internal ram 
                                    799 ;--------------------------------------------------------
                                    800 ;--------------------------------------------------------
                                    801 ; indirectly addressable internal ram data
                                    802 ;--------------------------------------------------------
                                    803 	.area ISEG    (DATA)
                                    804 ;--------------------------------------------------------
                                    805 ; absolute internal ram data
                                    806 ;--------------------------------------------------------
                                    807 	.area IABS    (ABS,DATA)
                                    808 	.area IABS    (ABS,DATA)
                                    809 ;--------------------------------------------------------
                                    810 ; bit data
                                    811 ;--------------------------------------------------------
                                    812 	.area BSEG    (BIT)
                                    813 ;--------------------------------------------------------
                                    814 ; paged external ram data
                                    815 ;--------------------------------------------------------
                                    816 	.area PSEG    (PAG,XDATA)
                                    817 ;--------------------------------------------------------
                                    818 ; external ram data
                                    819 ;--------------------------------------------------------
                                    820 	.area XSEG    (XDATA)
                           0061A6   821 _MONMUX	=	0x61a6
                           0061A6   822 _OPAMPMC	=	0x61a6
                           006230   823 _I2CCFG	=	0x6230
                           006231   824 _I2CSTAT	=	0x6231
                           006232   825 _I2CDATA	=	0x6232
                           006233   826 _I2CADDR	=	0x6233
                           006234   827 _I2CWC	=	0x6234
                           006235   828 _I2CIO	=	0x6235
                           006243   829 _OBSSEL0	=	0x6243
                           006244   830 _OBSSEL1	=	0x6244
                           006245   831 _OBSSEL2	=	0x6245
                           006246   832 _OBSSEL3	=	0x6246
                           006247   833 _OBSSEL4	=	0x6247
                           006248   834 _OBSSEL5	=	0x6248
                           006249   835 _CHVER	=	0x6249
                           00624A   836 _CHIPID	=	0x624a
                           00624B   837 _TESTREG0	=	0x624b
                           006260   838 _DBGDATA	=	0x6260
                           006262   839 _SRCRC	=	0x6262
                           006264   840 _BATTMON	=	0x6264
                           006265   841 _IVCTRL	=	0x6265
                           006270   842 _FCTL	=	0x6270
                           006271   843 _FADDRL	=	0x6271
                           006272   844 _FADDRH	=	0x6272
                           006273   845 _FWDATA	=	0x6273
                           006276   846 _CHIPINFO0	=	0x6276
                           006277   847 _CHIPINFO1	=	0x6277
                           006281   848 _IRCTL	=	0x6281
                           006290   849 _CLD	=	0x6290
                           0062A0   850 _XX_T1CCTL0	=	0x62a0
                           0062A1   851 _XX_T1CCTL1	=	0x62a1
                           0062A2   852 _XX_T1CCTL2	=	0x62a2
                           0062A3   853 _T1CCTL3	=	0x62a3
                           0062A4   854 _T1CCTL4	=	0x62a4
                           0062A6   855 _XX_T1CC0L	=	0x62a6
                           0062A7   856 _XX_T1CC0H	=	0x62a7
                           0062A8   857 _XX_T1CC1L	=	0x62a8
                           0062A9   858 _XX_T1CC1H	=	0x62a9
                           0062AA   859 _XX_T1CC2L	=	0x62aa
                           0062AB   860 _XX_T1CC2H	=	0x62ab
                           0062AC   861 _T1CC3L	=	0x62ac
                           0062AD   862 _T1CC3H	=	0x62ad
                           0062AE   863 _T1CC4L	=	0x62ae
                           0062AF   864 _T1CC4H	=	0x62af
                           0062B0   865 _STCC	=	0x62b0
                           0062B1   866 _STCS	=	0x62b1
                           0062B2   867 _STCV0	=	0x62b2
                           0062B3   868 _STCV1	=	0x62b3
                           0062B4   869 _STCV2	=	0x62b4
                           0062C0   870 _OPAMPC	=	0x62c0
                           0062C1   871 _OPAMPS	=	0x62c1
                           0062D0   872 _CMPCTL	=	0x62d0
                           006000   873 _RFCORE_RAM	=	0x6000
                           006000   874 _RXFIFO	=	0x6000
                           006080   875 _TXFIFO	=	0x6080
                           006100   876 _SRC_ADDR_TABLE	=	0x6100
                           006160   877 _SRCRESMASK0	=	0x6160
                           006161   878 _SRCRESMASK1	=	0x6161
                           006162   879 _SRCRESMASK2	=	0x6162
                           006163   880 _SRCRESINDEX	=	0x6163
                           006164   881 _SRCEXTPENDEN0	=	0x6164
                           006165   882 _SRCEXTPENDEN1	=	0x6165
                           006166   883 _SRCEXTPENDEN2	=	0x6166
                           006167   884 _SRCSHORTPENDEN0	=	0x6167
                           006168   885 _SRCSHORTPENDEN1	=	0x6168
                           006169   886 _SRCSHORTPENDEN2	=	0x6169
                           00616A   887 _EXT_ADDR0	=	0x616a
                           00616B   888 _EXT_ADDR1	=	0x616b
                           00616C   889 _EXT_ADDR2	=	0x616c
                           00616D   890 _EXT_ADDR3	=	0x616d
                           00616E   891 _EXT_ADDR4	=	0x616e
                           00616F   892 _EXT_ADDR5	=	0x616f
                           006170   893 _EXT_ADDR6	=	0x6170
                           006171   894 _EXT_ADDR7	=	0x6171
                           006172   895 _PAN_ID0	=	0x6172
                           006173   896 _PAN_ID1	=	0x6173
                           006174   897 _SHORT_ADDR0	=	0x6174
                           006175   898 _SHORT_ADDR1	=	0x6175
                           006180   899 _FRMFILT0	=	0x6180
                           006181   900 _FRMFILT1	=	0x6181
                           006182   901 _SRCMATCH	=	0x6182
                           006183   902 _SRCSHORTEN0	=	0x6183
                           006184   903 _SRCSHORTEN1	=	0x6184
                           006185   904 _SRCSHORTEN2	=	0x6185
                           006186   905 _SRCEXTEN0	=	0x6186
                           006187   906 _SRCEXTEN1	=	0x6187
                           006188   907 _SRCEXTEN2	=	0x6188
                           006189   908 _FRMCTRL0	=	0x6189
                           00618A   909 _FRMCTRL1	=	0x618a
                           00618B   910 _RXENABLE	=	0x618b
                           00618C   911 _RXMASKSET	=	0x618c
                           00618D   912 _RXMASKCLR	=	0x618d
                           00618E   913 _FREQTUNE	=	0x618e
                           00618F   914 _FREQCTRL	=	0x618f
                           006190   915 _TXPOWER	=	0x6190
                           006191   916 _TXCTRL	=	0x6191
                           006192   917 _FSMSTAT0	=	0x6192
                           006193   918 _FSMSTAT1	=	0x6193
                           006194   919 _FIFOPCTRL	=	0x6194
                           006195   920 _FSMCTRL	=	0x6195
                           006196   921 _CCACTRL0	=	0x6196
                           006197   922 _CCACTRL1	=	0x6197
                           006198   923 _RSSI	=	0x6198
                           006199   924 _RSSISTAT	=	0x6199
                           00619A   925 _RXFIRST	=	0x619a
                           00619B   926 _RXFIFOCNT	=	0x619b
                           00619C   927 _TXFIFOCNT	=	0x619c
                           00619D   928 _RXFIRST_PTR	=	0x619d
                           00619E   929 _RXLAST_PTR	=	0x619e
                           00619F   930 _RXP1_PTR	=	0x619f
                           0061A1   931 _TXFIRST_PTR	=	0x61a1
                           0061A2   932 _TXLAST_PTR	=	0x61a2
                           0061A3   933 _RFIRQM0	=	0x61a3
                           0061A4   934 _RFIRQM1	=	0x61a4
                           0061A5   935 _RFERRM	=	0x61a5
                           0061A7   936 _RFRND	=	0x61a7
                           0061A8   937 _MDMCTRL0	=	0x61a8
                           0061A9   938 _MDMCTRL1	=	0x61a9
                           0061AA   939 _FREQEST	=	0x61aa
                           0061AB   940 _RXCTRL	=	0x61ab
                           0061AC   941 _FSCTRL	=	0x61ac
                           0061AD   942 _FSCAL0	=	0x61ad
                           0061AE   943 _FSCAL1	=	0x61ae
                           0061AF   944 _FSCAL2	=	0x61af
                           0061B0   945 _FSCAL3	=	0x61b0
                           0061B1   946 _AGCCTRL0	=	0x61b1
                           0061B2   947 _AGCCTRL1	=	0x61b2
                           0061B3   948 _AGCCTRL2	=	0x61b3
                           0061B4   949 _AGCCTRL3	=	0x61b4
                           0061B5   950 _ADCTEST0	=	0x61b5
                           0061B6   951 _ADCTEST1	=	0x61b6
                           0061B7   952 _ADCTEST2	=	0x61b7
                           0061B8   953 _MDMTEST0	=	0x61b8
                           0061B9   954 _MDMTEST1	=	0x61b9
                           0061BA   955 _DACTEST0	=	0x61ba
                           0061BB   956 _DACTEST1	=	0x61bb
                           0061BC   957 _DACTEST2	=	0x61bc
                           0061BD   958 _ATEST	=	0x61bd
                           0061BE   959 _PTEST0	=	0x61be
                           0061BF   960 _PTEST1	=	0x61bf
                           0061FA   961 _TXFILTCFG	=	0x61fa
                           0061EB   962 _RFC_OBS_CTRL0	=	0x61eb
                           0061EC   963 _RFC_OBS_CTRL1	=	0x61ec
                           0061ED   964 _RFC_OBS_CTRL2	=	0x61ed
                           0061C0   965 _CSPPROG0	=	0x61c0
                           0061C1   966 _CSPPROG1	=	0x61c1
                           0061C2   967 _CSPPROG2	=	0x61c2
                           0061C3   968 _CSPPROG3	=	0x61c3
                           0061C4   969 _CSPPROG4	=	0x61c4
                           0061C5   970 _CSPPROG5	=	0x61c5
                           0061C6   971 _CSPPROG6	=	0x61c6
                           0061C7   972 _CSPPROG7	=	0x61c7
                           0061C8   973 _CSPPROG8	=	0x61c8
                           0061C9   974 _CSPPROG9	=	0x61c9
                           0061CA   975 _CSPPROG10	=	0x61ca
                           0061CB   976 _CSPPROG11	=	0x61cb
                           0061CC   977 _CSPPROG12	=	0x61cc
                           0061CD   978 _CSPPROG13	=	0x61cd
                           0061CE   979 _CSPPROG14	=	0x61ce
                           0061CF   980 _CSPPROG15	=	0x61cf
                           0061D0   981 _CSPPROG16	=	0x61d0
                           0061D1   982 _CSPPROG17	=	0x61d1
                           0061D2   983 _CSPPROG18	=	0x61d2
                           0061D3   984 _CSPPROG19	=	0x61d3
                           0061D4   985 _CSPPROG20	=	0x61d4
                           0061D5   986 _CSPPROG21	=	0x61d5
                           0061D6   987 _CSPPROG22	=	0x61d6
                           0061D7   988 _CSPPROG23	=	0x61d7
                           0061E0   989 _CSPCTRL	=	0x61e0
                           0061E1   990 _CSPSTAT	=	0x61e1
                           0061E2   991 _CSPX	=	0x61e2
                           0061E3   992 _CSPY	=	0x61e3
                           0061E4   993 _CSPZ	=	0x61e4
                           0061E5   994 _CSPT	=	0x61e5
                           006200   995 _USBADDR	=	0x6200
                           006201   996 _USBPOW	=	0x6201
                           006202   997 _USBIIF	=	0x6202
                           006204   998 _USBOIF	=	0x6204
                           006206   999 _USBCIF	=	0x6206
                           006207  1000 _USBIIE	=	0x6207
                           006209  1001 _USBOIE	=	0x6209
                           00620B  1002 _USBCIE	=	0x620b
                           00620C  1003 _USBFRML	=	0x620c
                           00620D  1004 _USBFRMH	=	0x620d
                           00620E  1005 _USBINDEX	=	0x620e
                           00620F  1006 _USBCTRL	=	0x620f
                           006210  1007 _USBMAXI	=	0x6210
                           006211  1008 _USBCS0	=	0x6211
                           006211  1009 _USBCSIL	=	0x6211
                           006212  1010 _USBCSIH	=	0x6212
                           006213  1011 _USBMAXO	=	0x6213
                           006214  1012 _USBCSOL	=	0x6214
                           006215  1013 _USBCSOH	=	0x6215
                           006216  1014 _USBCNT0	=	0x6216
                           006216  1015 _USBCNTL	=	0x6216
                           006217  1016 _USBCNTH	=	0x6217
                           006220  1017 _USBF0	=	0x6220
                           006222  1018 _USBF1	=	0x6222
                           006224  1019 _USBF2	=	0x6224
                           006226  1020 _USBF3	=	0x6226
                           006228  1021 _USBF4	=	0x6228
                           00622A  1022 _USBF5	=	0x622a
                           007080  1023 _X_P0	=	0x7080
                           007086  1024 _X_U0CSR	=	0x7086
                           007089  1025 _X_P0IFG	=	0x7089
                           00708A  1026 _X_P1IFG	=	0x708a
                           00708B  1027 _X_P2IFG	=	0x708b
                           00708C  1028 _X_PICTL	=	0x708c
                           00708D  1029 _X_P1IEN	=	0x708d
                           00708F  1030 _X_P0INP	=	0x708f
                           007090  1031 _X_P1	=	0x7090
                           007091  1032 _X_RFIRQF1	=	0x7091
                           007093  1033 _X_MPAGE	=	0x7093
                           007093  1034 _X__XPAGE	=	0x7093
                           007094  1035 _X_T2CTRL	=	0x7094
                           007095  1036 _X_ST0	=	0x7095
                           007096  1037 _X_ST1	=	0x7096
                           007097  1038 _X_ST2	=	0x7097
                           00709C  1039 _X_T2EVTCFG	=	0x709c
                           00709D  1040 _X_SLEEPSTA	=	0x709d
                           00709E  1041 _X_CLKCONSTA	=	0x709e
                           00709F  1042 _X_FMAP	=	0x709f
                           00709F  1043 _X_PSBANK	=	0x709f
                           0070A0  1044 _X_P2	=	0x70a0
                           0070A1  1045 _X_T2IRQF	=	0x70a1
                           0070A2  1046 _X_T2M0	=	0x70a2
                           0070A3  1047 _X_T2M1	=	0x70a3
                           0070A4  1048 _X_T2MOVF0	=	0x70a4
                           0070A5  1049 _X_T2MOVF1	=	0x70a5
                           0070A6  1050 _X_T2MOVF2	=	0x70a6
                           0070A7  1051 _X_T2IRQM	=	0x70a7
                           0070AB  1052 _X_P0IEN	=	0x70ab
                           0070AC  1053 _X_P2IEN	=	0x70ac
                           0070AD  1054 _X_STLOAD	=	0x70ad
                           0070AE  1055 _X_PMUX	=	0x70ae
                           0070AF  1056 _X_T1STAT	=	0x70af
                           0070B1  1057 _X_ENCDI	=	0x70b1
                           0070B2  1058 _X_ENCDO	=	0x70b2
                           0070B3  1059 _X_ENCCS	=	0x70b3
                           0070B4  1060 _X_ADCCON1	=	0x70b4
                           0070B5  1061 _X_ADCCON2	=	0x70b5
                           0070B6  1062 _X_ADCCON3	=	0x70b6
                           0070BA  1063 _X_ADCL	=	0x70ba
                           0070BB  1064 _X_ADCH	=	0x70bb
                           0070BC  1065 _X_RNDL	=	0x70bc
                           0070BD  1066 _X_RNDH	=	0x70bd
                           0070BE  1067 _X_SLEEPCMD	=	0x70be
                           0070BF  1068 _X_RFERRF	=	0x70bf
                           0070C1  1069 _X_U0DBUF	=	0x70c1
                           0070C2  1070 _X_U0BAUD	=	0x70c2
                           0070C3  1071 _X_T2MSEL	=	0x70c3
                           0070C4  1072 _X_U0UCR	=	0x70c4
                           0070C5  1073 _X_U0GCR	=	0x70c5
                           0070C6  1074 _X_CLKCONCMD	=	0x70c6
                           0070C7  1075 _X_MEMCTR	=	0x70c7
                           0070C9  1076 _X_WDCTL	=	0x70c9
                           0070CA  1077 _X_T3CNT	=	0x70ca
                           0070CB  1078 _X_T3CTL	=	0x70cb
                           0070CC  1079 _X_T3CCTL0	=	0x70cc
                           0070CD  1080 _X_T3CC0	=	0x70cd
                           0070CE  1081 _X_T3CCTL1	=	0x70ce
                           0070CF  1082 _X_T3CC1	=	0x70cf
                           0070D1  1083 _X_DMAIRQ	=	0x70d1
                           0070D2  1084 _X_DMA1CFGL	=	0x70d2
                           0070D3  1085 _X_DMA1CFGH	=	0x70d3
                           0070D4  1086 _X_DMA0CFGL	=	0x70d4
                           0070D5  1087 _X_DMA0CFGH	=	0x70d5
                           0070D6  1088 _X_DMAARM	=	0x70d6
                           0070D7  1089 _X_DMAREQ	=	0x70d7
                           0070D8  1090 _X_TIMIF	=	0x70d8
                           0070D9  1091 _X_RFD	=	0x70d9
                           0070DA  1092 _X_T1CC0L	=	0x70da
                           0070DB  1093 _X_T1CC0H	=	0x70db
                           0070DC  1094 _X_T1CC1L	=	0x70dc
                           0070DD  1095 _X_T1CC1H	=	0x70dd
                           0070DE  1096 _X_T1CC2L	=	0x70de
                           0070DF  1097 _X_T1CC2H	=	0x70df
                           0070E1  1098 _X_RFST	=	0x70e1
                           0070E2  1099 _X_T1CNTL	=	0x70e2
                           0070E3  1100 _X_T1CNTH	=	0x70e3
                           0070E4  1101 _X_T1CTL	=	0x70e4
                           0070E5  1102 _X_T1CCTL0	=	0x70e5
                           0070E6  1103 _X_T1CCTL1	=	0x70e6
                           0070E7  1104 _X_T1CCTL2	=	0x70e7
                           0070E9  1105 _X_RFIRQF0	=	0x70e9
                           0070EA  1106 _X_T4CNT	=	0x70ea
                           0070EB  1107 _X_T4CTL	=	0x70eb
                           0070EC  1108 _X_T4CCTL0	=	0x70ec
                           0070ED  1109 _X_T4CC0	=	0x70ed
                           0070EE  1110 _X_T4CCTL1	=	0x70ee
                           0070EF  1111 _X_T4CC1	=	0x70ef
                           0070F1  1112 _X_PERCFG	=	0x70f1
                           0070F2  1113 _X_APCFG	=	0x70f2
                           0070F3  1114 _X_P0SEL	=	0x70f3
                           0070F4  1115 _X_P1SEL	=	0x70f4
                           0070F5  1116 _X_P2SEL	=	0x70f5
                           0070F6  1117 _X_P1INP	=	0x70f6
                           0070F7  1118 _X_P2INP	=	0x70f7
                           0070F8  1119 _X_U1CSR	=	0x70f8
                           0070F9  1120 _X_U1DBUF	=	0x70f9
                           0070FA  1121 _X_U1BAUD	=	0x70fa
                           0070FB  1122 _X_U1UCR	=	0x70fb
                           0070FC  1123 _X_U1GCR	=	0x70fc
                           0070FD  1124 _X_P0DIR	=	0x70fd
                           0070FE  1125 _X_P1DIR	=	0x70fe
                           0070FF  1126 _X_P2DIR	=	0x70ff
                           007800  1127 _X_INFOPAGE	=	0x7800
                           00780C  1128 _X_IEEE_ADDR	=	0x780c
      000000                       1129 _addr:
      000000                       1130 	.ds 16
      000010                       1131 _prefix:
      000010                       1132 	.ds 16
      000020                       1133 _dio:
      000020                       1134 	.ds 87
      000077                       1135 _from:
      000077                       1136 	.ds 16
      000087                       1137 _dao_sender_addr:
      000087                       1138 	.ds 16
      000097                       1139 _dis_output_tmpaddr_65536_309:
      000097                       1140 	.ds 16
      0000A7                       1141 _dio_output_pos_65536_333:
      0000A7                       1142 	.ds 2
      0000A9                       1143 _dao_input_sequence_65536_345:
      0000A9                       1144 	.ds 2
      0000AB                       1145 _dao_input_instance_id_65536_345:
      0000AB                       1146 	.ds 1
      0000AC                       1147 _dao_input_lifetime_65536_345:
      0000AC                       1148 	.ds 1
      0000AD                       1149 _dao_input_prefixlen_65536_345:
      0000AD                       1150 	.ds 1
      0000AE                       1151 _dao_input_buffer_length_65536_345:
      0000AE                       1152 	.ds 1
      0000AF                       1153 _dao_input_pos_65536_345:
      0000AF                       1154 	.ds 2
                                   1155 ;--------------------------------------------------------
                                   1156 ; absolute external ram data
                                   1157 ;--------------------------------------------------------
                                   1158 	.area XABS    (ABS,XDATA)
                                   1159 ;--------------------------------------------------------
                                   1160 ; external initialized ram data
                                   1161 ;--------------------------------------------------------
                                   1162 	.area XISEG   (XDATA)
      000000                       1163 _dao_sequence:
      000000                       1164 	.ds 1
                                   1165 	.area HOME    (CODE)
                                   1166 	.area GSINIT0 (CODE)
                                   1167 	.area GSINIT1 (CODE)
                                   1168 	.area GSINIT2 (CODE)
                                   1169 	.area GSINIT3 (CODE)
                                   1170 	.area GSINIT4 (CODE)
                                   1171 	.area GSINIT5 (CODE)
                                   1172 	.area GSINIT  (CODE)
                                   1173 	.area GSFINAL (CODE)
                                   1174 	.area CSEG    (CODE)
                                   1175 ;--------------------------------------------------------
                                   1176 ; global & static initialisations
                                   1177 ;--------------------------------------------------------
                                   1178 	.area HOME    (CODE)
                                   1179 	.area GSINIT  (CODE)
                                   1180 	.area GSFINAL (CODE)
                                   1181 	.area GSINIT  (CODE)
                                   1182 ;--------------------------------------------------------
                                   1183 ; Home
                                   1184 ;--------------------------------------------------------
                                   1185 	.area HOME    (CODE)
                                   1186 	.area HOME    (CODE)
                                   1187 ;--------------------------------------------------------
                                   1188 ; code
                                   1189 ;--------------------------------------------------------
                                   1190 	.area BANK1   (CODE)
                                   1191 ;------------------------------------------------------------
                                   1192 ;Allocation info for local variables in function 'get_global_addr'
                                   1193 ;------------------------------------------------------------
                                   1194 ;addr                      Allocated to stack - sp -6
                                   1195 ;i                         Allocated to registers r3 r4 
                                   1196 ;state                     Allocated to registers r7 r2 
                                   1197 ;sloc0                     Allocated to stack - sp -3
                                   1198 ;sloc1                     Allocated to stack - sp -1
                                   1199 ;sloc2                     Allocated to stack - sp +5
                                   1200 ;sloc3                     Allocated to stack - sp +8
                                   1201 ;------------------------------------------------------------
                                   1202 ;	../../../core/net/rpl/rpl-icmp6.c:106: get_global_addr(uip_ipaddr_t *addr)
                                   1203 ;	-----------------------------------------
                                   1204 ;	 function get_global_addr
                                   1205 ;	-----------------------------------------
      000000                       1206 _get_global_addr:
                           000007  1207 	ar7 = 0x07
                           000006  1208 	ar6 = 0x06
                           000005  1209 	ar5 = 0x05
                           000004  1210 	ar4 = 0x04
                           000003  1211 	ar3 = 0x03
                           000002  1212 	ar2 = 0x02
                           000001  1213 	ar1 = 0x01
                           000000  1214 	ar0 = 0x00
      000000 C0 82            [24] 1215 	push	dpl
      000002 C0 83            [24] 1216 	push	dph
      000004 C0 F0            [24] 1217 	push	b
      000006 E5 81            [12] 1218 	mov	a,sp
      000008 24 04            [12] 1219 	add	a,#0x04
      00000A F5 81            [12] 1220 	mov	sp,a
                                   1221 ;	../../../core/net/rpl/rpl-icmp6.c:111: for(i = 0; i < UIP_DS6_ADDR_NB; i++) {
      00000C 7B 00            [12] 1222 	mov	r3,#0x00
      00000E 7C 00            [12] 1223 	mov	r4,#0x00
      000010 A8 81            [24] 1224 	mov	r0,sp
      000012 18               [12] 1225 	dec	r0
      000013 E4               [12] 1226 	clr	a
      000014 F6               [12] 1227 	mov	@r0,a
      000015 08               [12] 1228 	inc	r0
      000016 F6               [12] 1229 	mov	@r0,a
      000017 7D 00            [12] 1230 	mov	r5,#0x00
      000019 7E 00            [12] 1231 	mov	r6,#0x00
      00001B                       1232 00109$:
                                   1233 ;	../../../core/net/rpl/rpl-icmp6.c:112: state = uip_ds6_if.addr_list[i].state;
      00001B C0 03            [24] 1234 	push	ar3
      00001D C0 04            [24] 1235 	push	ar4
      00001F E5 81            [12] 1236 	mov	a,sp
      000021 24 FB            [12] 1237 	add	a,#0xfb
      000023 F8               [12] 1238 	mov	r0,a
      000024 ED               [12] 1239 	mov	a,r5
      000025 24r12            [12] 1240 	add	a,#(_uip_ds6_if + 0x0012)
      000027 F6               [12] 1241 	mov	@r0,a
      000028 EE               [12] 1242 	mov	a,r6
      000029 34s00            [12] 1243 	addc	a,#((_uip_ds6_if + 0x0012) >> 8)
      00002B 08               [12] 1244 	inc	r0
      00002C F6               [12] 1245 	mov	@r0,a
      00002D E5 81            [12] 1246 	mov	a,sp
      00002F 24 FB            [12] 1247 	add	a,#0xfb
      000031 F8               [12] 1248 	mov	r0,a
      000032 74 11            [12] 1249 	mov	a,#0x11
      000034 26               [12] 1250 	add	a,@r0
      000035 F5 82            [12] 1251 	mov	dpl,a
      000037 E4               [12] 1252 	clr	a
      000038 08               [12] 1253 	inc	r0
      000039 36               [12] 1254 	addc	a,@r0
      00003A F5 83            [12] 1255 	mov	dph,a
      00003C E0               [24] 1256 	movx	a,@dptr
      00003D FF               [12] 1257 	mov	r7,a
      00003E 7A 00            [12] 1258 	mov	r2,#0x00
                                   1259 ;	../../../core/net/rpl/rpl-icmp6.c:113: if(uip_ds6_if.addr_list[i].isused &&
      000040 E5 81            [12] 1260 	mov	a,sp
      000042 24 FB            [12] 1261 	add	a,#0xfb
      000044 F8               [12] 1262 	mov	r0,a
      000045 86 82            [24] 1263 	mov	dpl,@r0
      000047 08               [12] 1264 	inc	r0
      000048 86 83            [24] 1265 	mov	dph,@r0
      00004A E0               [24] 1266 	movx	a,@dptr
      00004B D0 04            [24] 1267 	pop	ar4
      00004D D0 03            [24] 1268 	pop	ar3
      00004F 70 03            [24] 1269 	jnz	00133$
      000051 02r00rF1         [24] 1270 	ljmp	00110$
      000054                       1271 00133$:
                                   1272 ;	../../../core/net/rpl/rpl-icmp6.c:114: (state == ADDR_TENTATIVE || state == ADDR_PREFERRED)) {
      000054 EF               [12] 1273 	mov	a,r7
      000055 4A               [12] 1274 	orl	a,r2
      000056 60 0B            [24] 1275 	jz	00104$
      000058 BF 01 05         [24] 1276 	cjne	r7,#0x01,00135$
      00005B BA 00 02         [24] 1277 	cjne	r2,#0x00,00135$
      00005E 80 03            [24] 1278 	sjmp	00136$
      000060                       1279 00135$:
      000060 02r00rF1         [24] 1280 	ljmp	00110$
      000063                       1281 00136$:
      000063                       1282 00104$:
                                   1283 ;	../../../core/net/rpl/rpl-icmp6.c:115: if(!uip_is_addr_link_local(&uip_ds6_if.addr_list[i].ipaddr)) {
      000063 C0 03            [24] 1284 	push	ar3
      000065 C0 04            [24] 1285 	push	ar4
      000067 E5 81            [12] 1286 	mov	a,sp
      000069 24 FD            [12] 1287 	add	a,#0xfd
      00006B F8               [12] 1288 	mov	r0,a
      00006C E6               [12] 1289 	mov	a,@r0
      00006D 24r12            [12] 1290 	add	a,#(_uip_ds6_if + 0x0012)
      00006F FB               [12] 1291 	mov	r3,a
      000070 08               [12] 1292 	inc	r0
      000071 E6               [12] 1293 	mov	a,@r0
      000072 34s00            [12] 1294 	addc	a,#((_uip_ds6_if + 0x0012) >> 8)
      000074 FC               [12] 1295 	mov	r4,a
      000075 8B 82            [24] 1296 	mov	dpl,r3
      000077 8C 83            [24] 1297 	mov	dph,r4
      000079 A3               [24] 1298 	inc	dptr
      00007A E0               [24] 1299 	movx	a,@dptr
      00007B FC               [12] 1300 	mov	r4,a
      00007C BC FE 02         [24] 1301 	cjne	r4,#0xfe,00137$
      00007F 80 06            [24] 1302 	sjmp	00138$
      000081                       1303 00137$:
      000081 D0 04            [24] 1304 	pop	ar4
      000083 D0 03            [24] 1305 	pop	ar3
      000085 80 23            [24] 1306 	sjmp	00101$
      000087                       1307 00138$:
      000087 E5 81            [12] 1308 	mov	a,sp
      000089 24 FD            [12] 1309 	add	a,#0xfd
      00008B F8               [12] 1310 	mov	r0,a
      00008C E6               [12] 1311 	mov	a,@r0
      00008D 24r12            [12] 1312 	add	a,#(_uip_ds6_if + 0x0012)
      00008F FB               [12] 1313 	mov	r3,a
      000090 08               [12] 1314 	inc	r0
      000091 E6               [12] 1315 	mov	a,@r0
      000092 34s00            [12] 1316 	addc	a,#((_uip_ds6_if + 0x0012) >> 8)
      000094 FC               [12] 1317 	mov	r4,a
      000095 8B 82            [24] 1318 	mov	dpl,r3
      000097 8C 83            [24] 1319 	mov	dph,r4
      000099 A3               [24] 1320 	inc	dptr
      00009A A3               [24] 1321 	inc	dptr
      00009B E0               [24] 1322 	movx	a,@dptr
      00009C FC               [12] 1323 	mov	r4,a
      00009D BC 80 06         [24] 1324 	cjne	r4,#0x80,00139$
      0000A0 D0 04            [24] 1325 	pop	ar4
      0000A2 D0 03            [24] 1326 	pop	ar3
      0000A4 80 4B            [24] 1327 	sjmp	00110$
      0000A6                       1328 00139$:
      0000A6 D0 04            [24] 1329 	pop	ar4
      0000A8 D0 03            [24] 1330 	pop	ar3
      0000AA                       1331 00101$:
                                   1332 ;	../../../core/net/rpl/rpl-icmp6.c:116: memcpy(addr, &uip_ds6_if.addr_list[i].ipaddr, sizeof(uip_ipaddr_t));
      0000AA A8 81            [24] 1333 	mov	r0,sp
      0000AC 18               [12] 1334 	dec	r0
      0000AD E6               [12] 1335 	mov	a,@r0
      0000AE 24r12            [12] 1336 	add	a,#(_uip_ds6_if + 0x0012)
      0000B0 FA               [12] 1337 	mov	r2,a
      0000B1 08               [12] 1338 	inc	r0
      0000B2 E6               [12] 1339 	mov	a,@r0
      0000B3 34s00            [12] 1340 	addc	a,#((_uip_ds6_if + 0x0012) >> 8)
      0000B5 FF               [12] 1341 	mov	r7,a
      0000B6 0A               [12] 1342 	inc	r2
      0000B7 BA 00 01         [24] 1343 	cjne	r2,#0x00,00140$
      0000BA 0F               [12] 1344 	inc	r7
      0000BB                       1345 00140$:
      0000BB 7E 00            [12] 1346 	mov	r6,#0x00
      0000BD E5 81            [12] 1347 	mov	a,sp
      0000BF 24 FA            [12] 1348 	add	a,#0xfa
      0000C1 F8               [12] 1349 	mov	r0,a
      0000C2 86 05            [24] 1350 	mov	ar5,@r0
      0000C4 08               [12] 1351 	inc	r0
      0000C5 86 04            [24] 1352 	mov	ar4,@r0
      0000C7 08               [12] 1353 	inc	r0
      0000C8 86 03            [24] 1354 	mov	ar3,@r0
      0000CA 74 10            [12] 1355 	mov	a,#0x10
      0000CC C0 E0            [24] 1356 	push	acc
      0000CE E4               [12] 1357 	clr	a
      0000CF C0 E0            [24] 1358 	push	acc
      0000D1 C0 02            [24] 1359 	push	ar2
      0000D3 C0 07            [24] 1360 	push	ar7
      0000D5 C0 06            [24] 1361 	push	ar6
      0000D7 8D 82            [24] 1362 	mov	dpl,r5
      0000D9 8C 83            [24] 1363 	mov	dph,r4
      0000DB 8B F0            [24] 1364 	mov	b,r3
      0000DD 78r00            [12] 1365 	mov	r0,#___memcpy
      0000DF 79s00            [12] 1366 	mov	r1,#(___memcpy >> 8)
      0000E1 7As00            [12] 1367 	mov	r2,#(___memcpy >> 16)
      0000E3 12r00r00         [24] 1368 	lcall	__sdcc_banked_call
      0000E6 E5 81            [12] 1369 	mov	a,sp
      0000E8 24 FB            [12] 1370 	add	a,#0xfb
      0000EA F5 81            [12] 1371 	mov	sp,a
                                   1372 ;	../../../core/net/rpl/rpl-icmp6.c:117: return 1;
      0000EC 90 00 01         [24] 1373 	mov	dptr,#0x0001
      0000EF 80 28            [24] 1374 	sjmp	00111$
      0000F1                       1375 00110$:
                                   1376 ;	../../../core/net/rpl/rpl-icmp6.c:111: for(i = 0; i < UIP_DS6_ADDR_NB; i++) {
      0000F1 A8 81            [24] 1377 	mov	r0,sp
      0000F3 18               [12] 1378 	dec	r0
      0000F4 74 1C            [12] 1379 	mov	a,#0x1c
      0000F6 26               [12] 1380 	add	a,@r0
      0000F7 F6               [12] 1381 	mov	@r0,a
      0000F8 E4               [12] 1382 	clr	a
      0000F9 08               [12] 1383 	inc	r0
      0000FA 36               [12] 1384 	addc	a,@r0
      0000FB F6               [12] 1385 	mov	@r0,a
      0000FC 74 1C            [12] 1386 	mov	a,#0x1c
      0000FE 2D               [12] 1387 	add	a,r5
      0000FF FD               [12] 1388 	mov	r5,a
      000100 E4               [12] 1389 	clr	a
      000101 3E               [12] 1390 	addc	a,r6
      000102 FE               [12] 1391 	mov	r6,a
      000103 0B               [12] 1392 	inc	r3
      000104 BB 00 01         [24] 1393 	cjne	r3,#0x00,00141$
      000107 0C               [12] 1394 	inc	r4
      000108                       1395 00141$:
      000108 C3               [12] 1396 	clr	c
      000109 EB               [12] 1397 	mov	a,r3
      00010A 94 03            [12] 1398 	subb	a,#0x03
      00010C EC               [12] 1399 	mov	a,r4
      00010D 64 80            [12] 1400 	xrl	a,#0x80
      00010F 94 80            [12] 1401 	subb	a,#0x80
      000111 50 03            [24] 1402 	jnc	00142$
      000113 02r00r1B         [24] 1403 	ljmp	00109$
      000116                       1404 00142$:
                                   1405 ;	../../../core/net/rpl/rpl-icmp6.c:121: return 0;
      000116 90 00 00         [24] 1406 	mov	dptr,#0x0000
      000119                       1407 00111$:
                                   1408 ;	../../../core/net/rpl/rpl-icmp6.c:122: }
      000119 E5 81            [12] 1409 	mov	a,sp
      00011B 24 F9            [12] 1410 	add	a,#0xf9
      00011D F5 81            [12] 1411 	mov	sp,a
      00011F 02r00r00         [24] 1412 	ljmp	__sdcc_banked_ret
                                   1413 ;------------------------------------------------------------
                                   1414 ;Allocation info for local variables in function 'get32'
                                   1415 ;------------------------------------------------------------
                                   1416 ;pos                       Allocated to stack - sp -11
                                   1417 ;buffer                    Allocated to stack - sp -6
                                   1418 ;sloc0                     Allocated to stack - sp -3
                                   1419 ;------------------------------------------------------------
                                   1420 ;	../../../core/net/rpl/rpl-icmp6.c:125: get32(uint8_t *buffer, int pos)
                                   1421 ;	-----------------------------------------
                                   1422 ;	 function get32
                                   1423 ;	-----------------------------------------
      000122                       1424 _get32:
      000122 C0 82            [24] 1425 	push	dpl
      000124 C0 83            [24] 1426 	push	dph
      000126 C0 F0            [24] 1427 	push	b
      000128 E5 81            [12] 1428 	mov	a,sp
      00012A 24 04            [12] 1429 	add	a,#0x04
                                   1430 ;	../../../core/net/rpl/rpl-icmp6.c:127: return (uint32_t)buffer[pos] << 24 | (uint32_t)buffer[pos + 1] << 16 |
      00012C F5 81            [12] 1431 	mov	sp,a
      00012E 24 FA            [12] 1432 	add	a,#0xfa
      000130 F8               [12] 1433 	mov	r0,a
      000131 E5 81            [12] 1434 	mov	a,sp
      000133 24 F5            [12] 1435 	add	a,#0xf5
      000135 F9               [12] 1436 	mov	r1,a
      000136 E7               [12] 1437 	mov	a,@r1
      000137 26               [12] 1438 	add	a,@r0
      000138 FA               [12] 1439 	mov	r2,a
      000139 09               [12] 1440 	inc	r1
      00013A E7               [12] 1441 	mov	a,@r1
      00013B 08               [12] 1442 	inc	r0
      00013C 36               [12] 1443 	addc	a,@r0
      00013D FB               [12] 1444 	mov	r3,a
      00013E 08               [12] 1445 	inc	r0
      00013F 86 04            [24] 1446 	mov	ar4,@r0
      000141 8A 82            [24] 1447 	mov	dpl,r2
      000143 8B 83            [24] 1448 	mov	dph,r3
      000145 8C F0            [24] 1449 	mov	b,r4
      000147 12r00r00         [24] 1450 	lcall	__gptrget
      00014A FA               [12] 1451 	mov	r2,a
      00014B E4               [12] 1452 	clr	a
      00014C E5 81            [12] 1453 	mov	a,sp
      00014E 24 FD            [12] 1454 	add	a,#0xfd
      000150 F8               [12] 1455 	mov	r0,a
      000151 08               [12] 1456 	inc	r0
      000152 08               [12] 1457 	inc	r0
      000153 08               [12] 1458 	inc	r0
      000154 A6 02            [24] 1459 	mov	@r0,ar2
      000156 18               [12] 1460 	dec	r0
      000157 18               [12] 1461 	dec	r0
      000158 18               [12] 1462 	dec	r0
      000159 76 00            [12] 1463 	mov	@r0,#0x00
      00015B 08               [12] 1464 	inc	r0
      00015C 76 00            [12] 1465 	mov	@r0,#0x00
      00015E 08               [12] 1466 	inc	r0
      00015F 76 00            [12] 1467 	mov	@r0,#0x00
      000161 E5 81            [12] 1468 	mov	a,sp
      000163 24 F5            [12] 1469 	add	a,#0xf5
      000165 F8               [12] 1470 	mov	r0,a
      000166 74 01            [12] 1471 	mov	a,#0x01
      000168 26               [12] 1472 	add	a,@r0
      000169 FD               [12] 1473 	mov	r5,a
      00016A E4               [12] 1474 	clr	a
      00016B 08               [12] 1475 	inc	r0
      00016C 36               [12] 1476 	addc	a,@r0
      00016D FE               [12] 1477 	mov	r6,a
      00016E E5 81            [12] 1478 	mov	a,sp
      000170 24 FA            [12] 1479 	add	a,#0xfa
      000172 F8               [12] 1480 	mov	r0,a
      000173 ED               [12] 1481 	mov	a,r5
      000174 26               [12] 1482 	add	a,@r0
      000175 FD               [12] 1483 	mov	r5,a
      000176 EE               [12] 1484 	mov	a,r6
      000177 08               [12] 1485 	inc	r0
      000178 36               [12] 1486 	addc	a,@r0
      000179 FE               [12] 1487 	mov	r6,a
      00017A 08               [12] 1488 	inc	r0
      00017B 86 07            [24] 1489 	mov	ar7,@r0
      00017D 8D 82            [24] 1490 	mov	dpl,r5
      00017F 8E 83            [24] 1491 	mov	dph,r6
      000181 8F F0            [24] 1492 	mov	b,r7
      000183 12r00r00         [24] 1493 	lcall	__gptrget
      000186 FD               [12] 1494 	mov	r5,a
      000187 7F 00            [12] 1495 	mov	r7,#0x00
      000189 8F 04            [24] 1496 	mov	ar4,r7
      00018B 8D 06            [24] 1497 	mov	ar6,r5
      00018D E4               [12] 1498 	clr	a
      00018E FD               [12] 1499 	mov	r5,a
      00018F FF               [12] 1500 	mov	r7,a
      000190 E5 81            [12] 1501 	mov	a,sp
      000192 24 FD            [12] 1502 	add	a,#0xfd
      000194 F8               [12] 1503 	mov	r0,a
      000195 ED               [12] 1504 	mov	a,r5
      000196 46               [12] 1505 	orl	a,@r0
      000197 F6               [12] 1506 	mov	@r0,a
      000198 EF               [12] 1507 	mov	a,r7
      000199 08               [12] 1508 	inc	r0
      00019A 46               [12] 1509 	orl	a,@r0
      00019B F6               [12] 1510 	mov	@r0,a
      00019C EE               [12] 1511 	mov	a,r6
      00019D 08               [12] 1512 	inc	r0
      00019E 46               [12] 1513 	orl	a,@r0
      00019F F6               [12] 1514 	mov	@r0,a
      0001A0 EC               [12] 1515 	mov	a,r4
      0001A1 08               [12] 1516 	inc	r0
      0001A2 46               [12] 1517 	orl	a,@r0
      0001A3 F6               [12] 1518 	mov	@r0,a
                                   1519 ;	../../../core/net/rpl/rpl-icmp6.c:128: (uint32_t)buffer[pos + 2] << 8 | buffer[pos + 3];
      0001A4 E5 81            [12] 1520 	mov	a,sp
      0001A6 24 F5            [12] 1521 	add	a,#0xf5
      0001A8 F8               [12] 1522 	mov	r0,a
      0001A9 74 02            [12] 1523 	mov	a,#0x02
      0001AB 26               [12] 1524 	add	a,@r0
      0001AC FA               [12] 1525 	mov	r2,a
      0001AD E4               [12] 1526 	clr	a
      0001AE 08               [12] 1527 	inc	r0
      0001AF 36               [12] 1528 	addc	a,@r0
      0001B0 FB               [12] 1529 	mov	r3,a
      0001B1 E5 81            [12] 1530 	mov	a,sp
      0001B3 24 FA            [12] 1531 	add	a,#0xfa
      0001B5 F8               [12] 1532 	mov	r0,a
      0001B6 EA               [12] 1533 	mov	a,r2
      0001B7 26               [12] 1534 	add	a,@r0
      0001B8 FA               [12] 1535 	mov	r2,a
      0001B9 EB               [12] 1536 	mov	a,r3
      0001BA 08               [12] 1537 	inc	r0
      0001BB 36               [12] 1538 	addc	a,@r0
      0001BC FB               [12] 1539 	mov	r3,a
      0001BD 08               [12] 1540 	inc	r0
      0001BE 86 07            [24] 1541 	mov	ar7,@r0
      0001C0 8A 82            [24] 1542 	mov	dpl,r2
      0001C2 8B 83            [24] 1543 	mov	dph,r3
      0001C4 8F F0            [24] 1544 	mov	b,r7
      0001C6 12r00r00         [24] 1545 	lcall	__gptrget
      0001C9 FA               [12] 1546 	mov	r2,a
      0001CA 7F 00            [12] 1547 	mov	r7,#0x00
      0001CC 7E 00            [12] 1548 	mov	r6,#0x00
      0001CE 8E 05            [24] 1549 	mov	ar5,r6
      0001D0 8F 06            [24] 1550 	mov	ar6,r7
      0001D2 8A 07            [24] 1551 	mov	ar7,r2
      0001D4 7A 00            [12] 1552 	mov	r2,#0x00
      0001D6 E5 81            [12] 1553 	mov	a,sp
      0001D8 24 FD            [12] 1554 	add	a,#0xfd
      0001DA F8               [12] 1555 	mov	r0,a
      0001DB EA               [12] 1556 	mov	a,r2
      0001DC 46               [12] 1557 	orl	a,@r0
      0001DD F6               [12] 1558 	mov	@r0,a
      0001DE EF               [12] 1559 	mov	a,r7
      0001DF 08               [12] 1560 	inc	r0
      0001E0 46               [12] 1561 	orl	a,@r0
      0001E1 F6               [12] 1562 	mov	@r0,a
      0001E2 EE               [12] 1563 	mov	a,r6
      0001E3 08               [12] 1564 	inc	r0
      0001E4 46               [12] 1565 	orl	a,@r0
      0001E5 F6               [12] 1566 	mov	@r0,a
      0001E6 ED               [12] 1567 	mov	a,r5
      0001E7 08               [12] 1568 	inc	r0
      0001E8 46               [12] 1569 	orl	a,@r0
      0001E9 F6               [12] 1570 	mov	@r0,a
      0001EA E5 81            [12] 1571 	mov	a,sp
      0001EC 24 F5            [12] 1572 	add	a,#0xf5
      0001EE F8               [12] 1573 	mov	r0,a
      0001EF 74 03            [12] 1574 	mov	a,#0x03
      0001F1 26               [12] 1575 	add	a,@r0
      0001F2 FB               [12] 1576 	mov	r3,a
      0001F3 E4               [12] 1577 	clr	a
      0001F4 08               [12] 1578 	inc	r0
      0001F5 36               [12] 1579 	addc	a,@r0
      0001F6 FC               [12] 1580 	mov	r4,a
      0001F7 E5 81            [12] 1581 	mov	a,sp
      0001F9 24 FA            [12] 1582 	add	a,#0xfa
      0001FB F8               [12] 1583 	mov	r0,a
      0001FC EB               [12] 1584 	mov	a,r3
      0001FD 26               [12] 1585 	add	a,@r0
      0001FE FB               [12] 1586 	mov	r3,a
      0001FF EC               [12] 1587 	mov	a,r4
      000200 08               [12] 1588 	inc	r0
      000201 36               [12] 1589 	addc	a,@r0
      000202 FC               [12] 1590 	mov	r4,a
      000203 08               [12] 1591 	inc	r0
      000204 86 07            [24] 1592 	mov	ar7,@r0
      000206 8B 82            [24] 1593 	mov	dpl,r3
      000208 8C 83            [24] 1594 	mov	dph,r4
      00020A 8F F0            [24] 1595 	mov	b,r7
      00020C 12r00r00         [24] 1596 	lcall	__gptrget
      00020F FB               [12] 1597 	mov	r3,a
      000210 E4               [12] 1598 	clr	a
      000211 FF               [12] 1599 	mov	r7,a
      000212 FE               [12] 1600 	mov	r6,a
      000213 FD               [12] 1601 	mov	r5,a
      000214 E5 81            [12] 1602 	mov	a,sp
      000216 24 FD            [12] 1603 	add	a,#0xfd
      000218 F8               [12] 1604 	mov	r0,a
      000219 E6               [12] 1605 	mov	a,@r0
      00021A 42 03            [12] 1606 	orl	ar3,a
      00021C 08               [12] 1607 	inc	r0
      00021D E6               [12] 1608 	mov	a,@r0
      00021E 42 07            [12] 1609 	orl	ar7,a
      000220 08               [12] 1610 	inc	r0
      000221 E6               [12] 1611 	mov	a,@r0
      000222 42 06            [12] 1612 	orl	ar6,a
      000224 08               [12] 1613 	inc	r0
      000225 E6               [12] 1614 	mov	a,@r0
      000226 42 05            [12] 1615 	orl	ar5,a
      000228 8B 82            [24] 1616 	mov	dpl,r3
      00022A 8F 83            [24] 1617 	mov	dph,r7
      00022C 8E F0            [24] 1618 	mov	b,r6
      00022E ED               [12] 1619 	mov	a,r5
                                   1620 ;	../../../core/net/rpl/rpl-icmp6.c:129: }
      00022F C8               [12] 1621 	xch	a,r0
      000230 E5 81            [12] 1622 	mov	a,sp
      000232 24 F9            [12] 1623 	add	a,#0xf9
      000234 F5 81            [12] 1624 	mov	sp,a
      000236 C8               [12] 1625 	xch	a,r0
      000237 02r00r00         [24] 1626 	ljmp	__sdcc_banked_ret
                                   1627 ;------------------------------------------------------------
                                   1628 ;Allocation info for local variables in function 'set32'
                                   1629 ;------------------------------------------------------------
                                   1630 ;pos                       Allocated to stack - sp -7
                                   1631 ;value                     Allocated to stack - sp -11
                                   1632 ;buffer                    Allocated to stack - sp -2
                                   1633 ;------------------------------------------------------------
                                   1634 ;	../../../core/net/rpl/rpl-icmp6.c:132: set32(uint8_t *buffer, int pos, uint32_t value)
                                   1635 ;	-----------------------------------------
                                   1636 ;	 function set32
                                   1637 ;	-----------------------------------------
      00023A                       1638 _set32:
      00023A C0 82            [24] 1639 	push	dpl
      00023C C0 83            [24] 1640 	push	dph
      00023E C0 F0            [24] 1641 	push	b
                                   1642 ;	../../../core/net/rpl/rpl-icmp6.c:134: buffer[pos++] = value >> 24;
      000240 E5 81            [12] 1643 	mov	a,sp
      000242 24 F9            [12] 1644 	add	a,#0xf9
      000244 F8               [12] 1645 	mov	r0,a
      000245 86 03            [24] 1646 	mov	ar3,@r0
      000247 08               [12] 1647 	inc	r0
      000248 86 04            [24] 1648 	mov	ar4,@r0
      00024A E5 81            [12] 1649 	mov	a,sp
      00024C 24 F9            [12] 1650 	add	a,#0xf9
      00024E F8               [12] 1651 	mov	r0,a
      00024F 74 01            [12] 1652 	mov	a,#0x01
      000251 2B               [12] 1653 	add	a,r3
      000252 F6               [12] 1654 	mov	@r0,a
      000253 E4               [12] 1655 	clr	a
      000254 3C               [12] 1656 	addc	a,r4
      000255 08               [12] 1657 	inc	r0
      000256 F6               [12] 1658 	mov	@r0,a
      000257 A8 81            [24] 1659 	mov	r0,sp
      000259 18               [12] 1660 	dec	r0
      00025A 18               [12] 1661 	dec	r0
      00025B EB               [12] 1662 	mov	a,r3
      00025C 26               [12] 1663 	add	a,@r0
      00025D FB               [12] 1664 	mov	r3,a
      00025E EC               [12] 1665 	mov	a,r4
      00025F 08               [12] 1666 	inc	r0
      000260 36               [12] 1667 	addc	a,@r0
      000261 FC               [12] 1668 	mov	r4,a
      000262 08               [12] 1669 	inc	r0
      000263 86 02            [24] 1670 	mov	ar2,@r0
      000265 E5 81            [12] 1671 	mov	a,sp
      000267 24 F5            [12] 1672 	add	a,#0xf5
      000269 F8               [12] 1673 	mov	r0,a
      00026A 08               [12] 1674 	inc	r0
      00026B 08               [12] 1675 	inc	r0
      00026C 08               [12] 1676 	inc	r0
      00026D 86 07            [24] 1677 	mov	ar7,@r0
      00026F 8B 82            [24] 1678 	mov	dpl,r3
      000271 8C 83            [24] 1679 	mov	dph,r4
      000273 8A F0            [24] 1680 	mov	b,r2
      000275 EF               [12] 1681 	mov	a,r7
      000276 12r00r00         [24] 1682 	lcall	__gptrput
                                   1683 ;	../../../core/net/rpl/rpl-icmp6.c:135: buffer[pos++] = (value >> 16) & 0xff;
      000279 E5 81            [12] 1684 	mov	a,sp
      00027B 24 F9            [12] 1685 	add	a,#0xf9
      00027D F8               [12] 1686 	mov	r0,a
      00027E 86 06            [24] 1687 	mov	ar6,@r0
      000280 08               [12] 1688 	inc	r0
      000281 86 07            [24] 1689 	mov	ar7,@r0
      000283 E5 81            [12] 1690 	mov	a,sp
      000285 24 F9            [12] 1691 	add	a,#0xf9
      000287 F8               [12] 1692 	mov	r0,a
      000288 74 01            [12] 1693 	mov	a,#0x01
      00028A 2E               [12] 1694 	add	a,r6
      00028B F6               [12] 1695 	mov	@r0,a
      00028C E4               [12] 1696 	clr	a
      00028D 3F               [12] 1697 	addc	a,r7
      00028E 08               [12] 1698 	inc	r0
      00028F F6               [12] 1699 	mov	@r0,a
      000290 A8 81            [24] 1700 	mov	r0,sp
      000292 18               [12] 1701 	dec	r0
      000293 18               [12] 1702 	dec	r0
      000294 EE               [12] 1703 	mov	a,r6
      000295 26               [12] 1704 	add	a,@r0
      000296 FE               [12] 1705 	mov	r6,a
      000297 EF               [12] 1706 	mov	a,r7
      000298 08               [12] 1707 	inc	r0
      000299 36               [12] 1708 	addc	a,@r0
      00029A FF               [12] 1709 	mov	r7,a
      00029B 08               [12] 1710 	inc	r0
      00029C 86 05            [24] 1711 	mov	ar5,@r0
      00029E E5 81            [12] 1712 	mov	a,sp
      0002A0 24 F5            [12] 1713 	add	a,#0xf5
      0002A2 F8               [12] 1714 	mov	r0,a
      0002A3 08               [12] 1715 	inc	r0
      0002A4 08               [12] 1716 	inc	r0
      0002A5 86 04            [24] 1717 	mov	ar4,@r0
      0002A7 8E 82            [24] 1718 	mov	dpl,r6
      0002A9 8F 83            [24] 1719 	mov	dph,r7
      0002AB 8D F0            [24] 1720 	mov	b,r5
      0002AD EC               [12] 1721 	mov	a,r4
      0002AE 12r00r00         [24] 1722 	lcall	__gptrput
                                   1723 ;	../../../core/net/rpl/rpl-icmp6.c:136: buffer[pos++] = (value >> 8) & 0xff;
      0002B1 E5 81            [12] 1724 	mov	a,sp
      0002B3 24 F9            [12] 1725 	add	a,#0xf9
      0002B5 F8               [12] 1726 	mov	r0,a
      0002B6 86 06            [24] 1727 	mov	ar6,@r0
      0002B8 08               [12] 1728 	inc	r0
      0002B9 86 07            [24] 1729 	mov	ar7,@r0
      0002BB E5 81            [12] 1730 	mov	a,sp
      0002BD 24 F9            [12] 1731 	add	a,#0xf9
      0002BF F8               [12] 1732 	mov	r0,a
      0002C0 74 01            [12] 1733 	mov	a,#0x01
      0002C2 2E               [12] 1734 	add	a,r6
      0002C3 F6               [12] 1735 	mov	@r0,a
      0002C4 E4               [12] 1736 	clr	a
      0002C5 3F               [12] 1737 	addc	a,r7
      0002C6 08               [12] 1738 	inc	r0
      0002C7 F6               [12] 1739 	mov	@r0,a
      0002C8 A8 81            [24] 1740 	mov	r0,sp
      0002CA 18               [12] 1741 	dec	r0
      0002CB 18               [12] 1742 	dec	r0
      0002CC EE               [12] 1743 	mov	a,r6
      0002CD 26               [12] 1744 	add	a,@r0
      0002CE FE               [12] 1745 	mov	r6,a
      0002CF EF               [12] 1746 	mov	a,r7
      0002D0 08               [12] 1747 	inc	r0
      0002D1 36               [12] 1748 	addc	a,@r0
      0002D2 FF               [12] 1749 	mov	r7,a
      0002D3 08               [12] 1750 	inc	r0
      0002D4 86 05            [24] 1751 	mov	ar5,@r0
      0002D6 E5 81            [12] 1752 	mov	a,sp
      0002D8 24 F5            [12] 1753 	add	a,#0xf5
      0002DA F8               [12] 1754 	mov	r0,a
      0002DB 08               [12] 1755 	inc	r0
      0002DC 86 04            [24] 1756 	mov	ar4,@r0
      0002DE 8E 82            [24] 1757 	mov	dpl,r6
      0002E0 8F 83            [24] 1758 	mov	dph,r7
      0002E2 8D F0            [24] 1759 	mov	b,r5
      0002E4 EC               [12] 1760 	mov	a,r4
      0002E5 12r00r00         [24] 1761 	lcall	__gptrput
                                   1762 ;	../../../core/net/rpl/rpl-icmp6.c:137: buffer[pos++] = value & 0xff;
      0002E8 E5 81            [12] 1763 	mov	a,sp
      0002EA 24 F9            [12] 1764 	add	a,#0xf9
      0002EC F8               [12] 1765 	mov	r0,a
      0002ED 86 06            [24] 1766 	mov	ar6,@r0
      0002EF 08               [12] 1767 	inc	r0
      0002F0 86 07            [24] 1768 	mov	ar7,@r0
      0002F2 A8 81            [24] 1769 	mov	r0,sp
      0002F4 18               [12] 1770 	dec	r0
      0002F5 18               [12] 1771 	dec	r0
      0002F6 EE               [12] 1772 	mov	a,r6
      0002F7 26               [12] 1773 	add	a,@r0
      0002F8 FE               [12] 1774 	mov	r6,a
      0002F9 EF               [12] 1775 	mov	a,r7
      0002FA 08               [12] 1776 	inc	r0
      0002FB 36               [12] 1777 	addc	a,@r0
      0002FC FF               [12] 1778 	mov	r7,a
      0002FD 08               [12] 1779 	inc	r0
      0002FE 86 05            [24] 1780 	mov	ar5,@r0
      000300 E5 81            [12] 1781 	mov	a,sp
      000302 24 F5            [12] 1782 	add	a,#0xf5
      000304 F8               [12] 1783 	mov	r0,a
      000305 86 04            [24] 1784 	mov	ar4,@r0
      000307 8E 82            [24] 1785 	mov	dpl,r6
      000309 8F 83            [24] 1786 	mov	dph,r7
      00030B 8D F0            [24] 1787 	mov	b,r5
      00030D EC               [12] 1788 	mov	a,r4
      00030E 12r00r00         [24] 1789 	lcall	__gptrput
                                   1790 ;	../../../core/net/rpl/rpl-icmp6.c:138: }
      000311 15 81            [12] 1791 	dec	sp
      000313 15 81            [12] 1792 	dec	sp
      000315 15 81            [12] 1793 	dec	sp
      000317 02r00r00         [24] 1794 	ljmp	__sdcc_banked_ret
                                   1795 ;------------------------------------------------------------
                                   1796 ;Allocation info for local variables in function 'get16'
                                   1797 ;------------------------------------------------------------
                                   1798 ;pos                       Allocated to stack - sp -7
                                   1799 ;buffer                    Allocated to stack - sp -2
                                   1800 ;------------------------------------------------------------
                                   1801 ;	../../../core/net/rpl/rpl-icmp6.c:141: get16(uint8_t *buffer, int pos)
                                   1802 ;	-----------------------------------------
                                   1803 ;	 function get16
                                   1804 ;	-----------------------------------------
      00031A                       1805 _get16:
      00031A C0 82            [24] 1806 	push	dpl
      00031C C0 83            [24] 1807 	push	dph
      00031E C0 F0            [24] 1808 	push	b
                                   1809 ;	../../../core/net/rpl/rpl-icmp6.c:143: return (uint16_t)buffer[pos] << 8 | buffer[pos + 1];
      000320 A8 81            [24] 1810 	mov	r0,sp
      000322 18               [12] 1811 	dec	r0
      000323 18               [12] 1812 	dec	r0
      000324 E5 81            [12] 1813 	mov	a,sp
      000326 24 F9            [12] 1814 	add	a,#0xf9
      000328 F9               [12] 1815 	mov	r1,a
      000329 E7               [12] 1816 	mov	a,@r1
      00032A 26               [12] 1817 	add	a,@r0
      00032B FA               [12] 1818 	mov	r2,a
      00032C 09               [12] 1819 	inc	r1
      00032D E7               [12] 1820 	mov	a,@r1
      00032E 08               [12] 1821 	inc	r0
      00032F 36               [12] 1822 	addc	a,@r0
      000330 FB               [12] 1823 	mov	r3,a
      000331 08               [12] 1824 	inc	r0
      000332 86 04            [24] 1825 	mov	ar4,@r0
      000334 8A 82            [24] 1826 	mov	dpl,r2
      000336 8B 83            [24] 1827 	mov	dph,r3
      000338 8C F0            [24] 1828 	mov	b,r4
      00033A 12r00r00         [24] 1829 	lcall	__gptrget
      00033D FC               [12] 1830 	mov	r4,a
      00033E 7A 00            [12] 1831 	mov	r2,#0x00
      000340 E5 81            [12] 1832 	mov	a,sp
      000342 24 F9            [12] 1833 	add	a,#0xf9
      000344 F8               [12] 1834 	mov	r0,a
      000345 74 01            [12] 1835 	mov	a,#0x01
      000347 26               [12] 1836 	add	a,@r0
      000348 FB               [12] 1837 	mov	r3,a
      000349 E4               [12] 1838 	clr	a
      00034A 08               [12] 1839 	inc	r0
      00034B 36               [12] 1840 	addc	a,@r0
      00034C FF               [12] 1841 	mov	r7,a
      00034D A8 81            [24] 1842 	mov	r0,sp
      00034F 18               [12] 1843 	dec	r0
      000350 18               [12] 1844 	dec	r0
      000351 EB               [12] 1845 	mov	a,r3
      000352 26               [12] 1846 	add	a,@r0
      000353 FB               [12] 1847 	mov	r3,a
      000354 EF               [12] 1848 	mov	a,r7
      000355 08               [12] 1849 	inc	r0
      000356 36               [12] 1850 	addc	a,@r0
      000357 FF               [12] 1851 	mov	r7,a
      000358 08               [12] 1852 	inc	r0
      000359 86 06            [24] 1853 	mov	ar6,@r0
      00035B 8B 82            [24] 1854 	mov	dpl,r3
      00035D 8F 83            [24] 1855 	mov	dph,r7
      00035F 8E F0            [24] 1856 	mov	b,r6
      000361 12r00r00         [24] 1857 	lcall	__gptrget
      000364 FB               [12] 1858 	mov	r3,a
      000365 7F 00            [12] 1859 	mov	r7,#0x00
      000367 42 02            [12] 1860 	orl	ar2,a
      000369 EF               [12] 1861 	mov	a,r7
      00036A 42 04            [12] 1862 	orl	ar4,a
      00036C 8A 82            [24] 1863 	mov	dpl,r2
      00036E 8C 83            [24] 1864 	mov	dph,r4
                                   1865 ;	../../../core/net/rpl/rpl-icmp6.c:144: }
      000370 15 81            [12] 1866 	dec	sp
      000372 15 81            [12] 1867 	dec	sp
      000374 15 81            [12] 1868 	dec	sp
      000376 02r00r00         [24] 1869 	ljmp	__sdcc_banked_ret
                                   1870 ;------------------------------------------------------------
                                   1871 ;Allocation info for local variables in function 'set16'
                                   1872 ;------------------------------------------------------------
                                   1873 ;pos                       Allocated to stack - sp -7
                                   1874 ;value                     Allocated to stack - sp -9
                                   1875 ;buffer                    Allocated to stack - sp -2
                                   1876 ;------------------------------------------------------------
                                   1877 ;	../../../core/net/rpl/rpl-icmp6.c:147: set16(uint8_t *buffer, int pos, uint16_t value)
                                   1878 ;	-----------------------------------------
                                   1879 ;	 function set16
                                   1880 ;	-----------------------------------------
      000379                       1881 _set16:
      000379 C0 82            [24] 1882 	push	dpl
      00037B C0 83            [24] 1883 	push	dph
      00037D C0 F0            [24] 1884 	push	b
                                   1885 ;	../../../core/net/rpl/rpl-icmp6.c:149: buffer[pos++] = value >> 8;
      00037F E5 81            [12] 1886 	mov	a,sp
      000381 24 F9            [12] 1887 	add	a,#0xf9
      000383 F8               [12] 1888 	mov	r0,a
      000384 86 03            [24] 1889 	mov	ar3,@r0
      000386 08               [12] 1890 	inc	r0
      000387 86 04            [24] 1891 	mov	ar4,@r0
      000389 E5 81            [12] 1892 	mov	a,sp
      00038B 24 F9            [12] 1893 	add	a,#0xf9
      00038D F8               [12] 1894 	mov	r0,a
      00038E 74 01            [12] 1895 	mov	a,#0x01
      000390 2B               [12] 1896 	add	a,r3
      000391 F6               [12] 1897 	mov	@r0,a
      000392 E4               [12] 1898 	clr	a
      000393 3C               [12] 1899 	addc	a,r4
      000394 08               [12] 1900 	inc	r0
      000395 F6               [12] 1901 	mov	@r0,a
      000396 A8 81            [24] 1902 	mov	r0,sp
      000398 18               [12] 1903 	dec	r0
      000399 18               [12] 1904 	dec	r0
      00039A EB               [12] 1905 	mov	a,r3
      00039B 26               [12] 1906 	add	a,@r0
      00039C FB               [12] 1907 	mov	r3,a
      00039D EC               [12] 1908 	mov	a,r4
      00039E 08               [12] 1909 	inc	r0
      00039F 36               [12] 1910 	addc	a,@r0
      0003A0 FC               [12] 1911 	mov	r4,a
      0003A1 08               [12] 1912 	inc	r0
      0003A2 86 02            [24] 1913 	mov	ar2,@r0
      0003A4 E5 81            [12] 1914 	mov	a,sp
      0003A6 24 F7            [12] 1915 	add	a,#0xf7
      0003A8 F8               [12] 1916 	mov	r0,a
      0003A9 08               [12] 1917 	inc	r0
      0003AA 86 07            [24] 1918 	mov	ar7,@r0
      0003AC 8B 82            [24] 1919 	mov	dpl,r3
      0003AE 8C 83            [24] 1920 	mov	dph,r4
      0003B0 8A F0            [24] 1921 	mov	b,r2
      0003B2 EF               [12] 1922 	mov	a,r7
      0003B3 12r00r00         [24] 1923 	lcall	__gptrput
                                   1924 ;	../../../core/net/rpl/rpl-icmp6.c:150: buffer[pos++] = value & 0xff;
      0003B6 E5 81            [12] 1925 	mov	a,sp
      0003B8 24 F9            [12] 1926 	add	a,#0xf9
      0003BA F8               [12] 1927 	mov	r0,a
      0003BB 86 06            [24] 1928 	mov	ar6,@r0
      0003BD 08               [12] 1929 	inc	r0
      0003BE 86 07            [24] 1930 	mov	ar7,@r0
      0003C0 A8 81            [24] 1931 	mov	r0,sp
      0003C2 18               [12] 1932 	dec	r0
      0003C3 18               [12] 1933 	dec	r0
      0003C4 EE               [12] 1934 	mov	a,r6
      0003C5 26               [12] 1935 	add	a,@r0
      0003C6 FE               [12] 1936 	mov	r6,a
      0003C7 EF               [12] 1937 	mov	a,r7
      0003C8 08               [12] 1938 	inc	r0
      0003C9 36               [12] 1939 	addc	a,@r0
      0003CA FF               [12] 1940 	mov	r7,a
      0003CB 08               [12] 1941 	inc	r0
      0003CC 86 05            [24] 1942 	mov	ar5,@r0
      0003CE E5 81            [12] 1943 	mov	a,sp
      0003D0 24 F7            [12] 1944 	add	a,#0xf7
      0003D2 F8               [12] 1945 	mov	r0,a
      0003D3 86 04            [24] 1946 	mov	ar4,@r0
      0003D5 8E 82            [24] 1947 	mov	dpl,r6
      0003D7 8F 83            [24] 1948 	mov	dph,r7
      0003D9 8D F0            [24] 1949 	mov	b,r5
      0003DB EC               [12] 1950 	mov	a,r4
      0003DC 12r00r00         [24] 1951 	lcall	__gptrput
                                   1952 ;	../../../core/net/rpl/rpl-icmp6.c:151: }
      0003DF 15 81            [12] 1953 	dec	sp
      0003E1 15 81            [12] 1954 	dec	sp
      0003E3 15 81            [12] 1955 	dec	sp
      0003E5 02r00r00         [24] 1956 	ljmp	__sdcc_banked_ret
                                   1957 ;------------------------------------------------------------
                                   1958 ;Allocation info for local variables in function 'dis_input'
                                   1959 ;------------------------------------------------------------
                                   1960 ;instance                  Allocated to registers 
                                   1961 ;end                       Allocated to registers 
                                   1962 ;------------------------------------------------------------
                                   1963 ;	../../../core/net/rpl/rpl-icmp6.c:154: dis_input(void)
                                   1964 ;	-----------------------------------------
                                   1965 ;	 function dis_input
                                   1966 ;	-----------------------------------------
      0003E8                       1967 _dis_input:
                                   1968 ;	../../../core/net/rpl/rpl-icmp6.c:164: for(instance = &instance_table[0], end = instance + RPL_MAX_INSTANCES; instance < end; ++instance) {
      0003E8 7Dr00            [12] 1969 	mov	r5,#_instance_table
      0003EA 7Es00            [12] 1970 	mov	r6,#(_instance_table >> 8)
      0003EC 7F 00            [12] 1971 	mov	r7,#0x00
      0003EE                       1972 00108$:
      0003EE 74rC5            [12] 1973 	mov	a,#(_instance_table + 0x00c5)
      0003F0 C0 E0            [24] 1974 	push	acc
      0003F2 74s00            [12] 1975 	mov	a,#((_instance_table + 0x00c5) >> 8)
      0003F4 C0 E0            [24] 1976 	push	acc
      0003F6 E4               [12] 1977 	clr	a
      0003F7 C0 E0            [24] 1978 	push	acc
      0003F9 8D 82            [24] 1979 	mov	dpl,r5
      0003FB 8E 83            [24] 1980 	mov	dph,r6
      0003FD 8F F0            [24] 1981 	mov	b,r7
      0003FF 12r00r00         [24] 1982 	lcall	___gptr_cmp
      000402 15 81            [12] 1983 	dec	sp
      000404 15 81            [12] 1984 	dec	sp
      000406 15 81            [12] 1985 	dec	sp
      000408 40 03            [24] 1986 	jc	00129$
      00040A 02r00r00         [24] 1987 	ljmp	__sdcc_banked_ret
      00040D                       1988 00129$:
                                   1989 ;	../../../core/net/rpl/rpl-icmp6.c:165: if(instance->used == 1) {
      00040D 74 87            [12] 1990 	mov	a,#0x87
      00040F 2D               [12] 1991 	add	a,r5
      000410 FA               [12] 1992 	mov	r2,a
      000411 E4               [12] 1993 	clr	a
      000412 3E               [12] 1994 	addc	a,r6
      000413 FB               [12] 1995 	mov	r3,a
      000414 8F 04            [24] 1996 	mov	ar4,r7
      000416 8A 82            [24] 1997 	mov	dpl,r2
      000418 8B 83            [24] 1998 	mov	dph,r3
      00041A 8C F0            [24] 1999 	mov	b,r4
      00041C 12r00r00         [24] 2000 	lcall	__gptrget
      00041F FA               [12] 2001 	mov	r2,a
      000420 BA 01 51         [24] 2002 	cjne	r2,#0x01,00109$
                                   2003 ;	../../../core/net/rpl/rpl-icmp6.c:169: if(uip_is_addr_mcast(&UIP_IP_BUF->destipaddr)) {
      000423 90r00r18         [24] 2004 	mov	dptr,#(_uip_aligned_buf + 0x0018)
      000426 E0               [24] 2005 	movx	a,@dptr
      000427 FC               [12] 2006 	mov	r4,a
      000428 BC FF 1D         [24] 2007 	cjne	r4,#0xff,00102$
                                   2008 ;	../../../core/net/rpl/rpl-icmp6.c:171: rpl_reset_dio_timer(instance);
      00042B 8D 82            [24] 2009 	mov	dpl,r5
      00042D 8E 83            [24] 2010 	mov	dph,r6
      00042F 8F F0            [24] 2011 	mov	b,r7
      000431 C0 07            [24] 2012 	push	ar7
      000433 C0 06            [24] 2013 	push	ar6
      000435 C0 05            [24] 2014 	push	ar5
      000437 78r00            [12] 2015 	mov	r0,#_rpl_reset_dio_timer
      000439 79s00            [12] 2016 	mov	r1,#(_rpl_reset_dio_timer >> 8)
      00043B 7As00            [12] 2017 	mov	r2,#(_rpl_reset_dio_timer >> 16)
      00043D 12r00r00         [24] 2018 	lcall	__sdcc_banked_call
      000440 D0 05            [24] 2019 	pop	ar5
      000442 D0 06            [24] 2020 	pop	ar6
      000444 D0 07            [24] 2021 	pop	ar7
      000446 80 2C            [24] 2022 	sjmp	00109$
      000448                       2023 00102$:
                                   2024 ;	../../../core/net/rpl/rpl-icmp6.c:175: dio_output(instance, &UIP_IP_BUF->srcipaddr);
      000448 C0 07            [24] 2025 	push	ar7
      00044A C0 06            [24] 2026 	push	ar6
      00044C C0 05            [24] 2027 	push	ar5
      00044E 74r08            [12] 2028 	mov	a,#(_uip_aligned_buf + 0x0008)
      000450 C0 E0            [24] 2029 	push	acc
      000452 74s00            [12] 2030 	mov	a,#((_uip_aligned_buf + 0x0008) >> 8)
      000454 C0 E0            [24] 2031 	push	acc
      000456 E4               [12] 2032 	clr	a
      000457 C0 E0            [24] 2033 	push	acc
      000459 8D 82            [24] 2034 	mov	dpl,r5
      00045B 8E 83            [24] 2035 	mov	dph,r6
      00045D 8F F0            [24] 2036 	mov	b,r7
      00045F 78rE8            [12] 2037 	mov	r0,#_dio_output
      000461 79s0D            [12] 2038 	mov	r1,#(_dio_output >> 8)
      000463 7As00            [12] 2039 	mov	r2,#(_dio_output >> 16)
      000465 12r00r00         [24] 2040 	lcall	__sdcc_banked_call
      000468 15 81            [12] 2041 	dec	sp
      00046A 15 81            [12] 2042 	dec	sp
      00046C 15 81            [12] 2043 	dec	sp
      00046E D0 05            [24] 2044 	pop	ar5
      000470 D0 06            [24] 2045 	pop	ar6
      000472 D0 07            [24] 2046 	pop	ar7
      000474                       2047 00109$:
                                   2048 ;	../../../core/net/rpl/rpl-icmp6.c:164: for(instance = &instance_table[0], end = instance + RPL_MAX_INSTANCES; instance < end; ++instance) {
      000474 74 C5            [12] 2049 	mov	a,#0xc5
      000476 2D               [12] 2050 	add	a,r5
      000477 FD               [12] 2051 	mov	r5,a
      000478 E4               [12] 2052 	clr	a
      000479 3E               [12] 2053 	addc	a,r6
      00047A FE               [12] 2054 	mov	r6,a
                                   2055 ;	../../../core/net/rpl/rpl-icmp6.c:179: }
      00047B 02r03rEE         [24] 2056 	ljmp	00108$
                                   2057 ;------------------------------------------------------------
                                   2058 ;Allocation info for local variables in function 'dis_output'
                                   2059 ;------------------------------------------------------------
                                   2060 ;addr                      Allocated to stack - sp -2
                                   2061 ;buffer                    Allocated to registers r5 r6 r7 
                                   2062 ;tmpaddr                   Allocated with name '_dis_output_tmpaddr_65536_309'
                                   2063 ;------------------------------------------------------------
                                   2064 ;	../../../core/net/rpl/rpl-icmp6.c:182: dis_output(uip_ipaddr_t *addr)
                                   2065 ;	-----------------------------------------
                                   2066 ;	 function dis_output
                                   2067 ;	-----------------------------------------
      00047E                       2068 _dis_output:
      00047E C0 82            [24] 2069 	push	dpl
      000480 C0 83            [24] 2070 	push	dph
      000482 C0 F0            [24] 2071 	push	b
                                   2072 ;	../../../core/net/rpl/rpl-icmp6.c:194: buffer = UIP_ICMP_PAYLOAD;
      000484 90r00r00         [24] 2073 	mov	dptr,#_uip_ext_len
      000487 E0               [24] 2074 	movx	a,@dptr
      000488 FC               [12] 2075 	mov	r4,a
      000489 7B 00            [12] 2076 	mov	r3,#0x00
      00048B 74 2C            [12] 2077 	mov	a,#0x2c
      00048D 2C               [12] 2078 	add	a,r4
      00048E FC               [12] 2079 	mov	r4,a
      00048F E4               [12] 2080 	clr	a
      000490 3B               [12] 2081 	addc	a,r3
      000491 FB               [12] 2082 	mov	r3,a
      000492 EC               [12] 2083 	mov	a,r4
      000493 24r00            [12] 2084 	add	a,#_uip_aligned_buf
      000495 FC               [12] 2085 	mov	r4,a
      000496 EB               [12] 2086 	mov	a,r3
      000497 34s00            [12] 2087 	addc	a,#(_uip_aligned_buf >> 8)
      000499 FB               [12] 2088 	mov	r3,a
      00049A 8C 05            [24] 2089 	mov	ar5,r4
      00049C 8B 06            [24] 2090 	mov	ar6,r3
      00049E 7F 00            [12] 2091 	mov	r7,#0x00
                                   2092 ;	../../../core/net/rpl/rpl-icmp6.c:195: buffer[0] = buffer[1] = 0;
      0004A0 8D 02            [24] 2093 	mov	ar2,r5
      0004A2 8E 03            [24] 2094 	mov	ar3,r6
      0004A4 8F 04            [24] 2095 	mov	ar4,r7
      0004A6 0D               [12] 2096 	inc	r5
      0004A7 BD 00 01         [24] 2097 	cjne	r5,#0x00,00112$
      0004AA 0E               [12] 2098 	inc	r6
      0004AB                       2099 00112$:
      0004AB 8D 82            [24] 2100 	mov	dpl,r5
      0004AD 8E 83            [24] 2101 	mov	dph,r6
      0004AF 8F F0            [24] 2102 	mov	b,r7
      0004B1 E4               [12] 2103 	clr	a
      0004B2 12r00r00         [24] 2104 	lcall	__gptrput
      0004B5 8A 82            [24] 2105 	mov	dpl,r2
      0004B7 8B 83            [24] 2106 	mov	dph,r3
      0004B9 8C F0            [24] 2107 	mov	b,r4
      0004BB 12r00r00         [24] 2108 	lcall	__gptrput
                                   2109 ;	../../../core/net/rpl/rpl-icmp6.c:197: if(addr == NULL) {
      0004BE A8 81            [24] 2110 	mov	r0,sp
      0004C0 18               [12] 2111 	dec	r0
      0004C1 18               [12] 2112 	dec	r0
      0004C2 E6               [12] 2113 	mov	a,@r0
      0004C3 08               [12] 2114 	inc	r0
      0004C4 46               [12] 2115 	orl	a,@r0
      0004C5 70 43            [24] 2116 	jnz	00105$
                                   2117 ;	../../../core/net/rpl/rpl-icmp6.c:198: uip_create_linklocal_rplnodes_mcast(&tmpaddr);
      0004C7 90r00r97         [24] 2118 	mov	dptr,#_dis_output_tmpaddr_65536_309
      0004CA 74 FF            [12] 2119 	mov	a,#0xff
      0004CC F0               [24] 2120 	movx	@dptr,a
      0004CD 74 02            [12] 2121 	mov	a,#0x02
      0004CF A3               [24] 2122 	inc	dptr
      0004D0 F0               [24] 2123 	movx	@dptr,a
      0004D1 90r00r99         [24] 2124 	mov	dptr,#(_dis_output_tmpaddr_65536_309 + 0x0002)
      0004D4 E4               [12] 2125 	clr	a
      0004D5 F0               [24] 2126 	movx	@dptr,a
      0004D6 A3               [24] 2127 	inc	dptr
      0004D7 F0               [24] 2128 	movx	@dptr,a
      0004D8 90r00r9B         [24] 2129 	mov	dptr,#(_dis_output_tmpaddr_65536_309 + 0x0004)
      0004DB F0               [24] 2130 	movx	@dptr,a
      0004DC A3               [24] 2131 	inc	dptr
      0004DD F0               [24] 2132 	movx	@dptr,a
      0004DE 90r00r9D         [24] 2133 	mov	dptr,#(_dis_output_tmpaddr_65536_309 + 0x0006)
      0004E1 F0               [24] 2134 	movx	@dptr,a
      0004E2 A3               [24] 2135 	inc	dptr
      0004E3 F0               [24] 2136 	movx	@dptr,a
      0004E4 90r00r9F         [24] 2137 	mov	dptr,#(_dis_output_tmpaddr_65536_309 + 0x0008)
      0004E7 F0               [24] 2138 	movx	@dptr,a
      0004E8 A3               [24] 2139 	inc	dptr
      0004E9 F0               [24] 2140 	movx	@dptr,a
      0004EA 90r00rA1         [24] 2141 	mov	dptr,#(_dis_output_tmpaddr_65536_309 + 0x000a)
      0004ED F0               [24] 2142 	movx	@dptr,a
      0004EE A3               [24] 2143 	inc	dptr
      0004EF F0               [24] 2144 	movx	@dptr,a
      0004F0 90r00rA3         [24] 2145 	mov	dptr,#(_dis_output_tmpaddr_65536_309 + 0x000c)
      0004F3 F0               [24] 2146 	movx	@dptr,a
      0004F4 A3               [24] 2147 	inc	dptr
      0004F5 F0               [24] 2148 	movx	@dptr,a
      0004F6 90r00rA5         [24] 2149 	mov	dptr,#(_dis_output_tmpaddr_65536_309 + 0x000e)
      0004F9 F0               [24] 2150 	movx	@dptr,a
      0004FA 74 1A            [12] 2151 	mov	a,#0x1a
      0004FC A3               [24] 2152 	inc	dptr
      0004FD F0               [24] 2153 	movx	@dptr,a
                                   2154 ;	../../../core/net/rpl/rpl-icmp6.c:199: addr = &tmpaddr;
      0004FE A8 81            [24] 2155 	mov	r0,sp
      000500 18               [12] 2156 	dec	r0
      000501 18               [12] 2157 	dec	r0
      000502 76r97            [12] 2158 	mov	@r0,#_dis_output_tmpaddr_65536_309
      000504 08               [12] 2159 	inc	r0
      000505 76s00            [12] 2160 	mov	@r0,#(_dis_output_tmpaddr_65536_309 >> 8)
      000507 08               [12] 2161 	inc	r0
      000508 76 00            [12] 2162 	mov	@r0,#0x00
      00050A                       2163 00105$:
                                   2164 ;	../../../core/net/rpl/rpl-icmp6.c:206: uip_icmp6_send(addr, ICMP6_RPL, RPL_CODE_DIS, 2);
      00050A 74 02            [12] 2165 	mov	a,#0x02
      00050C C0 E0            [24] 2166 	push	acc
      00050E E4               [12] 2167 	clr	a
      00050F C0 E0            [24] 2168 	push	acc
      000511 74 9B            [12] 2169 	mov	a,#0x9b
      000513 C0 E0            [24] 2170 	push	acc
      000515 E5 81            [12] 2171 	mov	a,sp
      000517 24 FB            [12] 2172 	add	a,#0xfb
      000519 F8               [12] 2173 	mov	r0,a
      00051A 86 82            [24] 2174 	mov	dpl,@r0
      00051C 08               [12] 2175 	inc	r0
      00051D 86 83            [24] 2176 	mov	dph,@r0
      00051F 08               [12] 2177 	inc	r0
      000520 86 F0            [24] 2178 	mov	b,@r0
      000522 78r00            [12] 2179 	mov	r0,#_uip_icmp6_send
      000524 79s00            [12] 2180 	mov	r1,#(_uip_icmp6_send >> 8)
      000526 7As00            [12] 2181 	mov	r2,#(_uip_icmp6_send >> 16)
      000528 12r00r00         [24] 2182 	lcall	__sdcc_banked_call
      00052B 15 81            [12] 2183 	dec	sp
      00052D 15 81            [12] 2184 	dec	sp
      00052F 15 81            [12] 2185 	dec	sp
                                   2186 ;	../../../core/net/rpl/rpl-icmp6.c:207: }
      000531 15 81            [12] 2187 	dec	sp
      000533 15 81            [12] 2188 	dec	sp
      000535 15 81            [12] 2189 	dec	sp
      000537 02r00r00         [24] 2190 	ljmp	__sdcc_banked_ret
                                   2191 ;------------------------------------------------------------
                                   2192 ;Allocation info for local variables in function 'dio_input'
                                   2193 ;------------------------------------------------------------
                                   2194 ;buffer                    Allocated to stack - sp -7
                                   2195 ;buffer_length             Allocated to stack - sp -4
                                   2196 ;subopt_type               Allocated to registers r3 
                                   2197 ;i                         Allocated to stack - sp -3
                                   2198 ;len                       Allocated to stack - sp -1
                                   2199 ;nbr                       Allocated to registers r2 r3 r4 
                                   2200 ;sloc0                     Allocated to stack - sp +5
                                   2201 ;------------------------------------------------------------
                                   2202 ;	../../../core/net/rpl/rpl-icmp6.c:210: dio_input(void)
                                   2203 ;	-----------------------------------------
                                   2204 ;	 function dio_input
                                   2205 ;	-----------------------------------------
      00053A                       2206 _dio_input:
      00053A E5 81            [12] 2207 	mov	a,sp
      00053C 24 08            [12] 2208 	add	a,#0x08
      00053E F5 81            [12] 2209 	mov	sp,a
                                   2210 ;	../../../core/net/rpl/rpl-icmp6.c:219: memset(&dio, 0, sizeof(dio));
      000540 74 57            [12] 2211 	mov	a,#0x57
      000542 C0 E0            [24] 2212 	push	acc
      000544 E4               [12] 2213 	clr	a
      000545 C0 E0            [24] 2214 	push	acc
      000547 C0 E0            [24] 2215 	push	acc
      000549 90r00r20         [24] 2216 	mov	dptr,#_dio
      00054C 75 F0 00         [24] 2217 	mov	b,#0x00
      00054F 78r00            [12] 2218 	mov	r0,#_memset
      000551 79s00            [12] 2219 	mov	r1,#(_memset >> 8)
      000553 7As00            [12] 2220 	mov	r2,#(_memset >> 16)
      000555 12r00r00         [24] 2221 	lcall	__sdcc_banked_call
      000558 15 81            [12] 2222 	dec	sp
      00055A 15 81            [12] 2223 	dec	sp
      00055C 15 81            [12] 2224 	dec	sp
                                   2225 ;	../../../core/net/rpl/rpl-icmp6.c:222: dio.dag_intdoubl = RPL_DIO_INTERVAL_DOUBLINGS;
      00055E 90r00r3A         [24] 2226 	mov	dptr,#(_dio + 0x001a)
      000561 74 08            [12] 2227 	mov	a,#0x08
      000563 F0               [24] 2228 	movx	@dptr,a
                                   2229 ;	../../../core/net/rpl/rpl-icmp6.c:223: dio.dag_intmin = RPL_DIO_INTERVAL_MIN;
      000564 90r00r3B         [24] 2230 	mov	dptr,#(_dio + 0x001b)
      000567 74 0C            [12] 2231 	mov	a,#0x0c
      000569 F0               [24] 2232 	movx	@dptr,a
                                   2233 ;	../../../core/net/rpl/rpl-icmp6.c:224: dio.dag_redund = RPL_DIO_REDUNDANCY;
      00056A 90r00r3C         [24] 2234 	mov	dptr,#(_dio + 0x001c)
      00056D 74 0A            [12] 2235 	mov	a,#0x0a
      00056F F0               [24] 2236 	movx	@dptr,a
                                   2237 ;	../../../core/net/rpl/rpl-icmp6.c:225: dio.dag_min_hoprankinc = RPL_MIN_HOPRANKINC;
      000570 90r00r42         [24] 2238 	mov	dptr,#(_dio + 0x0022)
      000573 E4               [12] 2239 	clr	a
      000574 F0               [24] 2240 	movx	@dptr,a
      000575 04               [12] 2241 	inc	a
      000576 A3               [24] 2242 	inc	dptr
      000577 F0               [24] 2243 	movx	@dptr,a
                                   2244 ;	../../../core/net/rpl/rpl-icmp6.c:226: dio.dag_max_rankinc = RPL_MAX_RANKINC;
      000578 90r00r40         [24] 2245 	mov	dptr,#(_dio + 0x0020)
      00057B E4               [12] 2246 	clr	a
      00057C F0               [24] 2247 	movx	@dptr,a
      00057D 74 07            [12] 2248 	mov	a,#0x07
      00057F A3               [24] 2249 	inc	dptr
      000580 F0               [24] 2250 	movx	@dptr,a
                                   2251 ;	../../../core/net/rpl/rpl-icmp6.c:227: dio.ocp = RPL_OF.ocp;
      000581 90r00r12         [24] 2252 	mov	dptr,#(_rpl_of_etx + 0x0012)
      000584 E0               [24] 2253 	movx	a,@dptr
      000585 FE               [12] 2254 	mov	r6,a
      000586 A3               [24] 2255 	inc	dptr
      000587 E0               [24] 2256 	movx	a,@dptr
      000588 FF               [12] 2257 	mov	r7,a
      000589 90r00r30         [24] 2258 	mov	dptr,#(_dio + 0x0010)
      00058C EE               [12] 2259 	mov	a,r6
      00058D F0               [24] 2260 	movx	@dptr,a
      00058E EF               [12] 2261 	mov	a,r7
      00058F A3               [24] 2262 	inc	dptr
      000590 F0               [24] 2263 	movx	@dptr,a
                                   2264 ;	../../../core/net/rpl/rpl-icmp6.c:228: dio.default_lifetime = RPL_DEFAULT_LIFETIME;
      000591 90r00r3D         [24] 2265 	mov	dptr,#(_dio + 0x001d)
      000594 74 FF            [12] 2266 	mov	a,#0xff
      000596 F0               [24] 2267 	movx	@dptr,a
                                   2268 ;	../../../core/net/rpl/rpl-icmp6.c:229: dio.lifetime_unit = RPL_DEFAULT_LIFETIME_UNIT;
      000597 90r00r3E         [24] 2269 	mov	dptr,#(_dio + 0x001e)
      00059A F0               [24] 2270 	movx	@dptr,a
      00059B A3               [24] 2271 	inc	dptr
      00059C F0               [24] 2272 	movx	@dptr,a
                                   2273 ;	../../../core/net/rpl/rpl-icmp6.c:231: uip_ipaddr_copy(&from, &UIP_IP_BUF->srcipaddr);
      00059D 74 10            [12] 2274 	mov	a,#0x10
      00059F C0 E0            [24] 2275 	push	acc
      0005A1 E4               [12] 2276 	clr	a
      0005A2 C0 E0            [24] 2277 	push	acc
      0005A4 74r08            [12] 2278 	mov	a,#(_uip_aligned_buf + 0x0008)
      0005A6 C0 E0            [24] 2279 	push	acc
      0005A8 74s00            [12] 2280 	mov	a,#((_uip_aligned_buf + 0x0008) >> 8)
      0005AA C0 E0            [24] 2281 	push	acc
      0005AC E4               [12] 2282 	clr	a
      0005AD C0 E0            [24] 2283 	push	acc
      0005AF 90r00r77         [24] 2284 	mov	dptr,#_from
      0005B2 75 F0 00         [24] 2285 	mov	b,#0x00
      0005B5 78r00            [12] 2286 	mov	r0,#___memcpy
      0005B7 79s00            [12] 2287 	mov	r1,#(___memcpy >> 8)
      0005B9 7As00            [12] 2288 	mov	r2,#(___memcpy >> 16)
      0005BB 12r00r00         [24] 2289 	lcall	__sdcc_banked_call
      0005BE E5 81            [12] 2290 	mov	a,sp
      0005C0 24 FB            [12] 2291 	add	a,#0xfb
      0005C2 F5 81            [12] 2292 	mov	sp,a
                                   2293 ;	../../../core/net/rpl/rpl-icmp6.c:238: if((nbr = uip_ds6_nbr_lookup(&from)) == NULL) {
      0005C4 90r00r77         [24] 2294 	mov	dptr,#_from
      0005C7 75 F0 00         [24] 2295 	mov	b,#0x00
      0005CA 78r00            [12] 2296 	mov	r0,#_uip_ds6_nbr_lookup
      0005CC 79s00            [12] 2297 	mov	r1,#(_uip_ds6_nbr_lookup >> 8)
      0005CE 7As00            [12] 2298 	mov	r2,#(_uip_ds6_nbr_lookup >> 16)
      0005D0 12r00r00         [24] 2299 	lcall	__sdcc_banked_call
      0005D3 AD 82            [24] 2300 	mov	r5,dpl
      0005D5 AE 83            [24] 2301 	mov	r6,dph
      0005D7 AF F0            [24] 2302 	mov	r7,b
      0005D9 ED               [12] 2303 	mov	a,r5
      0005DA 4E               [12] 2304 	orl	a,r6
      0005DB 70 6D            [24] 2305 	jnz	00104$
                                   2306 ;	../../../core/net/rpl/rpl-icmp6.c:240: packetbuf_addr(PACKETBUF_ADDR_SENDER),
      0005DD 75 82 18         [24] 2307 	mov	dpl,#0x18
      0005E0 78r00            [12] 2308 	mov	r0,#_packetbuf_addr
      0005E2 79s00            [12] 2309 	mov	r1,#(_packetbuf_addr >> 8)
      0005E4 7As00            [12] 2310 	mov	r2,#(_packetbuf_addr >> 16)
      0005E6 12r00r00         [24] 2311 	lcall	__sdcc_banked_call
      0005E9 AD 82            [24] 2312 	mov	r5,dpl
      0005EB AE 83            [24] 2313 	mov	r6,dph
      0005ED AF F0            [24] 2314 	mov	r7,b
                                   2315 ;	../../../core/net/rpl/rpl-icmp6.c:239: if((nbr = uip_ds6_nbr_add(&from, (uip_lladdr_t *)
      0005EF 74 01            [12] 2316 	mov	a,#0x01
      0005F1 C0 E0            [24] 2317 	push	acc
      0005F3 E4               [12] 2318 	clr	a
      0005F4 C0 E0            [24] 2319 	push	acc
      0005F6 C0 05            [24] 2320 	push	ar5
      0005F8 C0 06            [24] 2321 	push	ar6
      0005FA C0 07            [24] 2322 	push	ar7
      0005FC 90r00r77         [24] 2323 	mov	dptr,#_from
      0005FF 75 F0 00         [24] 2324 	mov	b,#0x00
      000602 78r00            [12] 2325 	mov	r0,#_uip_ds6_nbr_add
      000604 79s00            [12] 2326 	mov	r1,#(_uip_ds6_nbr_add >> 8)
      000606 7As00            [12] 2327 	mov	r2,#(_uip_ds6_nbr_add >> 16)
      000608 12r00r00         [24] 2328 	lcall	__sdcc_banked_call
      00060B AD 82            [24] 2329 	mov	r5,dpl
      00060D AE 83            [24] 2330 	mov	r6,dph
      00060F AF F0            [24] 2331 	mov	r7,b
      000611 E5 81            [12] 2332 	mov	a,sp
      000613 24 FB            [12] 2333 	add	a,#0xfb
      000615 F5 81            [12] 2334 	mov	sp,a
      000617 8D 02            [24] 2335 	mov	ar2,r5
      000619 8E 03            [24] 2336 	mov	ar3,r6
      00061B 8F 04            [24] 2337 	mov	ar4,r7
      00061D ED               [12] 2338 	mov	a,r5
      00061E 4E               [12] 2339 	orl	a,r6
      00061F 60 29            [24] 2340 	jz	00104$
                                   2341 ;	../../../core/net/rpl/rpl-icmp6.c:243: stimer_set(&nbr->reachable, UIP_ND6_REACHABLE_TIME / 1000);
      000621 74 19            [12] 2342 	mov	a,#0x19
      000623 2A               [12] 2343 	add	a,r2
      000624 FA               [12] 2344 	mov	r2,a
      000625 E4               [12] 2345 	clr	a
      000626 3B               [12] 2346 	addc	a,r3
      000627 FB               [12] 2347 	mov	r3,a
      000628 74 58            [12] 2348 	mov	a,#0x58
      00062A C0 E0            [24] 2349 	push	acc
      00062C 74 02            [12] 2350 	mov	a,#0x02
      00062E C0 E0            [24] 2351 	push	acc
      000630 E4               [12] 2352 	clr	a
      000631 C0 E0            [24] 2353 	push	acc
      000633 C0 E0            [24] 2354 	push	acc
      000635 8A 82            [24] 2355 	mov	dpl,r2
      000637 8B 83            [24] 2356 	mov	dph,r3
      000639 8C F0            [24] 2357 	mov	b,r4
      00063B 78r00            [12] 2358 	mov	r0,#_stimer_set
      00063D 79s00            [12] 2359 	mov	r1,#(_stimer_set >> 8)
      00063F 7As00            [12] 2360 	mov	r2,#(_stimer_set >> 16)
      000641 12r00r00         [24] 2361 	lcall	__sdcc_banked_call
      000644 E5 81            [12] 2362 	mov	a,sp
      000646 24 FC            [12] 2363 	add	a,#0xfc
      000648 F5 81            [12] 2364 	mov	sp,a
      00064A                       2365 00104$:
                                   2366 ;	../../../core/net/rpl/rpl-icmp6.c:254: buffer_length = uip_len - uip_l3_icmp_hdr_len;
      00064A 90r00r00         [24] 2367 	mov	dptr,#_uip_len
      00064D E0               [24] 2368 	movx	a,@dptr
      00064E FE               [12] 2369 	mov	r6,a
      00064F A3               [24] 2370 	inc	dptr
      000650 E0               [24] 2371 	movx	a,@dptr
      000651 90r00r00         [24] 2372 	mov	dptr,#_uip_ext_len
      000654 E0               [24] 2373 	movx	a,@dptr
      000655 FF               [12] 2374 	mov	r7,a
      000656 24 2C            [12] 2375 	add	a,#0x2c
      000658 FD               [12] 2376 	mov	r5,a
      000659 EE               [12] 2377 	mov	a,r6
      00065A C3               [12] 2378 	clr	c
      00065B 9D               [12] 2379 	subb	a,r5
      00065C FD               [12] 2380 	mov	r5,a
      00065D E5 81            [12] 2381 	mov	a,sp
      00065F 24 FC            [12] 2382 	add	a,#0xfc
      000661 F8               [12] 2383 	mov	r0,a
      000662 A6 05            [24] 2384 	mov	@r0,ar5
                                   2385 ;	../../../core/net/rpl/rpl-icmp6.c:258: buffer = UIP_ICMP_PAYLOAD;
      000664 7D 00            [12] 2386 	mov	r5,#0x00
      000666 74 2C            [12] 2387 	mov	a,#0x2c
      000668 2F               [12] 2388 	add	a,r7
      000669 FF               [12] 2389 	mov	r7,a
      00066A E4               [12] 2390 	clr	a
      00066B 3D               [12] 2391 	addc	a,r5
      00066C FD               [12] 2392 	mov	r5,a
      00066D EF               [12] 2393 	mov	a,r7
      00066E 24r00            [12] 2394 	add	a,#_uip_aligned_buf
      000670 FF               [12] 2395 	mov	r7,a
      000671 ED               [12] 2396 	mov	a,r5
      000672 34s00            [12] 2397 	addc	a,#(_uip_aligned_buf >> 8)
      000674 FD               [12] 2398 	mov	r5,a
      000675 E5 81            [12] 2399 	mov	a,sp
      000677 24 F9            [12] 2400 	add	a,#0xf9
      000679 F8               [12] 2401 	mov	r0,a
      00067A A6 07            [24] 2402 	mov	@r0,ar7
      00067C 08               [12] 2403 	inc	r0
      00067D A6 05            [24] 2404 	mov	@r0,ar5
      00067F 08               [12] 2405 	inc	r0
      000680 76 00            [12] 2406 	mov	@r0,#0x00
                                   2407 ;	../../../core/net/rpl/rpl-icmp6.c:260: dio.instance_id = buffer[i++];
      000682 E5 81            [12] 2408 	mov	a,sp
      000684 24 F9            [12] 2409 	add	a,#0xf9
      000686 F8               [12] 2410 	mov	r0,a
      000687 86 82            [24] 2411 	mov	dpl,@r0
      000689 08               [12] 2412 	inc	r0
      00068A 86 83            [24] 2413 	mov	dph,@r0
      00068C 08               [12] 2414 	inc	r0
      00068D 86 F0            [24] 2415 	mov	b,@r0
      00068F 12r00r00         [24] 2416 	lcall	__gptrget
      000692 90r00r38         [24] 2417 	mov	dptr,#(_dio + 0x0018)
      000695 F0               [24] 2418 	movx	@dptr,a
                                   2419 ;	../../../core/net/rpl/rpl-icmp6.c:261: dio.version = buffer[i++];
      000696 E5 81            [12] 2420 	mov	a,sp
      000698 24 F9            [12] 2421 	add	a,#0xf9
      00069A F8               [12] 2422 	mov	r0,a
      00069B 74 01            [12] 2423 	mov	a,#0x01
      00069D 26               [12] 2424 	add	a,@r0
      00069E FA               [12] 2425 	mov	r2,a
      00069F E4               [12] 2426 	clr	a
      0006A0 08               [12] 2427 	inc	r0
      0006A1 36               [12] 2428 	addc	a,@r0
      0006A2 FB               [12] 2429 	mov	r3,a
      0006A3 08               [12] 2430 	inc	r0
      0006A4 86 06            [24] 2431 	mov	ar6,@r0
      0006A6 8A 82            [24] 2432 	mov	dpl,r2
      0006A8 8B 83            [24] 2433 	mov	dph,r3
      0006AA 8E F0            [24] 2434 	mov	b,r6
      0006AC 12r00r00         [24] 2435 	lcall	__gptrget
      0006AF 90r00r37         [24] 2436 	mov	dptr,#(_dio + 0x0017)
      0006B2 F0               [24] 2437 	movx	@dptr,a
                                   2438 ;	../../../core/net/rpl/rpl-icmp6.c:262: dio.rank = get16(buffer, i);
      0006B3 74 02            [12] 2439 	mov	a,#0x02
      0006B5 C0 E0            [24] 2440 	push	acc
      0006B7 E4               [12] 2441 	clr	a
      0006B8 C0 E0            [24] 2442 	push	acc
      0006BA E5 81            [12] 2443 	mov	a,sp
      0006BC 24 F7            [12] 2444 	add	a,#0xf7
      0006BE F8               [12] 2445 	mov	r0,a
      0006BF 86 82            [24] 2446 	mov	dpl,@r0
      0006C1 08               [12] 2447 	inc	r0
      0006C2 86 83            [24] 2448 	mov	dph,@r0
      0006C4 08               [12] 2449 	inc	r0
      0006C5 86 F0            [24] 2450 	mov	b,@r0
      0006C7 78r1A            [12] 2451 	mov	r0,#_get16
      0006C9 79s03            [12] 2452 	mov	r1,#(_get16 >> 8)
      0006CB 7As00            [12] 2453 	mov	r2,#(_get16 >> 16)
      0006CD 12r00r00         [24] 2454 	lcall	__sdcc_banked_call
      0006D0 AB 82            [24] 2455 	mov	r3,dpl
      0006D2 AE 83            [24] 2456 	mov	r6,dph
      0006D4 15 81            [12] 2457 	dec	sp
      0006D6 15 81            [12] 2458 	dec	sp
      0006D8 90r00r32         [24] 2459 	mov	dptr,#(_dio + 0x0012)
      0006DB EB               [12] 2460 	mov	a,r3
      0006DC F0               [24] 2461 	movx	@dptr,a
      0006DD EE               [12] 2462 	mov	a,r6
      0006DE A3               [24] 2463 	inc	dptr
      0006DF F0               [24] 2464 	movx	@dptr,a
                                   2465 ;	../../../core/net/rpl/rpl-icmp6.c:270: dio.grounded = buffer[i] & RPL_DIO_GROUNDED;
      0006E0 E5 81            [12] 2466 	mov	a,sp
      0006E2 24 F9            [12] 2467 	add	a,#0xf9
      0006E4 F8               [12] 2468 	mov	r0,a
      0006E5 74 04            [12] 2469 	mov	a,#0x04
      0006E7 26               [12] 2470 	add	a,@r0
      0006E8 FA               [12] 2471 	mov	r2,a
      0006E9 E4               [12] 2472 	clr	a
      0006EA 08               [12] 2473 	inc	r0
      0006EB 36               [12] 2474 	addc	a,@r0
      0006EC FB               [12] 2475 	mov	r3,a
      0006ED 08               [12] 2476 	inc	r0
      0006EE 86 06            [24] 2477 	mov	ar6,@r0
      0006F0 8A 82            [24] 2478 	mov	dpl,r2
      0006F2 8B 83            [24] 2479 	mov	dph,r3
      0006F4 8E F0            [24] 2480 	mov	b,r6
      0006F6 12r00r00         [24] 2481 	lcall	__gptrget
      0006F9 FF               [12] 2482 	mov	r7,a
      0006FA 53 07 80         [24] 2483 	anl	ar7,#0x80
      0006FD 90r00r34         [24] 2484 	mov	dptr,#(_dio + 0x0014)
      000700 EF               [12] 2485 	mov	a,r7
      000701 F0               [24] 2486 	movx	@dptr,a
                                   2487 ;	../../../core/net/rpl/rpl-icmp6.c:271: dio.mop = (buffer[i]& RPL_DIO_MOP_MASK) >> RPL_DIO_MOP_SHIFT;
      000702 8A 82            [24] 2488 	mov	dpl,r2
      000704 8B 83            [24] 2489 	mov	dph,r3
      000706 8E F0            [24] 2490 	mov	b,r6
      000708 12r00r00         [24] 2491 	lcall	__gptrget
      00070B FF               [12] 2492 	mov	r7,a
      00070C 53 07 3C         [24] 2493 	anl	ar7,#0x3c
      00070F E4               [12] 2494 	clr	a
      000710 C4               [12] 2495 	swap	a
      000711 23               [12] 2496 	rl	a
      000712 CF               [12] 2497 	xch	a,r7
      000713 C4               [12] 2498 	swap	a
      000714 23               [12] 2499 	rl	a
      000715 54 1F            [12] 2500 	anl	a,#0x1f
      000717 6F               [12] 2501 	xrl	a,r7
      000718 CF               [12] 2502 	xch	a,r7
      000719 54 1F            [12] 2503 	anl	a,#0x1f
      00071B CF               [12] 2504 	xch	a,r7
      00071C 6F               [12] 2505 	xrl	a,r7
      00071D CF               [12] 2506 	xch	a,r7
      00071E 30 E4 02         [24] 2507 	jnb	acc.4,00214$
      000721 44 E0            [12] 2508 	orl	a,#0xe0
      000723                       2509 00214$:
      000723 90r00r35         [24] 2510 	mov	dptr,#(_dio + 0x0015)
      000726 EF               [12] 2511 	mov	a,r7
      000727 F0               [24] 2512 	movx	@dptr,a
                                   2513 ;	../../../core/net/rpl/rpl-icmp6.c:272: dio.preference = buffer[i++] & RPL_DIO_PREFERENCE_MASK;
      000728 8A 82            [24] 2514 	mov	dpl,r2
      00072A 8B 83            [24] 2515 	mov	dph,r3
      00072C 8E F0            [24] 2516 	mov	b,r6
      00072E 12r00r00         [24] 2517 	lcall	__gptrget
      000731 FA               [12] 2518 	mov	r2,a
      000732 53 02 07         [24] 2519 	anl	ar2,#0x07
      000735 90r00r36         [24] 2520 	mov	dptr,#(_dio + 0x0016)
      000738 EA               [12] 2521 	mov	a,r2
      000739 F0               [24] 2522 	movx	@dptr,a
                                   2523 ;	../../../core/net/rpl/rpl-icmp6.c:274: dio.dtsn = buffer[i++];
      00073A E5 81            [12] 2524 	mov	a,sp
      00073C 24 F9            [12] 2525 	add	a,#0xf9
      00073E F8               [12] 2526 	mov	r0,a
      00073F 74 05            [12] 2527 	mov	a,#0x05
      000741 26               [12] 2528 	add	a,@r0
      000742 FD               [12] 2529 	mov	r5,a
      000743 E4               [12] 2530 	clr	a
      000744 08               [12] 2531 	inc	r0
      000745 36               [12] 2532 	addc	a,@r0
      000746 FE               [12] 2533 	mov	r6,a
      000747 08               [12] 2534 	inc	r0
      000748 86 07            [24] 2535 	mov	ar7,@r0
      00074A 8D 82            [24] 2536 	mov	dpl,r5
      00074C 8E 83            [24] 2537 	mov	dph,r6
      00074E 8F F0            [24] 2538 	mov	b,r7
      000750 12r00r00         [24] 2539 	lcall	__gptrget
      000753 90r00r39         [24] 2540 	mov	dptr,#(_dio + 0x0019)
      000756 F0               [24] 2541 	movx	@dptr,a
                                   2542 ;	../../../core/net/rpl/rpl-icmp6.c:278: memcpy(&dio.dag_id, buffer + i, sizeof(dio.dag_id));
      000757 E5 81            [12] 2543 	mov	a,sp
      000759 24 F9            [12] 2544 	add	a,#0xf9
      00075B F8               [12] 2545 	mov	r0,a
      00075C 74 08            [12] 2546 	mov	a,#0x08
      00075E 26               [12] 2547 	add	a,@r0
      00075F FD               [12] 2548 	mov	r5,a
      000760 E4               [12] 2549 	clr	a
      000761 08               [12] 2550 	inc	r0
      000762 36               [12] 2551 	addc	a,@r0
      000763 FE               [12] 2552 	mov	r6,a
      000764 08               [12] 2553 	inc	r0
      000765 86 07            [24] 2554 	mov	ar7,@r0
      000767 74 10            [12] 2555 	mov	a,#0x10
      000769 C0 E0            [24] 2556 	push	acc
      00076B E4               [12] 2557 	clr	a
      00076C C0 E0            [24] 2558 	push	acc
      00076E C0 05            [24] 2559 	push	ar5
      000770 C0 06            [24] 2560 	push	ar6
      000772 C0 07            [24] 2561 	push	ar7
      000774 90r00r20         [24] 2562 	mov	dptr,#_dio
      000777 75 F0 00         [24] 2563 	mov	b,#0x00
      00077A 78r00            [12] 2564 	mov	r0,#___memcpy
      00077C 79s00            [12] 2565 	mov	r1,#(___memcpy >> 8)
      00077E 7As00            [12] 2566 	mov	r2,#(___memcpy >> 16)
      000780 12r00r00         [24] 2567 	lcall	__sdcc_banked_call
      000783 E5 81            [12] 2568 	mov	a,sp
      000785 24 FB            [12] 2569 	add	a,#0xfb
                                   2570 ;	../../../core/net/rpl/rpl-icmp6.c:279: i += sizeof(dio.dag_id);
      000787 F5 81            [12] 2571 	mov	sp,a
      000789 24 FD            [12] 2572 	add	a,#0xfd
      00078B F8               [12] 2573 	mov	r0,a
      00078C 76 18            [12] 2574 	mov	@r0,#0x18
      00078E 08               [12] 2575 	inc	r0
      00078F 76 00            [12] 2576 	mov	@r0,#0x00
      000791                       2577 00136$:
                                   2578 ;	../../../core/net/rpl/rpl-icmp6.c:286: for(; i < buffer_length; i += len) {
      000791 E5 81            [12] 2579 	mov	a,sp
      000793 24 FC            [12] 2580 	add	a,#0xfc
      000795 F8               [12] 2581 	mov	r0,a
      000796 86 04            [24] 2582 	mov	ar4,@r0
      000798 7D 00            [12] 2583 	mov	r5,#0x00
      00079A E5 81            [12] 2584 	mov	a,sp
      00079C 24 FD            [12] 2585 	add	a,#0xfd
      00079E F8               [12] 2586 	mov	r0,a
      00079F C3               [12] 2587 	clr	c
      0007A0 E6               [12] 2588 	mov	a,@r0
      0007A1 9C               [12] 2589 	subb	a,r4
      0007A2 08               [12] 2590 	inc	r0
      0007A3 E6               [12] 2591 	mov	a,@r0
      0007A4 64 80            [12] 2592 	xrl	a,#0x80
      0007A6 8D F0            [24] 2593 	mov	b,r5
      0007A8 63 F0 80         [24] 2594 	xrl	b,#0x80
      0007AB 95 F0            [12] 2595 	subb	a,b
      0007AD 40 03            [24] 2596 	jc	00215$
      0007AF 02r0DrBF         [24] 2597 	ljmp	00134$
      0007B2                       2598 00215$:
                                   2599 ;	../../../core/net/rpl/rpl-icmp6.c:287: subopt_type = buffer[i];
      0007B2 C0 04            [24] 2600 	push	ar4
      0007B4 C0 05            [24] 2601 	push	ar5
      0007B6 E5 81            [12] 2602 	mov	a,sp
      0007B8 24 F7            [12] 2603 	add	a,#0xf7
      0007BA F8               [12] 2604 	mov	r0,a
      0007BB E5 81            [12] 2605 	mov	a,sp
      0007BD 24 FB            [12] 2606 	add	a,#0xfb
      0007BF F9               [12] 2607 	mov	r1,a
      0007C0 E7               [12] 2608 	mov	a,@r1
      0007C1 26               [12] 2609 	add	a,@r0
      0007C2 FA               [12] 2610 	mov	r2,a
      0007C3 09               [12] 2611 	inc	r1
      0007C4 E7               [12] 2612 	mov	a,@r1
      0007C5 08               [12] 2613 	inc	r0
      0007C6 36               [12] 2614 	addc	a,@r0
      0007C7 FB               [12] 2615 	mov	r3,a
      0007C8 08               [12] 2616 	inc	r0
      0007C9 86 05            [24] 2617 	mov	ar5,@r0
      0007CB 8A 82            [24] 2618 	mov	dpl,r2
      0007CD 8B 83            [24] 2619 	mov	dph,r3
      0007CF 8D F0            [24] 2620 	mov	b,r5
      0007D1 12r00r00         [24] 2621 	lcall	__gptrget
      0007D4 FB               [12] 2622 	mov	r3,a
                                   2623 ;	../../../core/net/rpl/rpl-icmp6.c:288: if(subopt_type == RPL_OPTION_PAD1) {
      0007D5 D0 05            [24] 2624 	pop	ar5
      0007D7 D0 04            [24] 2625 	pop	ar4
      0007D9 EB               [12] 2626 	mov	a,r3
      0007DA 70 0A            [24] 2627 	jnz	00106$
                                   2628 ;	../../../core/net/rpl/rpl-icmp6.c:289: len = 1;
      0007DC A8 81            [24] 2629 	mov	r0,sp
      0007DE 18               [12] 2630 	dec	r0
      0007DF 76 01            [12] 2631 	mov	@r0,#0x01
      0007E1 08               [12] 2632 	inc	r0
      0007E2 76 00            [12] 2633 	mov	@r0,#0x00
      0007E4 80 3D            [24] 2634 	sjmp	00107$
      0007E6                       2635 00106$:
                                   2636 ;	../../../core/net/rpl/rpl-icmp6.c:292: len = 2 + buffer[i + 1];
      0007E6 C0 04            [24] 2637 	push	ar4
      0007E8 C0 05            [24] 2638 	push	ar5
      0007EA E5 81            [12] 2639 	mov	a,sp
      0007EC 24 FB            [12] 2640 	add	a,#0xfb
      0007EE F8               [12] 2641 	mov	r0,a
      0007EF 74 01            [12] 2642 	mov	a,#0x01
      0007F1 26               [12] 2643 	add	a,@r0
      0007F2 FC               [12] 2644 	mov	r4,a
      0007F3 E4               [12] 2645 	clr	a
      0007F4 08               [12] 2646 	inc	r0
      0007F5 36               [12] 2647 	addc	a,@r0
      0007F6 FD               [12] 2648 	mov	r5,a
      0007F7 E5 81            [12] 2649 	mov	a,sp
      0007F9 24 F7            [12] 2650 	add	a,#0xf7
      0007FB F8               [12] 2651 	mov	r0,a
      0007FC EC               [12] 2652 	mov	a,r4
      0007FD 26               [12] 2653 	add	a,@r0
      0007FE FC               [12] 2654 	mov	r4,a
      0007FF ED               [12] 2655 	mov	a,r5
      000800 08               [12] 2656 	inc	r0
      000801 36               [12] 2657 	addc	a,@r0
      000802 FD               [12] 2658 	mov	r5,a
      000803 08               [12] 2659 	inc	r0
      000804 86 07            [24] 2660 	mov	ar7,@r0
      000806 8C 82            [24] 2661 	mov	dpl,r4
      000808 8D 83            [24] 2662 	mov	dph,r5
      00080A 8F F0            [24] 2663 	mov	b,r7
      00080C 12r00r00         [24] 2664 	lcall	__gptrget
      00080F FC               [12] 2665 	mov	r4,a
      000810 7F 00            [12] 2666 	mov	r7,#0x00
      000812 E5 81            [12] 2667 	mov	a,sp
      000814 24 FD            [12] 2668 	add	a,#0xfd
      000816 F8               [12] 2669 	mov	r0,a
      000817 74 02            [12] 2670 	mov	a,#0x02
      000819 2C               [12] 2671 	add	a,r4
      00081A F6               [12] 2672 	mov	@r0,a
      00081B E4               [12] 2673 	clr	a
      00081C 3F               [12] 2674 	addc	a,r7
      00081D 08               [12] 2675 	inc	r0
      00081E F6               [12] 2676 	mov	@r0,a
                                   2677 ;	../../../core/net/rpl/rpl-icmp6.c:406: rpl_process_dio(&from, &dio);
      00081F D0 05            [24] 2678 	pop	ar5
      000821 D0 04            [24] 2679 	pop	ar4
                                   2680 ;	../../../core/net/rpl/rpl-icmp6.c:292: len = 2 + buffer[i + 1];
      000823                       2681 00107$:
                                   2682 ;	../../../core/net/rpl/rpl-icmp6.c:295: if(len + i > buffer_length) {
      000823 A8 81            [24] 2683 	mov	r0,sp
      000825 18               [12] 2684 	dec	r0
      000826 E5 81            [12] 2685 	mov	a,sp
      000828 24 FD            [12] 2686 	add	a,#0xfd
      00082A F9               [12] 2687 	mov	r1,a
      00082B E7               [12] 2688 	mov	a,@r1
      00082C 26               [12] 2689 	add	a,@r0
      00082D FE               [12] 2690 	mov	r6,a
      00082E 09               [12] 2691 	inc	r1
      00082F E7               [12] 2692 	mov	a,@r1
      000830 08               [12] 2693 	inc	r0
      000831 36               [12] 2694 	addc	a,@r0
      000832 FF               [12] 2695 	mov	r7,a
      000833 C3               [12] 2696 	clr	c
      000834 EC               [12] 2697 	mov	a,r4
      000835 9E               [12] 2698 	subb	a,r6
      000836 ED               [12] 2699 	mov	a,r5
      000837 64 80            [12] 2700 	xrl	a,#0x80
      000839 8F F0            [24] 2701 	mov	b,r7
      00083B 63 F0 80         [24] 2702 	xrl	b,#0x80
      00083E 95 F0            [12] 2703 	subb	a,b
      000840 50 03            [24] 2704 	jnc	00109$
                                   2705 ;	../../../core/net/rpl/rpl-icmp6.c:298: return;
      000842 02r0DrDF         [24] 2706 	ljmp	00138$
      000845                       2707 00109$:
                                   2708 ;	../../../core/net/rpl/rpl-icmp6.c:303: switch(subopt_type) {
      000845 BB 02 02         [24] 2709 	cjne	r3,#0x02,00218$
      000848 80 15            [24] 2710 	sjmp	00110$
      00084A                       2711 00218$:
      00084A BB 03 03         [24] 2712 	cjne	r3,#0x03,00219$
      00084D 02r09rE9         [24] 2713 	ljmp	00119$
      000850                       2714 00219$:
      000850 BB 04 03         [24] 2715 	cjne	r3,#0x04,00220$
      000853 02r0Br3B         [24] 2716 	ljmp	00126$
      000856                       2717 00220$:
      000856 BB 08 03         [24] 2718 	cjne	r3,#0x08,00221$
      000859 02r0CrCD         [24] 2719 	ljmp	00129$
      00085C                       2720 00221$:
      00085C 02r0DrAC         [24] 2721 	ljmp	00137$
                                   2722 ;	../../../core/net/rpl/rpl-icmp6.c:304: case RPL_OPTION_DAG_METRIC_CONTAINER:
      00085F                       2723 00110$:
                                   2724 ;	../../../core/net/rpl/rpl-icmp6.c:305: if(len < 6) {
      00085F A8 81            [24] 2725 	mov	r0,sp
      000861 18               [12] 2726 	dec	r0
      000862 C3               [12] 2727 	clr	c
      000863 E6               [12] 2728 	mov	a,@r0
      000864 94 06            [12] 2729 	subb	a,#0x06
      000866 08               [12] 2730 	inc	r0
      000867 E6               [12] 2731 	mov	a,@r0
      000868 64 80            [12] 2732 	xrl	a,#0x80
      00086A 94 80            [12] 2733 	subb	a,#0x80
      00086C 50 03            [24] 2734 	jnc	00112$
                                   2735 ;	../../../core/net/rpl/rpl-icmp6.c:308: return;
      00086E 02r0DrDF         [24] 2736 	ljmp	00138$
      000871                       2737 00112$:
                                   2738 ;	../../../core/net/rpl/rpl-icmp6.c:310: dio.mc.type = buffer[i + 2];
      000871 E5 81            [12] 2739 	mov	a,sp
      000873 24 FD            [12] 2740 	add	a,#0xfd
      000875 F8               [12] 2741 	mov	r0,a
      000876 74 02            [12] 2742 	mov	a,#0x02
      000878 26               [12] 2743 	add	a,@r0
      000879 FE               [12] 2744 	mov	r6,a
      00087A E4               [12] 2745 	clr	a
      00087B 08               [12] 2746 	inc	r0
      00087C 36               [12] 2747 	addc	a,@r0
      00087D FF               [12] 2748 	mov	r7,a
      00087E E5 81            [12] 2749 	mov	a,sp
      000880 24 F9            [12] 2750 	add	a,#0xf9
      000882 F8               [12] 2751 	mov	r0,a
      000883 EE               [12] 2752 	mov	a,r6
      000884 26               [12] 2753 	add	a,@r0
      000885 FE               [12] 2754 	mov	r6,a
      000886 EF               [12] 2755 	mov	a,r7
      000887 08               [12] 2756 	inc	r0
      000888 36               [12] 2757 	addc	a,@r0
      000889 FF               [12] 2758 	mov	r7,a
      00088A 08               [12] 2759 	inc	r0
      00088B 86 05            [24] 2760 	mov	ar5,@r0
      00088D 8E 82            [24] 2761 	mov	dpl,r6
      00088F 8F 83            [24] 2762 	mov	dph,r7
      000891 8D F0            [24] 2763 	mov	b,r5
      000893 12r00r00         [24] 2764 	lcall	__gptrget
      000896 90r00r70         [24] 2765 	mov	dptr,#(_dio + 0x0050)
      000899 F0               [24] 2766 	movx	@dptr,a
                                   2767 ;	../../../core/net/rpl/rpl-icmp6.c:311: dio.mc.flags = buffer[i + 3] << 1;
      00089A E5 81            [12] 2768 	mov	a,sp
      00089C 24 FD            [12] 2769 	add	a,#0xfd
      00089E F8               [12] 2770 	mov	r0,a
      00089F 74 03            [12] 2771 	mov	a,#0x03
      0008A1 26               [12] 2772 	add	a,@r0
      0008A2 FE               [12] 2773 	mov	r6,a
      0008A3 E4               [12] 2774 	clr	a
      0008A4 08               [12] 2775 	inc	r0
      0008A5 36               [12] 2776 	addc	a,@r0
      0008A6 FF               [12] 2777 	mov	r7,a
      0008A7 E5 81            [12] 2778 	mov	a,sp
      0008A9 24 F9            [12] 2779 	add	a,#0xf9
      0008AB F8               [12] 2780 	mov	r0,a
      0008AC EE               [12] 2781 	mov	a,r6
      0008AD 26               [12] 2782 	add	a,@r0
      0008AE FE               [12] 2783 	mov	r6,a
      0008AF EF               [12] 2784 	mov	a,r7
      0008B0 08               [12] 2785 	inc	r0
      0008B1 36               [12] 2786 	addc	a,@r0
      0008B2 FF               [12] 2787 	mov	r7,a
      0008B3 08               [12] 2788 	inc	r0
      0008B4 86 05            [24] 2789 	mov	ar5,@r0
      0008B6 8E 82            [24] 2790 	mov	dpl,r6
      0008B8 8F 83            [24] 2791 	mov	dph,r7
      0008BA 8D F0            [24] 2792 	mov	b,r5
      0008BC 12r00r00         [24] 2793 	lcall	__gptrget
      0008BF 25 E0            [12] 2794 	add	a,acc
      0008C1 90r00r71         [24] 2795 	mov	dptr,#(_dio + 0x0051)
      0008C4 F0               [24] 2796 	movx	@dptr,a
                                   2797 ;	../../../core/net/rpl/rpl-icmp6.c:312: dio.mc.flags |= buffer[i + 4] >> 7;
      0008C5 90r00r71         [24] 2798 	mov	dptr,#(_dio + 0x0051)
      0008C8 E0               [24] 2799 	movx	a,@dptr
      0008C9 FF               [12] 2800 	mov	r7,a
      0008CA E5 81            [12] 2801 	mov	a,sp
      0008CC 24 FD            [12] 2802 	add	a,#0xfd
      0008CE F8               [12] 2803 	mov	r0,a
      0008CF 74 04            [12] 2804 	mov	a,#0x04
      0008D1 26               [12] 2805 	add	a,@r0
      0008D2 FD               [12] 2806 	mov	r5,a
      0008D3 E4               [12] 2807 	clr	a
      0008D4 08               [12] 2808 	inc	r0
      0008D5 36               [12] 2809 	addc	a,@r0
      0008D6 FE               [12] 2810 	mov	r6,a
      0008D7 E5 81            [12] 2811 	mov	a,sp
      0008D9 24 F9            [12] 2812 	add	a,#0xf9
      0008DB F8               [12] 2813 	mov	r0,a
      0008DC ED               [12] 2814 	mov	a,r5
      0008DD 26               [12] 2815 	add	a,@r0
      0008DE FD               [12] 2816 	mov	r5,a
      0008DF EE               [12] 2817 	mov	a,r6
      0008E0 08               [12] 2818 	inc	r0
      0008E1 36               [12] 2819 	addc	a,@r0
      0008E2 FE               [12] 2820 	mov	r6,a
      0008E3 08               [12] 2821 	inc	r0
      0008E4 86 04            [24] 2822 	mov	ar4,@r0
      0008E6 8D 82            [24] 2823 	mov	dpl,r5
      0008E8 8E 83            [24] 2824 	mov	dph,r6
      0008EA 8C F0            [24] 2825 	mov	b,r4
      0008EC 12r00r00         [24] 2826 	lcall	__gptrget
      0008EF 23               [12] 2827 	rl	a
      0008F0 54 01            [12] 2828 	anl	a,#0x01
      0008F2 FB               [12] 2829 	mov	r3,a
      0008F3 42 07            [12] 2830 	orl	ar7,a
      0008F5 90r00r71         [24] 2831 	mov	dptr,#(_dio + 0x0051)
      0008F8 EF               [12] 2832 	mov	a,r7
      0008F9 F0               [24] 2833 	movx	@dptr,a
                                   2834 ;	../../../core/net/rpl/rpl-icmp6.c:313: dio.mc.aggr = (buffer[i + 4] >> 4) & 0x3;
      0008FA 8D 82            [24] 2835 	mov	dpl,r5
      0008FC 8E 83            [24] 2836 	mov	dph,r6
      0008FE 8C F0            [24] 2837 	mov	b,r4
      000900 12r00r00         [24] 2838 	lcall	__gptrget
      000903 C4               [12] 2839 	swap	a
      000904 54 0F            [12] 2840 	anl	a,#0x0f
      000906 FF               [12] 2841 	mov	r7,a
      000907 53 07 03         [24] 2842 	anl	ar7,#0x03
      00090A 90r00r72         [24] 2843 	mov	dptr,#(_dio + 0x0052)
      00090D EF               [12] 2844 	mov	a,r7
      00090E F0               [24] 2845 	movx	@dptr,a
                                   2846 ;	../../../core/net/rpl/rpl-icmp6.c:314: dio.mc.prec = buffer[i + 4] & 0xf;
      00090F 8D 82            [24] 2847 	mov	dpl,r5
      000911 8E 83            [24] 2848 	mov	dph,r6
      000913 8C F0            [24] 2849 	mov	b,r4
      000915 12r00r00         [24] 2850 	lcall	__gptrget
      000918 FD               [12] 2851 	mov	r5,a
      000919 53 05 0F         [24] 2852 	anl	ar5,#0x0f
      00091C 90r00r73         [24] 2853 	mov	dptr,#(_dio + 0x0053)
      00091F ED               [12] 2854 	mov	a,r5
      000920 F0               [24] 2855 	movx	@dptr,a
                                   2856 ;	../../../core/net/rpl/rpl-icmp6.c:315: dio.mc.length = buffer[i + 5];
      000921 E5 81            [12] 2857 	mov	a,sp
      000923 24 FD            [12] 2858 	add	a,#0xfd
      000925 F8               [12] 2859 	mov	r0,a
      000926 74 05            [12] 2860 	mov	a,#0x05
      000928 26               [12] 2861 	add	a,@r0
      000929 FE               [12] 2862 	mov	r6,a
      00092A E4               [12] 2863 	clr	a
      00092B 08               [12] 2864 	inc	r0
      00092C 36               [12] 2865 	addc	a,@r0
      00092D FF               [12] 2866 	mov	r7,a
      00092E E5 81            [12] 2867 	mov	a,sp
      000930 24 F9            [12] 2868 	add	a,#0xf9
      000932 F8               [12] 2869 	mov	r0,a
      000933 EE               [12] 2870 	mov	a,r6
      000934 26               [12] 2871 	add	a,@r0
      000935 FE               [12] 2872 	mov	r6,a
      000936 EF               [12] 2873 	mov	a,r7
      000937 08               [12] 2874 	inc	r0
      000938 36               [12] 2875 	addc	a,@r0
      000939 FF               [12] 2876 	mov	r7,a
      00093A 08               [12] 2877 	inc	r0
      00093B 86 05            [24] 2878 	mov	ar5,@r0
      00093D 8E 82            [24] 2879 	mov	dpl,r6
      00093F 8F 83            [24] 2880 	mov	dph,r7
      000941 8D F0            [24] 2881 	mov	b,r5
      000943 12r00r00         [24] 2882 	lcall	__gptrget
      000946 FE               [12] 2883 	mov	r6,a
      000947 90r00r74         [24] 2884 	mov	dptr,#(_dio + 0x0054)
      00094A F0               [24] 2885 	movx	@dptr,a
                                   2886 ;	../../../core/net/rpl/rpl-icmp6.c:317: if(dio.mc.type == RPL_DAG_MC_ETX) {
      00094B 90r00r70         [24] 2887 	mov	dptr,#(_dio + 0x0050)
      00094E E0               [24] 2888 	movx	a,@dptr
      00094F FF               [12] 2889 	mov	r7,a
      000950 BF 07 3A         [24] 2890 	cjne	r7,#0x07,00117$
                                   2891 ;	../../../core/net/rpl/rpl-icmp6.c:318: dio.mc.obj.etx = get16(buffer, i + 6);
      000953 E5 81            [12] 2892 	mov	a,sp
      000955 24 FD            [12] 2893 	add	a,#0xfd
      000957 F8               [12] 2894 	mov	r0,a
      000958 74 06            [12] 2895 	mov	a,#0x06
      00095A 26               [12] 2896 	add	a,@r0
      00095B FE               [12] 2897 	mov	r6,a
      00095C E4               [12] 2898 	clr	a
      00095D 08               [12] 2899 	inc	r0
      00095E 36               [12] 2900 	addc	a,@r0
      00095F FF               [12] 2901 	mov	r7,a
      000960 C0 06            [24] 2902 	push	ar6
      000962 C0 07            [24] 2903 	push	ar7
      000964 E5 81            [12] 2904 	mov	a,sp
      000966 24 F7            [12] 2905 	add	a,#0xf7
      000968 F8               [12] 2906 	mov	r0,a
      000969 86 82            [24] 2907 	mov	dpl,@r0
      00096B 08               [12] 2908 	inc	r0
      00096C 86 83            [24] 2909 	mov	dph,@r0
      00096E 08               [12] 2910 	inc	r0
      00096F 86 F0            [24] 2911 	mov	b,@r0
      000971 78r1A            [12] 2912 	mov	r0,#_get16
      000973 79s03            [12] 2913 	mov	r1,#(_get16 >> 8)
      000975 7As00            [12] 2914 	mov	r2,#(_get16 >> 16)
      000977 12r00r00         [24] 2915 	lcall	__sdcc_banked_call
      00097A AE 82            [24] 2916 	mov	r6,dpl
      00097C AF 83            [24] 2917 	mov	r7,dph
      00097E 15 81            [12] 2918 	dec	sp
      000980 15 81            [12] 2919 	dec	sp
      000982 90r00r75         [24] 2920 	mov	dptr,#(_dio + 0x0055)
      000985 EE               [12] 2921 	mov	a,r6
      000986 F0               [24] 2922 	movx	@dptr,a
      000987 EF               [12] 2923 	mov	a,r7
      000988 A3               [24] 2924 	inc	dptr
      000989 F0               [24] 2925 	movx	@dptr,a
      00098A 02r0DrAC         [24] 2926 	ljmp	00137$
      00098D                       2927 00117$:
                                   2928 ;	../../../core/net/rpl/rpl-icmp6.c:327: } else if(dio.mc.type == RPL_DAG_MC_ENERGY) {
      00098D BF 02 56         [24] 2929 	cjne	r7,#0x02,00114$
                                   2930 ;	../../../core/net/rpl/rpl-icmp6.c:328: dio.mc.obj.energy.flags = buffer[i + 6];
      000990 E5 81            [12] 2931 	mov	a,sp
      000992 24 FD            [12] 2932 	add	a,#0xfd
      000994 F8               [12] 2933 	mov	r0,a
      000995 74 06            [12] 2934 	mov	a,#0x06
      000997 26               [12] 2935 	add	a,@r0
      000998 FE               [12] 2936 	mov	r6,a
      000999 E4               [12] 2937 	clr	a
      00099A 08               [12] 2938 	inc	r0
      00099B 36               [12] 2939 	addc	a,@r0
      00099C FF               [12] 2940 	mov	r7,a
      00099D E5 81            [12] 2941 	mov	a,sp
      00099F 24 F9            [12] 2942 	add	a,#0xf9
      0009A1 F8               [12] 2943 	mov	r0,a
      0009A2 EE               [12] 2944 	mov	a,r6
      0009A3 26               [12] 2945 	add	a,@r0
      0009A4 FE               [12] 2946 	mov	r6,a
      0009A5 EF               [12] 2947 	mov	a,r7
      0009A6 08               [12] 2948 	inc	r0
      0009A7 36               [12] 2949 	addc	a,@r0
      0009A8 FF               [12] 2950 	mov	r7,a
      0009A9 08               [12] 2951 	inc	r0
      0009AA 86 05            [24] 2952 	mov	ar5,@r0
      0009AC 8E 82            [24] 2953 	mov	dpl,r6
      0009AE 8F 83            [24] 2954 	mov	dph,r7
      0009B0 8D F0            [24] 2955 	mov	b,r5
      0009B2 12r00r00         [24] 2956 	lcall	__gptrget
      0009B5 90r00r75         [24] 2957 	mov	dptr,#(_dio + 0x0055)
      0009B8 F0               [24] 2958 	movx	@dptr,a
                                   2959 ;	../../../core/net/rpl/rpl-icmp6.c:329: dio.mc.obj.energy.energy_est = buffer[i + 7];
      0009B9 E5 81            [12] 2960 	mov	a,sp
      0009BB 24 FD            [12] 2961 	add	a,#0xfd
      0009BD F8               [12] 2962 	mov	r0,a
      0009BE 74 07            [12] 2963 	mov	a,#0x07
      0009C0 26               [12] 2964 	add	a,@r0
      0009C1 FE               [12] 2965 	mov	r6,a
      0009C2 E4               [12] 2966 	clr	a
      0009C3 08               [12] 2967 	inc	r0
      0009C4 36               [12] 2968 	addc	a,@r0
      0009C5 FF               [12] 2969 	mov	r7,a
      0009C6 E5 81            [12] 2970 	mov	a,sp
      0009C8 24 F9            [12] 2971 	add	a,#0xf9
      0009CA F8               [12] 2972 	mov	r0,a
      0009CB EE               [12] 2973 	mov	a,r6
      0009CC 26               [12] 2974 	add	a,@r0
      0009CD FE               [12] 2975 	mov	r6,a
      0009CE EF               [12] 2976 	mov	a,r7
      0009CF 08               [12] 2977 	inc	r0
      0009D0 36               [12] 2978 	addc	a,@r0
      0009D1 FF               [12] 2979 	mov	r7,a
      0009D2 08               [12] 2980 	inc	r0
      0009D3 86 05            [24] 2981 	mov	ar5,@r0
      0009D5 8E 82            [24] 2982 	mov	dpl,r6
      0009D7 8F 83            [24] 2983 	mov	dph,r7
      0009D9 8D F0            [24] 2984 	mov	b,r5
      0009DB 12r00r00         [24] 2985 	lcall	__gptrget
      0009DE FE               [12] 2986 	mov	r6,a
      0009DF 90r00r76         [24] 2987 	mov	dptr,#(_dio + 0x0056)
      0009E2 F0               [24] 2988 	movx	@dptr,a
      0009E3 02r0DrAC         [24] 2989 	ljmp	00137$
      0009E6                       2990 00114$:
                                   2991 ;	../../../core/net/rpl/rpl-icmp6.c:332: return;
      0009E6 02r0DrDF         [24] 2992 	ljmp	00138$
                                   2993 ;	../../../core/net/rpl/rpl-icmp6.c:335: case RPL_OPTION_ROUTE_INFO:
      0009E9                       2994 00119$:
                                   2995 ;	../../../core/net/rpl/rpl-icmp6.c:336: if(len < 9) {
      0009E9 A8 81            [24] 2996 	mov	r0,sp
      0009EB 18               [12] 2997 	dec	r0
      0009EC C3               [12] 2998 	clr	c
      0009ED E6               [12] 2999 	mov	a,@r0
      0009EE 94 09            [12] 3000 	subb	a,#0x09
      0009F0 08               [12] 3001 	inc	r0
      0009F1 E6               [12] 3002 	mov	a,@r0
      0009F2 64 80            [12] 3003 	xrl	a,#0x80
      0009F4 94 80            [12] 3004 	subb	a,#0x80
      0009F6 50 03            [24] 3005 	jnc	00121$
                                   3006 ;	../../../core/net/rpl/rpl-icmp6.c:339: return;
      0009F8 02r0DrDF         [24] 3007 	ljmp	00138$
      0009FB                       3008 00121$:
                                   3009 ;	../../../core/net/rpl/rpl-icmp6.c:343: dio.destination_prefix.length = buffer[i + 2];
      0009FB E5 81            [12] 3010 	mov	a,sp
      0009FD 24 FD            [12] 3011 	add	a,#0xfd
      0009FF F8               [12] 3012 	mov	r0,a
      000A00 74 02            [12] 3013 	mov	a,#0x02
      000A02 26               [12] 3014 	add	a,@r0
      000A03 FE               [12] 3015 	mov	r6,a
      000A04 E4               [12] 3016 	clr	a
      000A05 08               [12] 3017 	inc	r0
      000A06 36               [12] 3018 	addc	a,@r0
      000A07 FF               [12] 3019 	mov	r7,a
      000A08 E5 81            [12] 3020 	mov	a,sp
      000A0A 24 F9            [12] 3021 	add	a,#0xf9
      000A0C F8               [12] 3022 	mov	r0,a
      000A0D EE               [12] 3023 	mov	a,r6
      000A0E 26               [12] 3024 	add	a,@r0
      000A0F FE               [12] 3025 	mov	r6,a
      000A10 EF               [12] 3026 	mov	a,r7
      000A11 08               [12] 3027 	inc	r0
      000A12 36               [12] 3028 	addc	a,@r0
      000A13 FF               [12] 3029 	mov	r7,a
      000A14 08               [12] 3030 	inc	r0
      000A15 86 05            [24] 3031 	mov	ar5,@r0
      000A17 8E 82            [24] 3032 	mov	dpl,r6
      000A19 8F 83            [24] 3033 	mov	dph,r7
      000A1B 8D F0            [24] 3034 	mov	b,r5
      000A1D 12r00r00         [24] 3035 	lcall	__gptrget
      000A20 90r00r58         [24] 3036 	mov	dptr,#(_dio + 0x0038)
      000A23 F0               [24] 3037 	movx	@dptr,a
                                   3038 ;	../../../core/net/rpl/rpl-icmp6.c:344: dio.destination_prefix.flags = buffer[i + 3];
      000A24 E5 81            [12] 3039 	mov	a,sp
      000A26 24 FD            [12] 3040 	add	a,#0xfd
      000A28 F8               [12] 3041 	mov	r0,a
      000A29 74 03            [12] 3042 	mov	a,#0x03
      000A2B 26               [12] 3043 	add	a,@r0
      000A2C FE               [12] 3044 	mov	r6,a
      000A2D E4               [12] 3045 	clr	a
      000A2E 08               [12] 3046 	inc	r0
      000A2F 36               [12] 3047 	addc	a,@r0
      000A30 FF               [12] 3048 	mov	r7,a
      000A31 E5 81            [12] 3049 	mov	a,sp
      000A33 24 F9            [12] 3050 	add	a,#0xf9
      000A35 F8               [12] 3051 	mov	r0,a
      000A36 EE               [12] 3052 	mov	a,r6
      000A37 26               [12] 3053 	add	a,@r0
      000A38 FE               [12] 3054 	mov	r6,a
      000A39 EF               [12] 3055 	mov	a,r7
      000A3A 08               [12] 3056 	inc	r0
      000A3B 36               [12] 3057 	addc	a,@r0
      000A3C FF               [12] 3058 	mov	r7,a
      000A3D 08               [12] 3059 	inc	r0
      000A3E 86 05            [24] 3060 	mov	ar5,@r0
      000A40 8E 82            [24] 3061 	mov	dpl,r6
      000A42 8F 83            [24] 3062 	mov	dph,r7
      000A44 8D F0            [24] 3063 	mov	b,r5
      000A46 12r00r00         [24] 3064 	lcall	__gptrget
      000A49 90r00r59         [24] 3065 	mov	dptr,#(_dio + 0x0039)
      000A4C F0               [24] 3066 	movx	@dptr,a
                                   3067 ;	../../../core/net/rpl/rpl-icmp6.c:345: dio.destination_prefix.lifetime = get32(buffer, i + 4);
      000A4D E5 81            [12] 3068 	mov	a,sp
      000A4F 24 FD            [12] 3069 	add	a,#0xfd
      000A51 F8               [12] 3070 	mov	r0,a
      000A52 74 04            [12] 3071 	mov	a,#0x04
      000A54 26               [12] 3072 	add	a,@r0
      000A55 FE               [12] 3073 	mov	r6,a
      000A56 E4               [12] 3074 	clr	a
      000A57 08               [12] 3075 	inc	r0
      000A58 36               [12] 3076 	addc	a,@r0
      000A59 FF               [12] 3077 	mov	r7,a
      000A5A C0 06            [24] 3078 	push	ar6
      000A5C C0 07            [24] 3079 	push	ar7
      000A5E E5 81            [12] 3080 	mov	a,sp
      000A60 24 F7            [12] 3081 	add	a,#0xf7
      000A62 F8               [12] 3082 	mov	r0,a
      000A63 86 82            [24] 3083 	mov	dpl,@r0
      000A65 08               [12] 3084 	inc	r0
      000A66 86 83            [24] 3085 	mov	dph,@r0
      000A68 08               [12] 3086 	inc	r0
      000A69 86 F0            [24] 3087 	mov	b,@r0
      000A6B 78r22            [12] 3088 	mov	r0,#_get32
      000A6D 79s01            [12] 3089 	mov	r1,#(_get32 >> 8)
      000A6F 7As00            [12] 3090 	mov	r2,#(_get32 >> 16)
      000A71 12r00r00         [24] 3091 	lcall	__sdcc_banked_call
      000A74 AC 82            [24] 3092 	mov	r4,dpl
      000A76 AD 83            [24] 3093 	mov	r5,dph
      000A78 AE F0            [24] 3094 	mov	r6,b
      000A7A FF               [12] 3095 	mov	r7,a
      000A7B 15 81            [12] 3096 	dec	sp
      000A7D 15 81            [12] 3097 	dec	sp
      000A7F 90r00r54         [24] 3098 	mov	dptr,#(_dio + 0x0034)
      000A82 EC               [12] 3099 	mov	a,r4
      000A83 F0               [24] 3100 	movx	@dptr,a
      000A84 ED               [12] 3101 	mov	a,r5
      000A85 A3               [24] 3102 	inc	dptr
      000A86 F0               [24] 3103 	movx	@dptr,a
      000A87 EE               [12] 3104 	mov	a,r6
      000A88 A3               [24] 3105 	inc	dptr
      000A89 F0               [24] 3106 	movx	@dptr,a
      000A8A EF               [12] 3107 	mov	a,r7
      000A8B A3               [24] 3108 	inc	dptr
      000A8C F0               [24] 3109 	movx	@dptr,a
                                   3110 ;	../../../core/net/rpl/rpl-icmp6.c:347: if(((dio.destination_prefix.length + 7) / 8) + 8 <= len &&
      000A8D 90r00r58         [24] 3111 	mov	dptr,#(_dio + 0x0038)
      000A90 E0               [24] 3112 	movx	a,@dptr
      000A91 FF               [12] 3113 	mov	r7,a
      000A92 FD               [12] 3114 	mov	r5,a
      000A93 7E 00            [12] 3115 	mov	r6,#0x00
      000A95 74 07            [12] 3116 	mov	a,#0x07
      000A97 2D               [12] 3117 	add	a,r5
      000A98 FB               [12] 3118 	mov	r3,a
      000A99 E4               [12] 3119 	clr	a
      000A9A 3E               [12] 3120 	addc	a,r6
      000A9B FC               [12] 3121 	mov	r4,a
      000A9C C0 07            [24] 3122 	push	ar7
      000A9E C0 06            [24] 3123 	push	ar6
      000AA0 C0 05            [24] 3124 	push	ar5
      000AA2 74 08            [12] 3125 	mov	a,#0x08
      000AA4 C0 E0            [24] 3126 	push	acc
      000AA6 E4               [12] 3127 	clr	a
      000AA7 C0 E0            [24] 3128 	push	acc
      000AA9 8B 82            [24] 3129 	mov	dpl,r3
      000AAB 8C 83            [24] 3130 	mov	dph,r4
      000AAD 12r00r00         [24] 3131 	lcall	__divsint
      000AB0 AB 82            [24] 3132 	mov	r3,dpl
      000AB2 AC 83            [24] 3133 	mov	r4,dph
      000AB4 15 81            [12] 3134 	dec	sp
      000AB6 15 81            [12] 3135 	dec	sp
      000AB8 D0 05            [24] 3136 	pop	ar5
      000ABA D0 06            [24] 3137 	pop	ar6
      000ABC D0 07            [24] 3138 	pop	ar7
      000ABE 74 08            [12] 3139 	mov	a,#0x08
      000AC0 2B               [12] 3140 	add	a,r3
      000AC1 FB               [12] 3141 	mov	r3,a
      000AC2 E4               [12] 3142 	clr	a
      000AC3 3C               [12] 3143 	addc	a,r4
      000AC4 FC               [12] 3144 	mov	r4,a
      000AC5 A8 81            [24] 3145 	mov	r0,sp
      000AC7 18               [12] 3146 	dec	r0
      000AC8 C3               [12] 3147 	clr	c
      000AC9 E6               [12] 3148 	mov	a,@r0
      000ACA 9B               [12] 3149 	subb	a,r3
      000ACB 08               [12] 3150 	inc	r0
      000ACC E6               [12] 3151 	mov	a,@r0
      000ACD 64 80            [12] 3152 	xrl	a,#0x80
      000ACF 8C F0            [24] 3153 	mov	b,r4
      000AD1 63 F0 80         [24] 3154 	xrl	b,#0x80
      000AD4 95 F0            [12] 3155 	subb	a,b
      000AD6 40 60            [24] 3156 	jc	00123$
                                   3157 ;	../../../core/net/rpl/rpl-icmp6.c:348: dio.destination_prefix.length <= 128) {
      000AD8 EF               [12] 3158 	mov	a,r7
      000AD9 24 7F            [12] 3159 	add	a,#0xff - 0x80
      000ADB 40 5B            [24] 3160 	jc	00123$
                                   3161 ;	../../../core/net/rpl/rpl-icmp6.c:350: memcpy(&dio.destination_prefix.prefix, &buffer[i + 8],
      000ADD 74 07            [12] 3162 	mov	a,#0x07
      000ADF 2D               [12] 3163 	add	a,r5
      000AE0 FD               [12] 3164 	mov	r5,a
      000AE1 E4               [12] 3165 	clr	a
      000AE2 3E               [12] 3166 	addc	a,r6
      000AE3 FE               [12] 3167 	mov	r6,a
      000AE4 74 08            [12] 3168 	mov	a,#0x08
      000AE6 C0 E0            [24] 3169 	push	acc
      000AE8 E4               [12] 3170 	clr	a
      000AE9 C0 E0            [24] 3171 	push	acc
      000AEB 8D 82            [24] 3172 	mov	dpl,r5
      000AED 8E 83            [24] 3173 	mov	dph,r6
      000AEF 12r00r00         [24] 3174 	lcall	__divsint
      000AF2 AE 82            [24] 3175 	mov	r6,dpl
      000AF4 AF 83            [24] 3176 	mov	r7,dph
      000AF6 15 81            [12] 3177 	dec	sp
      000AF8 15 81            [12] 3178 	dec	sp
      000AFA E5 81            [12] 3179 	mov	a,sp
      000AFC 24 FD            [12] 3180 	add	a,#0xfd
      000AFE F8               [12] 3181 	mov	r0,a
      000AFF 74 08            [12] 3182 	mov	a,#0x08
      000B01 26               [12] 3183 	add	a,@r0
      000B02 FC               [12] 3184 	mov	r4,a
      000B03 E4               [12] 3185 	clr	a
      000B04 08               [12] 3186 	inc	r0
      000B05 36               [12] 3187 	addc	a,@r0
      000B06 FD               [12] 3188 	mov	r5,a
      000B07 E5 81            [12] 3189 	mov	a,sp
      000B09 24 F9            [12] 3190 	add	a,#0xf9
      000B0B F8               [12] 3191 	mov	r0,a
      000B0C EC               [12] 3192 	mov	a,r4
      000B0D 26               [12] 3193 	add	a,@r0
      000B0E FC               [12] 3194 	mov	r4,a
      000B0F ED               [12] 3195 	mov	a,r5
      000B10 08               [12] 3196 	inc	r0
      000B11 36               [12] 3197 	addc	a,@r0
      000B12 FD               [12] 3198 	mov	r5,a
      000B13 08               [12] 3199 	inc	r0
      000B14 86 03            [24] 3200 	mov	ar3,@r0
      000B16 C0 06            [24] 3201 	push	ar6
      000B18 C0 07            [24] 3202 	push	ar7
      000B1A C0 04            [24] 3203 	push	ar4
      000B1C C0 05            [24] 3204 	push	ar5
      000B1E C0 03            [24] 3205 	push	ar3
      000B20 90r00r44         [24] 3206 	mov	dptr,#(_dio + 0x0024)
      000B23 75 F0 00         [24] 3207 	mov	b,#0x00
      000B26 78r00            [12] 3208 	mov	r0,#___memcpy
      000B28 79s00            [12] 3209 	mov	r1,#(___memcpy >> 8)
      000B2A 7As00            [12] 3210 	mov	r2,#(___memcpy >> 16)
      000B2C 12r00r00         [24] 3211 	lcall	__sdcc_banked_call
      000B2F E5 81            [12] 3212 	mov	a,sp
      000B31 24 FB            [12] 3213 	add	a,#0xfb
      000B33 F5 81            [12] 3214 	mov	sp,a
      000B35 02r0DrAC         [24] 3215 	ljmp	00137$
      000B38                       3216 00123$:
                                   3217 ;	../../../core/net/rpl/rpl-icmp6.c:355: return;
      000B38 02r0DrDF         [24] 3218 	ljmp	00138$
                                   3219 ;	../../../core/net/rpl/rpl-icmp6.c:359: case RPL_OPTION_DAG_CONF:
      000B3B                       3220 00126$:
                                   3221 ;	../../../core/net/rpl/rpl-icmp6.c:360: if(len != 16) {
      000B3B A8 81            [24] 3222 	mov	r0,sp
      000B3D 18               [12] 3223 	dec	r0
      000B3E B6 10 06         [24] 3224 	cjne	@r0,#0x10,00230$
      000B41 08               [12] 3225 	inc	r0
      000B42 B6 00 02         [24] 3226 	cjne	@r0,#0x00,00230$
      000B45 80 03            [24] 3227 	sjmp	00128$
      000B47                       3228 00230$:
                                   3229 ;	../../../core/net/rpl/rpl-icmp6.c:363: return;
      000B47 02r0DrDF         [24] 3230 	ljmp	00138$
      000B4A                       3231 00128$:
                                   3232 ;	../../../core/net/rpl/rpl-icmp6.c:367: dio.dag_intdoubl = buffer[i + 3];
      000B4A E5 81            [12] 3233 	mov	a,sp
      000B4C 24 FD            [12] 3234 	add	a,#0xfd
      000B4E F8               [12] 3235 	mov	r0,a
      000B4F 74 03            [12] 3236 	mov	a,#0x03
      000B51 26               [12] 3237 	add	a,@r0
      000B52 FE               [12] 3238 	mov	r6,a
      000B53 E4               [12] 3239 	clr	a
      000B54 08               [12] 3240 	inc	r0
      000B55 36               [12] 3241 	addc	a,@r0
      000B56 FF               [12] 3242 	mov	r7,a
      000B57 E5 81            [12] 3243 	mov	a,sp
      000B59 24 F9            [12] 3244 	add	a,#0xf9
      000B5B F8               [12] 3245 	mov	r0,a
      000B5C EE               [12] 3246 	mov	a,r6
      000B5D 26               [12] 3247 	add	a,@r0
      000B5E FE               [12] 3248 	mov	r6,a
      000B5F EF               [12] 3249 	mov	a,r7
      000B60 08               [12] 3250 	inc	r0
      000B61 36               [12] 3251 	addc	a,@r0
      000B62 FF               [12] 3252 	mov	r7,a
      000B63 08               [12] 3253 	inc	r0
      000B64 86 05            [24] 3254 	mov	ar5,@r0
      000B66 8E 82            [24] 3255 	mov	dpl,r6
      000B68 8F 83            [24] 3256 	mov	dph,r7
      000B6A 8D F0            [24] 3257 	mov	b,r5
      000B6C 12r00r00         [24] 3258 	lcall	__gptrget
      000B6F 90r00r3A         [24] 3259 	mov	dptr,#(_dio + 0x001a)
      000B72 F0               [24] 3260 	movx	@dptr,a
                                   3261 ;	../../../core/net/rpl/rpl-icmp6.c:368: dio.dag_intmin = buffer[i + 4];
      000B73 E5 81            [12] 3262 	mov	a,sp
      000B75 24 FD            [12] 3263 	add	a,#0xfd
      000B77 F8               [12] 3264 	mov	r0,a
      000B78 74 04            [12] 3265 	mov	a,#0x04
      000B7A 26               [12] 3266 	add	a,@r0
      000B7B FE               [12] 3267 	mov	r6,a
      000B7C E4               [12] 3268 	clr	a
      000B7D 08               [12] 3269 	inc	r0
      000B7E 36               [12] 3270 	addc	a,@r0
      000B7F FF               [12] 3271 	mov	r7,a
      000B80 E5 81            [12] 3272 	mov	a,sp
      000B82 24 F9            [12] 3273 	add	a,#0xf9
      000B84 F8               [12] 3274 	mov	r0,a
      000B85 EE               [12] 3275 	mov	a,r6
      000B86 26               [12] 3276 	add	a,@r0
      000B87 FE               [12] 3277 	mov	r6,a
      000B88 EF               [12] 3278 	mov	a,r7
      000B89 08               [12] 3279 	inc	r0
      000B8A 36               [12] 3280 	addc	a,@r0
      000B8B FF               [12] 3281 	mov	r7,a
      000B8C 08               [12] 3282 	inc	r0
      000B8D 86 05            [24] 3283 	mov	ar5,@r0
      000B8F 8E 82            [24] 3284 	mov	dpl,r6
      000B91 8F 83            [24] 3285 	mov	dph,r7
      000B93 8D F0            [24] 3286 	mov	b,r5
      000B95 12r00r00         [24] 3287 	lcall	__gptrget
      000B98 90r00r3B         [24] 3288 	mov	dptr,#(_dio + 0x001b)
      000B9B F0               [24] 3289 	movx	@dptr,a
                                   3290 ;	../../../core/net/rpl/rpl-icmp6.c:369: dio.dag_redund = buffer[i + 5];
      000B9C E5 81            [12] 3291 	mov	a,sp
      000B9E 24 FD            [12] 3292 	add	a,#0xfd
      000BA0 F8               [12] 3293 	mov	r0,a
      000BA1 74 05            [12] 3294 	mov	a,#0x05
      000BA3 26               [12] 3295 	add	a,@r0
      000BA4 FE               [12] 3296 	mov	r6,a
      000BA5 E4               [12] 3297 	clr	a
      000BA6 08               [12] 3298 	inc	r0
      000BA7 36               [12] 3299 	addc	a,@r0
      000BA8 FF               [12] 3300 	mov	r7,a
      000BA9 E5 81            [12] 3301 	mov	a,sp
      000BAB 24 F9            [12] 3302 	add	a,#0xf9
      000BAD F8               [12] 3303 	mov	r0,a
      000BAE EE               [12] 3304 	mov	a,r6
      000BAF 26               [12] 3305 	add	a,@r0
      000BB0 FE               [12] 3306 	mov	r6,a
      000BB1 EF               [12] 3307 	mov	a,r7
      000BB2 08               [12] 3308 	inc	r0
      000BB3 36               [12] 3309 	addc	a,@r0
      000BB4 FF               [12] 3310 	mov	r7,a
      000BB5 08               [12] 3311 	inc	r0
      000BB6 86 05            [24] 3312 	mov	ar5,@r0
      000BB8 8E 82            [24] 3313 	mov	dpl,r6
      000BBA 8F 83            [24] 3314 	mov	dph,r7
      000BBC 8D F0            [24] 3315 	mov	b,r5
      000BBE 12r00r00         [24] 3316 	lcall	__gptrget
      000BC1 90r00r3C         [24] 3317 	mov	dptr,#(_dio + 0x001c)
      000BC4 F0               [24] 3318 	movx	@dptr,a
                                   3319 ;	../../../core/net/rpl/rpl-icmp6.c:370: dio.dag_max_rankinc = get16(buffer, i + 6);
      000BC5 E5 81            [12] 3320 	mov	a,sp
      000BC7 24 FD            [12] 3321 	add	a,#0xfd
      000BC9 F8               [12] 3322 	mov	r0,a
      000BCA 74 06            [12] 3323 	mov	a,#0x06
      000BCC 26               [12] 3324 	add	a,@r0
      000BCD FE               [12] 3325 	mov	r6,a
      000BCE E4               [12] 3326 	clr	a
      000BCF 08               [12] 3327 	inc	r0
      000BD0 36               [12] 3328 	addc	a,@r0
      000BD1 FF               [12] 3329 	mov	r7,a
      000BD2 C0 06            [24] 3330 	push	ar6
      000BD4 C0 07            [24] 3331 	push	ar7
      000BD6 E5 81            [12] 3332 	mov	a,sp
      000BD8 24 F7            [12] 3333 	add	a,#0xf7
      000BDA F8               [12] 3334 	mov	r0,a
      000BDB 86 82            [24] 3335 	mov	dpl,@r0
      000BDD 08               [12] 3336 	inc	r0
      000BDE 86 83            [24] 3337 	mov	dph,@r0
      000BE0 08               [12] 3338 	inc	r0
      000BE1 86 F0            [24] 3339 	mov	b,@r0
      000BE3 78r1A            [12] 3340 	mov	r0,#_get16
      000BE5 79s03            [12] 3341 	mov	r1,#(_get16 >> 8)
      000BE7 7As00            [12] 3342 	mov	r2,#(_get16 >> 16)
      000BE9 12r00r00         [24] 3343 	lcall	__sdcc_banked_call
      000BEC AE 82            [24] 3344 	mov	r6,dpl
      000BEE AF 83            [24] 3345 	mov	r7,dph
      000BF0 15 81            [12] 3346 	dec	sp
      000BF2 15 81            [12] 3347 	dec	sp
      000BF4 90r00r40         [24] 3348 	mov	dptr,#(_dio + 0x0020)
      000BF7 EE               [12] 3349 	mov	a,r6
      000BF8 F0               [24] 3350 	movx	@dptr,a
      000BF9 EF               [12] 3351 	mov	a,r7
      000BFA A3               [24] 3352 	inc	dptr
      000BFB F0               [24] 3353 	movx	@dptr,a
                                   3354 ;	../../../core/net/rpl/rpl-icmp6.c:371: dio.dag_min_hoprankinc = get16(buffer, i + 8);
      000BFC E5 81            [12] 3355 	mov	a,sp
      000BFE 24 FD            [12] 3356 	add	a,#0xfd
      000C00 F8               [12] 3357 	mov	r0,a
      000C01 74 08            [12] 3358 	mov	a,#0x08
      000C03 26               [12] 3359 	add	a,@r0
      000C04 FE               [12] 3360 	mov	r6,a
      000C05 E4               [12] 3361 	clr	a
      000C06 08               [12] 3362 	inc	r0
      000C07 36               [12] 3363 	addc	a,@r0
      000C08 FF               [12] 3364 	mov	r7,a
      000C09 C0 06            [24] 3365 	push	ar6
      000C0B C0 07            [24] 3366 	push	ar7
      000C0D E5 81            [12] 3367 	mov	a,sp
      000C0F 24 F7            [12] 3368 	add	a,#0xf7
      000C11 F8               [12] 3369 	mov	r0,a
      000C12 86 82            [24] 3370 	mov	dpl,@r0
      000C14 08               [12] 3371 	inc	r0
      000C15 86 83            [24] 3372 	mov	dph,@r0
      000C17 08               [12] 3373 	inc	r0
      000C18 86 F0            [24] 3374 	mov	b,@r0
      000C1A 78r1A            [12] 3375 	mov	r0,#_get16
      000C1C 79s03            [12] 3376 	mov	r1,#(_get16 >> 8)
      000C1E 7As00            [12] 3377 	mov	r2,#(_get16 >> 16)
      000C20 12r00r00         [24] 3378 	lcall	__sdcc_banked_call
      000C23 AE 82            [24] 3379 	mov	r6,dpl
      000C25 AF 83            [24] 3380 	mov	r7,dph
      000C27 15 81            [12] 3381 	dec	sp
      000C29 15 81            [12] 3382 	dec	sp
      000C2B 90r00r42         [24] 3383 	mov	dptr,#(_dio + 0x0022)
      000C2E EE               [12] 3384 	mov	a,r6
      000C2F F0               [24] 3385 	movx	@dptr,a
      000C30 EF               [12] 3386 	mov	a,r7
      000C31 A3               [24] 3387 	inc	dptr
      000C32 F0               [24] 3388 	movx	@dptr,a
                                   3389 ;	../../../core/net/rpl/rpl-icmp6.c:372: dio.ocp = get16(buffer, i + 10);
      000C33 E5 81            [12] 3390 	mov	a,sp
      000C35 24 FD            [12] 3391 	add	a,#0xfd
      000C37 F8               [12] 3392 	mov	r0,a
      000C38 74 0A            [12] 3393 	mov	a,#0x0a
      000C3A 26               [12] 3394 	add	a,@r0
      000C3B FE               [12] 3395 	mov	r6,a
      000C3C E4               [12] 3396 	clr	a
      000C3D 08               [12] 3397 	inc	r0
      000C3E 36               [12] 3398 	addc	a,@r0
      000C3F FF               [12] 3399 	mov	r7,a
      000C40 C0 06            [24] 3400 	push	ar6
      000C42 C0 07            [24] 3401 	push	ar7
      000C44 E5 81            [12] 3402 	mov	a,sp
      000C46 24 F7            [12] 3403 	add	a,#0xf7
      000C48 F8               [12] 3404 	mov	r0,a
      000C49 86 82            [24] 3405 	mov	dpl,@r0
      000C4B 08               [12] 3406 	inc	r0
      000C4C 86 83            [24] 3407 	mov	dph,@r0
      000C4E 08               [12] 3408 	inc	r0
      000C4F 86 F0            [24] 3409 	mov	b,@r0
      000C51 78r1A            [12] 3410 	mov	r0,#_get16
      000C53 79s03            [12] 3411 	mov	r1,#(_get16 >> 8)
      000C55 7As00            [12] 3412 	mov	r2,#(_get16 >> 16)
      000C57 12r00r00         [24] 3413 	lcall	__sdcc_banked_call
      000C5A AE 82            [24] 3414 	mov	r6,dpl
      000C5C AF 83            [24] 3415 	mov	r7,dph
      000C5E 15 81            [12] 3416 	dec	sp
      000C60 15 81            [12] 3417 	dec	sp
      000C62 90r00r30         [24] 3418 	mov	dptr,#(_dio + 0x0010)
      000C65 EE               [12] 3419 	mov	a,r6
      000C66 F0               [24] 3420 	movx	@dptr,a
      000C67 EF               [12] 3421 	mov	a,r7
      000C68 A3               [24] 3422 	inc	dptr
      000C69 F0               [24] 3423 	movx	@dptr,a
                                   3424 ;	../../../core/net/rpl/rpl-icmp6.c:374: dio.default_lifetime = buffer[i + 13];
      000C6A E5 81            [12] 3425 	mov	a,sp
      000C6C 24 FD            [12] 3426 	add	a,#0xfd
      000C6E F8               [12] 3427 	mov	r0,a
      000C6F 74 0D            [12] 3428 	mov	a,#0x0d
      000C71 26               [12] 3429 	add	a,@r0
      000C72 FE               [12] 3430 	mov	r6,a
      000C73 E4               [12] 3431 	clr	a
      000C74 08               [12] 3432 	inc	r0
      000C75 36               [12] 3433 	addc	a,@r0
      000C76 FF               [12] 3434 	mov	r7,a
      000C77 E5 81            [12] 3435 	mov	a,sp
      000C79 24 F9            [12] 3436 	add	a,#0xf9
      000C7B F8               [12] 3437 	mov	r0,a
      000C7C EE               [12] 3438 	mov	a,r6
      000C7D 26               [12] 3439 	add	a,@r0
      000C7E FE               [12] 3440 	mov	r6,a
      000C7F EF               [12] 3441 	mov	a,r7
      000C80 08               [12] 3442 	inc	r0
      000C81 36               [12] 3443 	addc	a,@r0
      000C82 FF               [12] 3444 	mov	r7,a
      000C83 08               [12] 3445 	inc	r0
      000C84 86 05            [24] 3446 	mov	ar5,@r0
      000C86 8E 82            [24] 3447 	mov	dpl,r6
      000C88 8F 83            [24] 3448 	mov	dph,r7
      000C8A 8D F0            [24] 3449 	mov	b,r5
      000C8C 12r00r00         [24] 3450 	lcall	__gptrget
      000C8F 90r00r3D         [24] 3451 	mov	dptr,#(_dio + 0x001d)
      000C92 F0               [24] 3452 	movx	@dptr,a
                                   3453 ;	../../../core/net/rpl/rpl-icmp6.c:375: dio.lifetime_unit = get16(buffer, i + 14);
      000C93 E5 81            [12] 3454 	mov	a,sp
      000C95 24 FD            [12] 3455 	add	a,#0xfd
      000C97 F8               [12] 3456 	mov	r0,a
      000C98 74 0E            [12] 3457 	mov	a,#0x0e
      000C9A 26               [12] 3458 	add	a,@r0
      000C9B FE               [12] 3459 	mov	r6,a
      000C9C E4               [12] 3460 	clr	a
      000C9D 08               [12] 3461 	inc	r0
      000C9E 36               [12] 3462 	addc	a,@r0
      000C9F FF               [12] 3463 	mov	r7,a
      000CA0 C0 06            [24] 3464 	push	ar6
      000CA2 C0 07            [24] 3465 	push	ar7
      000CA4 E5 81            [12] 3466 	mov	a,sp
      000CA6 24 F7            [12] 3467 	add	a,#0xf7
      000CA8 F8               [12] 3468 	mov	r0,a
      000CA9 86 82            [24] 3469 	mov	dpl,@r0
      000CAB 08               [12] 3470 	inc	r0
      000CAC 86 83            [24] 3471 	mov	dph,@r0
      000CAE 08               [12] 3472 	inc	r0
      000CAF 86 F0            [24] 3473 	mov	b,@r0
      000CB1 78r1A            [12] 3474 	mov	r0,#_get16
      000CB3 79s03            [12] 3475 	mov	r1,#(_get16 >> 8)
      000CB5 7As00            [12] 3476 	mov	r2,#(_get16 >> 16)
      000CB7 12r00r00         [24] 3477 	lcall	__sdcc_banked_call
      000CBA AE 82            [24] 3478 	mov	r6,dpl
      000CBC AF 83            [24] 3479 	mov	r7,dph
      000CBE 15 81            [12] 3480 	dec	sp
      000CC0 15 81            [12] 3481 	dec	sp
      000CC2 90r00r3E         [24] 3482 	mov	dptr,#(_dio + 0x001e)
      000CC5 EE               [12] 3483 	mov	a,r6
      000CC6 F0               [24] 3484 	movx	@dptr,a
      000CC7 EF               [12] 3485 	mov	a,r7
      000CC8 A3               [24] 3486 	inc	dptr
      000CC9 F0               [24] 3487 	movx	@dptr,a
                                   3488 ;	../../../core/net/rpl/rpl-icmp6.c:380: break;
      000CCA 02r0DrAC         [24] 3489 	ljmp	00137$
                                   3490 ;	../../../core/net/rpl/rpl-icmp6.c:381: case RPL_OPTION_PREFIX_INFO:
      000CCD                       3491 00129$:
                                   3492 ;	../../../core/net/rpl/rpl-icmp6.c:382: if(len != 32) {
      000CCD A8 81            [24] 3493 	mov	r0,sp
      000CCF 18               [12] 3494 	dec	r0
      000CD0 B6 20 06         [24] 3495 	cjne	@r0,#0x20,00231$
      000CD3 08               [12] 3496 	inc	r0
      000CD4 B6 00 02         [24] 3497 	cjne	@r0,#0x00,00231$
      000CD7 80 03            [24] 3498 	sjmp	00131$
      000CD9                       3499 00231$:
                                   3500 ;	../../../core/net/rpl/rpl-icmp6.c:385: return;
      000CD9 02r0DrDF         [24] 3501 	ljmp	00138$
      000CDC                       3502 00131$:
                                   3503 ;	../../../core/net/rpl/rpl-icmp6.c:387: dio.prefix_info.length = buffer[i + 2];
      000CDC E5 81            [12] 3504 	mov	a,sp
      000CDE 24 FD            [12] 3505 	add	a,#0xfd
      000CE0 F8               [12] 3506 	mov	r0,a
      000CE1 74 02            [12] 3507 	mov	a,#0x02
      000CE3 26               [12] 3508 	add	a,@r0
      000CE4 FE               [12] 3509 	mov	r6,a
      000CE5 E4               [12] 3510 	clr	a
      000CE6 08               [12] 3511 	inc	r0
      000CE7 36               [12] 3512 	addc	a,@r0
      000CE8 FF               [12] 3513 	mov	r7,a
      000CE9 E5 81            [12] 3514 	mov	a,sp
      000CEB 24 F9            [12] 3515 	add	a,#0xf9
      000CED F8               [12] 3516 	mov	r0,a
      000CEE EE               [12] 3517 	mov	a,r6
      000CEF 26               [12] 3518 	add	a,@r0
      000CF0 FE               [12] 3519 	mov	r6,a
      000CF1 EF               [12] 3520 	mov	a,r7
      000CF2 08               [12] 3521 	inc	r0
      000CF3 36               [12] 3522 	addc	a,@r0
      000CF4 FF               [12] 3523 	mov	r7,a
      000CF5 08               [12] 3524 	inc	r0
      000CF6 86 05            [24] 3525 	mov	ar5,@r0
      000CF8 8E 82            [24] 3526 	mov	dpl,r6
      000CFA 8F 83            [24] 3527 	mov	dph,r7
      000CFC 8D F0            [24] 3528 	mov	b,r5
      000CFE 12r00r00         [24] 3529 	lcall	__gptrget
      000D01 90r00r6E         [24] 3530 	mov	dptr,#(_dio + 0x004e)
      000D04 F0               [24] 3531 	movx	@dptr,a
                                   3532 ;	../../../core/net/rpl/rpl-icmp6.c:388: dio.prefix_info.flags = buffer[i + 3];
      000D05 E5 81            [12] 3533 	mov	a,sp
      000D07 24 FD            [12] 3534 	add	a,#0xfd
      000D09 F8               [12] 3535 	mov	r0,a
      000D0A 74 03            [12] 3536 	mov	a,#0x03
      000D0C 26               [12] 3537 	add	a,@r0
      000D0D FE               [12] 3538 	mov	r6,a
      000D0E E4               [12] 3539 	clr	a
      000D0F 08               [12] 3540 	inc	r0
      000D10 36               [12] 3541 	addc	a,@r0
      000D11 FF               [12] 3542 	mov	r7,a
      000D12 E5 81            [12] 3543 	mov	a,sp
      000D14 24 F9            [12] 3544 	add	a,#0xf9
      000D16 F8               [12] 3545 	mov	r0,a
      000D17 EE               [12] 3546 	mov	a,r6
      000D18 26               [12] 3547 	add	a,@r0
      000D19 FE               [12] 3548 	mov	r6,a
      000D1A EF               [12] 3549 	mov	a,r7
      000D1B 08               [12] 3550 	inc	r0
      000D1C 36               [12] 3551 	addc	a,@r0
      000D1D FF               [12] 3552 	mov	r7,a
      000D1E 08               [12] 3553 	inc	r0
      000D1F 86 05            [24] 3554 	mov	ar5,@r0
      000D21 8E 82            [24] 3555 	mov	dpl,r6
      000D23 8F 83            [24] 3556 	mov	dph,r7
      000D25 8D F0            [24] 3557 	mov	b,r5
      000D27 12r00r00         [24] 3558 	lcall	__gptrget
      000D2A 90r00r6F         [24] 3559 	mov	dptr,#(_dio + 0x004f)
      000D2D F0               [24] 3560 	movx	@dptr,a
                                   3561 ;	../../../core/net/rpl/rpl-icmp6.c:391: dio.prefix_info.lifetime = get32(buffer, i + 8);
      000D2E E5 81            [12] 3562 	mov	a,sp
      000D30 24 FD            [12] 3563 	add	a,#0xfd
      000D32 F8               [12] 3564 	mov	r0,a
      000D33 74 08            [12] 3565 	mov	a,#0x08
      000D35 26               [12] 3566 	add	a,@r0
      000D36 FE               [12] 3567 	mov	r6,a
      000D37 E4               [12] 3568 	clr	a
      000D38 08               [12] 3569 	inc	r0
      000D39 36               [12] 3570 	addc	a,@r0
      000D3A FF               [12] 3571 	mov	r7,a
      000D3B C0 06            [24] 3572 	push	ar6
      000D3D C0 07            [24] 3573 	push	ar7
      000D3F E5 81            [12] 3574 	mov	a,sp
      000D41 24 F7            [12] 3575 	add	a,#0xf7
      000D43 F8               [12] 3576 	mov	r0,a
      000D44 86 82            [24] 3577 	mov	dpl,@r0
      000D46 08               [12] 3578 	inc	r0
      000D47 86 83            [24] 3579 	mov	dph,@r0
      000D49 08               [12] 3580 	inc	r0
      000D4A 86 F0            [24] 3581 	mov	b,@r0
      000D4C 78r22            [12] 3582 	mov	r0,#_get32
      000D4E 79s01            [12] 3583 	mov	r1,#(_get32 >> 8)
      000D50 7As00            [12] 3584 	mov	r2,#(_get32 >> 16)
      000D52 12r00r00         [24] 3585 	lcall	__sdcc_banked_call
      000D55 AC 82            [24] 3586 	mov	r4,dpl
      000D57 AD 83            [24] 3587 	mov	r5,dph
      000D59 AE F0            [24] 3588 	mov	r6,b
      000D5B FF               [12] 3589 	mov	r7,a
      000D5C 15 81            [12] 3590 	dec	sp
      000D5E 15 81            [12] 3591 	dec	sp
      000D60 90r00r6A         [24] 3592 	mov	dptr,#(_dio + 0x004a)
      000D63 EC               [12] 3593 	mov	a,r4
      000D64 F0               [24] 3594 	movx	@dptr,a
      000D65 ED               [12] 3595 	mov	a,r5
      000D66 A3               [24] 3596 	inc	dptr
      000D67 F0               [24] 3597 	movx	@dptr,a
      000D68 EE               [12] 3598 	mov	a,r6
      000D69 A3               [24] 3599 	inc	dptr
      000D6A F0               [24] 3600 	movx	@dptr,a
      000D6B EF               [12] 3601 	mov	a,r7
      000D6C A3               [24] 3602 	inc	dptr
      000D6D F0               [24] 3603 	movx	@dptr,a
                                   3604 ;	../../../core/net/rpl/rpl-icmp6.c:394: memcpy(&dio.prefix_info.prefix, &buffer[i + 16], 16);
      000D6E E5 81            [12] 3605 	mov	a,sp
      000D70 24 FD            [12] 3606 	add	a,#0xfd
      000D72 F8               [12] 3607 	mov	r0,a
      000D73 74 10            [12] 3608 	mov	a,#0x10
      000D75 26               [12] 3609 	add	a,@r0
      000D76 FE               [12] 3610 	mov	r6,a
      000D77 E4               [12] 3611 	clr	a
      000D78 08               [12] 3612 	inc	r0
      000D79 36               [12] 3613 	addc	a,@r0
      000D7A FF               [12] 3614 	mov	r7,a
      000D7B E5 81            [12] 3615 	mov	a,sp
      000D7D 24 F9            [12] 3616 	add	a,#0xf9
      000D7F F8               [12] 3617 	mov	r0,a
      000D80 EE               [12] 3618 	mov	a,r6
      000D81 26               [12] 3619 	add	a,@r0
      000D82 FE               [12] 3620 	mov	r6,a
      000D83 EF               [12] 3621 	mov	a,r7
      000D84 08               [12] 3622 	inc	r0
      000D85 36               [12] 3623 	addc	a,@r0
      000D86 FF               [12] 3624 	mov	r7,a
      000D87 08               [12] 3625 	inc	r0
      000D88 86 05            [24] 3626 	mov	ar5,@r0
      000D8A 74 10            [12] 3627 	mov	a,#0x10
      000D8C C0 E0            [24] 3628 	push	acc
      000D8E E4               [12] 3629 	clr	a
      000D8F C0 E0            [24] 3630 	push	acc
      000D91 C0 06            [24] 3631 	push	ar6
      000D93 C0 07            [24] 3632 	push	ar7
      000D95 C0 05            [24] 3633 	push	ar5
      000D97 90r00r5A         [24] 3634 	mov	dptr,#(_dio + 0x003a)
      000D9A 75 F0 00         [24] 3635 	mov	b,#0x00
      000D9D 78r00            [12] 3636 	mov	r0,#___memcpy
      000D9F 79s00            [12] 3637 	mov	r1,#(___memcpy >> 8)
      000DA1 7As00            [12] 3638 	mov	r2,#(___memcpy >> 16)
      000DA3 12r00r00         [24] 3639 	lcall	__sdcc_banked_call
      000DA6 E5 81            [12] 3640 	mov	a,sp
      000DA8 24 FB            [12] 3641 	add	a,#0xfb
      000DAA F5 81            [12] 3642 	mov	sp,a
                                   3643 ;	../../../core/net/rpl/rpl-icmp6.c:399: }
      000DAC                       3644 00137$:
                                   3645 ;	../../../core/net/rpl/rpl-icmp6.c:286: for(; i < buffer_length; i += len) {
      000DAC E5 81            [12] 3646 	mov	a,sp
      000DAE 24 FD            [12] 3647 	add	a,#0xfd
      000DB0 F8               [12] 3648 	mov	r0,a
      000DB1 A9 81            [24] 3649 	mov	r1,sp
      000DB3 19               [12] 3650 	dec	r1
      000DB4 E7               [12] 3651 	mov	a,@r1
      000DB5 26               [12] 3652 	add	a,@r0
      000DB6 F6               [12] 3653 	mov	@r0,a
      000DB7 09               [12] 3654 	inc	r1
      000DB8 E7               [12] 3655 	mov	a,@r1
      000DB9 08               [12] 3656 	inc	r0
      000DBA 36               [12] 3657 	addc	a,@r0
      000DBB F6               [12] 3658 	mov	@r0,a
      000DBC 02r07r91         [24] 3659 	ljmp	00136$
      000DBF                       3660 00134$:
                                   3661 ;	../../../core/net/rpl/rpl-icmp6.c:406: rpl_process_dio(&from, &dio);
      000DBF 74r20            [12] 3662 	mov	a,#_dio
      000DC1 C0 E0            [24] 3663 	push	acc
      000DC3 74s00            [12] 3664 	mov	a,#(_dio >> 8)
      000DC5 C0 E0            [24] 3665 	push	acc
      000DC7 E4               [12] 3666 	clr	a
      000DC8 C0 E0            [24] 3667 	push	acc
      000DCA 90r00r77         [24] 3668 	mov	dptr,#_from
      000DCD 75 F0 00         [24] 3669 	mov	b,#0x00
      000DD0 78r00            [12] 3670 	mov	r0,#_rpl_process_dio
      000DD2 79s00            [12] 3671 	mov	r1,#(_rpl_process_dio >> 8)
      000DD4 7As00            [12] 3672 	mov	r2,#(_rpl_process_dio >> 16)
      000DD6 12r00r00         [24] 3673 	lcall	__sdcc_banked_call
      000DD9 15 81            [12] 3674 	dec	sp
      000DDB 15 81            [12] 3675 	dec	sp
      000DDD 15 81            [12] 3676 	dec	sp
      000DDF                       3677 00138$:
                                   3678 ;	../../../core/net/rpl/rpl-icmp6.c:407: }
      000DDF E5 81            [12] 3679 	mov	a,sp
      000DE1 24 F8            [12] 3680 	add	a,#0xf8
      000DE3 F5 81            [12] 3681 	mov	sp,a
      000DE5 02r00r00         [24] 3682 	ljmp	__sdcc_banked_ret
                                   3683 ;------------------------------------------------------------
                                   3684 ;Allocation info for local variables in function 'dio_output'
                                   3685 ;------------------------------------------------------------
                                   3686 ;uc_addr                   Allocated to stack - sp -24
                                   3687 ;instance                  Allocated to stack - sp -18
                                   3688 ;buffer                    Allocated to stack - sp -5
                                   3689 ;dag                       Allocated to stack - sp -2
                                   3690 ;__1310720007              Allocated to registers 
                                   3691 ;sloc0                     Allocated to stack - sp -15
                                   3692 ;sloc1                     Allocated to stack - sp -14
                                   3693 ;sloc2                     Allocated to stack - sp -11
                                   3694 ;sloc3                     Allocated to stack - sp -8
                                   3695 ;pos                       Allocated with name '_dio_output_pos_65536_333'
                                   3696 ;------------------------------------------------------------
                                   3697 ;	../../../core/net/rpl/rpl-icmp6.c:410: dio_output(rpl_instance_t *instance, uip_ipaddr_t *uc_addr)
                                   3698 ;	-----------------------------------------
                                   3699 ;	 function dio_output
                                   3700 ;	-----------------------------------------
      000DE8                       3701 _dio_output:
      000DE8 C0 82            [24] 3702 	push	dpl
      000DEA C0 83            [24] 3703 	push	dph
      000DEC C0 F0            [24] 3704 	push	b
      000DEE E5 81            [12] 3705 	mov	a,sp
      000DF0 24 10            [12] 3706 	add	a,#0x10
                                   3707 ;	../../../core/net/rpl/rpl-icmp6.c:414: rpl_dag_t *dag = instance->current_dag;
      000DF2 F5 81            [12] 3708 	mov	sp,a
      000DF4 24 EE            [12] 3709 	add	a,#0xee
      000DF6 F8               [12] 3710 	mov	r0,a
      000DF7 74 0A            [12] 3711 	mov	a,#0x0a
      000DF9 26               [12] 3712 	add	a,@r0
      000DFA FA               [12] 3713 	mov	r2,a
      000DFB E4               [12] 3714 	clr	a
      000DFC 08               [12] 3715 	inc	r0
      000DFD 36               [12] 3716 	addc	a,@r0
      000DFE FB               [12] 3717 	mov	r3,a
      000DFF 08               [12] 3718 	inc	r0
      000E00 86 04            [24] 3719 	mov	ar4,@r0
      000E02 8A 82            [24] 3720 	mov	dpl,r2
      000E04 8B 83            [24] 3721 	mov	dph,r3
      000E06 8C F0            [24] 3722 	mov	b,r4
      000E08 A8 81            [24] 3723 	mov	r0,sp
      000E0A 18               [12] 3724 	dec	r0
      000E0B 18               [12] 3725 	dec	r0
      000E0C 12r00r00         [24] 3726 	lcall	__gptrget
      000E0F F6               [12] 3727 	mov	@r0,a
      000E10 A3               [24] 3728 	inc	dptr
      000E11 12r00r00         [24] 3729 	lcall	__gptrget
      000E14 08               [12] 3730 	inc	r0
      000E15 F6               [12] 3731 	mov	@r0,a
      000E16 A3               [24] 3732 	inc	dptr
      000E17 12r00r00         [24] 3733 	lcall	__gptrget
      000E1A 08               [12] 3734 	inc	r0
      000E1B F6               [12] 3735 	mov	@r0,a
                                   3736 ;	../../../core/net/rpl/rpl-icmp6.c:427: buffer = UIP_ICMP_PAYLOAD;
      000E1C 90r00r00         [24] 3737 	mov	dptr,#_uip_ext_len
      000E1F E0               [24] 3738 	movx	a,@dptr
      000E20 FC               [12] 3739 	mov	r4,a
      000E21 7B 00            [12] 3740 	mov	r3,#0x00
      000E23 74 2C            [12] 3741 	mov	a,#0x2c
      000E25 2C               [12] 3742 	add	a,r4
      000E26 FC               [12] 3743 	mov	r4,a
      000E27 E4               [12] 3744 	clr	a
      000E28 3B               [12] 3745 	addc	a,r3
      000E29 FB               [12] 3746 	mov	r3,a
      000E2A EC               [12] 3747 	mov	a,r4
      000E2B 24r00            [12] 3748 	add	a,#_uip_aligned_buf
      000E2D FC               [12] 3749 	mov	r4,a
      000E2E EB               [12] 3750 	mov	a,r3
      000E2F 34s00            [12] 3751 	addc	a,#(_uip_aligned_buf >> 8)
      000E31 FB               [12] 3752 	mov	r3,a
      000E32 E5 81            [12] 3753 	mov	a,sp
      000E34 24 FB            [12] 3754 	add	a,#0xfb
      000E36 F8               [12] 3755 	mov	r0,a
      000E37 A6 04            [24] 3756 	mov	@r0,ar4
      000E39 08               [12] 3757 	inc	r0
      000E3A A6 03            [24] 3758 	mov	@r0,ar3
      000E3C 08               [12] 3759 	inc	r0
      000E3D 76 00            [12] 3760 	mov	@r0,#0x00
                                   3761 ;	../../../core/net/rpl/rpl-icmp6.c:428: buffer[pos++] = instance->instance_id;
      000E3F 90r00rA7         [24] 3762 	mov	dptr,#_dio_output_pos_65536_333
      000E42 74 01            [12] 3763 	mov	a,#0x01
      000E44 F0               [24] 3764 	movx	@dptr,a
      000E45 E4               [12] 3765 	clr	a
      000E46 A3               [24] 3766 	inc	dptr
      000E47 F0               [24] 3767 	movx	@dptr,a
      000E48 E5 81            [12] 3768 	mov	a,sp
      000E4A 24 EE            [12] 3769 	add	a,#0xee
      000E4C F8               [12] 3770 	mov	r0,a
      000E4D 74 86            [12] 3771 	mov	a,#0x86
      000E4F 26               [12] 3772 	add	a,@r0
      000E50 FD               [12] 3773 	mov	r5,a
      000E51 E4               [12] 3774 	clr	a
      000E52 08               [12] 3775 	inc	r0
      000E53 36               [12] 3776 	addc	a,@r0
      000E54 FE               [12] 3777 	mov	r6,a
      000E55 08               [12] 3778 	inc	r0
      000E56 86 07            [24] 3779 	mov	ar7,@r0
      000E58 8D 82            [24] 3780 	mov	dpl,r5
      000E5A 8E 83            [24] 3781 	mov	dph,r6
      000E5C 8F F0            [24] 3782 	mov	b,r7
      000E5E 12r00r00         [24] 3783 	lcall	__gptrget
      000E61 FD               [12] 3784 	mov	r5,a
      000E62 E5 81            [12] 3785 	mov	a,sp
      000E64 24 FB            [12] 3786 	add	a,#0xfb
      000E66 F8               [12] 3787 	mov	r0,a
      000E67 86 82            [24] 3788 	mov	dpl,@r0
      000E69 08               [12] 3789 	inc	r0
      000E6A 86 83            [24] 3790 	mov	dph,@r0
      000E6C 08               [12] 3791 	inc	r0
      000E6D 86 F0            [24] 3792 	mov	b,@r0
      000E6F ED               [12] 3793 	mov	a,r5
      000E70 12r00r00         [24] 3794 	lcall	__gptrput
                                   3795 ;	../../../core/net/rpl/rpl-icmp6.c:429: buffer[pos++] = dag->version;
      000E73 90r00rA7         [24] 3796 	mov	dptr,#_dio_output_pos_65536_333
      000E76 E0               [24] 3797 	movx	a,@dptr
      000E77 FE               [12] 3798 	mov	r6,a
      000E78 A3               [24] 3799 	inc	dptr
      000E79 E0               [24] 3800 	movx	a,@dptr
      000E7A FF               [12] 3801 	mov	r7,a
      000E7B 90r00rA7         [24] 3802 	mov	dptr,#_dio_output_pos_65536_333
      000E7E 74 01            [12] 3803 	mov	a,#0x01
      000E80 2E               [12] 3804 	add	a,r6
      000E81 F0               [24] 3805 	movx	@dptr,a
      000E82 E4               [12] 3806 	clr	a
      000E83 3F               [12] 3807 	addc	a,r7
      000E84 A3               [24] 3808 	inc	dptr
      000E85 F0               [24] 3809 	movx	@dptr,a
      000E86 E5 81            [12] 3810 	mov	a,sp
      000E88 24 FB            [12] 3811 	add	a,#0xfb
      000E8A F8               [12] 3812 	mov	r0,a
      000E8B EE               [12] 3813 	mov	a,r6
      000E8C 26               [12] 3814 	add	a,@r0
      000E8D FE               [12] 3815 	mov	r6,a
      000E8E EF               [12] 3816 	mov	a,r7
      000E8F 08               [12] 3817 	inc	r0
      000E90 36               [12] 3818 	addc	a,@r0
      000E91 FF               [12] 3819 	mov	r7,a
      000E92 08               [12] 3820 	inc	r0
      000E93 86 05            [24] 3821 	mov	ar5,@r0
      000E95 A8 81            [24] 3822 	mov	r0,sp
      000E97 18               [12] 3823 	dec	r0
      000E98 18               [12] 3824 	dec	r0
      000E99 74 12            [12] 3825 	mov	a,#0x12
      000E9B 26               [12] 3826 	add	a,@r0
      000E9C FA               [12] 3827 	mov	r2,a
      000E9D E4               [12] 3828 	clr	a
      000E9E 08               [12] 3829 	inc	r0
      000E9F 36               [12] 3830 	addc	a,@r0
      000EA0 FB               [12] 3831 	mov	r3,a
      000EA1 08               [12] 3832 	inc	r0
      000EA2 86 04            [24] 3833 	mov	ar4,@r0
      000EA4 8A 82            [24] 3834 	mov	dpl,r2
      000EA6 8B 83            [24] 3835 	mov	dph,r3
      000EA8 8C F0            [24] 3836 	mov	b,r4
      000EAA 12r00r00         [24] 3837 	lcall	__gptrget
      000EAD 8E 82            [24] 3838 	mov	dpl,r6
      000EAF 8F 83            [24] 3839 	mov	dph,r7
      000EB1 8D F0            [24] 3840 	mov	b,r5
      000EB3 12r00r00         [24] 3841 	lcall	__gptrput
                                   3842 ;	../../../core/net/rpl/rpl-icmp6.c:434: set16(buffer, pos, dag->rank);
      000EB6 A8 81            [24] 3843 	mov	r0,sp
      000EB8 18               [12] 3844 	dec	r0
      000EB9 18               [12] 3845 	dec	r0
      000EBA 74 1A            [12] 3846 	mov	a,#0x1a
      000EBC 26               [12] 3847 	add	a,@r0
      000EBD FD               [12] 3848 	mov	r5,a
      000EBE E4               [12] 3849 	clr	a
      000EBF 08               [12] 3850 	inc	r0
      000EC0 36               [12] 3851 	addc	a,@r0
      000EC1 FE               [12] 3852 	mov	r6,a
      000EC2 08               [12] 3853 	inc	r0
      000EC3 86 07            [24] 3854 	mov	ar7,@r0
      000EC5 8D 82            [24] 3855 	mov	dpl,r5
      000EC7 8E 83            [24] 3856 	mov	dph,r6
      000EC9 8F F0            [24] 3857 	mov	b,r7
      000ECB 12r00r00         [24] 3858 	lcall	__gptrget
      000ECE FD               [12] 3859 	mov	r5,a
      000ECF A3               [24] 3860 	inc	dptr
      000ED0 12r00r00         [24] 3861 	lcall	__gptrget
      000ED3 FE               [12] 3862 	mov	r6,a
      000ED4 C0 05            [24] 3863 	push	ar5
      000ED6 C0 06            [24] 3864 	push	ar6
      000ED8 90r00rA7         [24] 3865 	mov	dptr,#_dio_output_pos_65536_333
      000EDB E0               [24] 3866 	movx	a,@dptr
      000EDC C0 E0            [24] 3867 	push	acc
      000EDE A3               [24] 3868 	inc	dptr
      000EDF E0               [24] 3869 	movx	a,@dptr
      000EE0 C0 E0            [24] 3870 	push	acc
      000EE2 E5 81            [12] 3871 	mov	a,sp
      000EE4 24 F7            [12] 3872 	add	a,#0xf7
      000EE6 F8               [12] 3873 	mov	r0,a
      000EE7 86 82            [24] 3874 	mov	dpl,@r0
      000EE9 08               [12] 3875 	inc	r0
      000EEA 86 83            [24] 3876 	mov	dph,@r0
      000EEC 08               [12] 3877 	inc	r0
      000EED 86 F0            [24] 3878 	mov	b,@r0
      000EEF 78r79            [12] 3879 	mov	r0,#_set16
      000EF1 79s03            [12] 3880 	mov	r1,#(_set16 >> 8)
      000EF3 7As00            [12] 3881 	mov	r2,#(_set16 >> 16)
      000EF5 12r00r00         [24] 3882 	lcall	__sdcc_banked_call
      000EF8 E5 81            [12] 3883 	mov	a,sp
      000EFA 24 FC            [12] 3884 	add	a,#0xfc
      000EFC F5 81            [12] 3885 	mov	sp,a
                                   3886 ;	../../../core/net/rpl/rpl-icmp6.c:436: pos += 2;
      000EFE 90r00rA7         [24] 3887 	mov	dptr,#_dio_output_pos_65536_333
      000F01 E0               [24] 3888 	movx	a,@dptr
      000F02 FE               [12] 3889 	mov	r6,a
      000F03 A3               [24] 3890 	inc	dptr
      000F04 E0               [24] 3891 	movx	a,@dptr
      000F05 FF               [12] 3892 	mov	r7,a
      000F06 90r00rA7         [24] 3893 	mov	dptr,#_dio_output_pos_65536_333
      000F09 74 02            [12] 3894 	mov	a,#0x02
      000F0B 2E               [12] 3895 	add	a,r6
      000F0C F0               [24] 3896 	movx	@dptr,a
      000F0D E4               [12] 3897 	clr	a
      000F0E 3F               [12] 3898 	addc	a,r7
      000F0F A3               [24] 3899 	inc	dptr
      000F10 F0               [24] 3900 	movx	@dptr,a
                                   3901 ;	../../../core/net/rpl/rpl-icmp6.c:438: buffer[pos] = 0;
      000F11 90r00rA7         [24] 3902 	mov	dptr,#_dio_output_pos_65536_333
      000F14 E0               [24] 3903 	movx	a,@dptr
      000F15 FE               [12] 3904 	mov	r6,a
      000F16 A3               [24] 3905 	inc	dptr
      000F17 E0               [24] 3906 	movx	a,@dptr
      000F18 FF               [12] 3907 	mov	r7,a
      000F19 E5 81            [12] 3908 	mov	a,sp
      000F1B 24 FB            [12] 3909 	add	a,#0xfb
      000F1D F8               [12] 3910 	mov	r0,a
      000F1E EE               [12] 3911 	mov	a,r6
      000F1F 26               [12] 3912 	add	a,@r0
      000F20 FE               [12] 3913 	mov	r6,a
      000F21 EF               [12] 3914 	mov	a,r7
      000F22 08               [12] 3915 	inc	r0
      000F23 36               [12] 3916 	addc	a,@r0
      000F24 FF               [12] 3917 	mov	r7,a
      000F25 08               [12] 3918 	inc	r0
      000F26 86 05            [24] 3919 	mov	ar5,@r0
      000F28 8E 82            [24] 3920 	mov	dpl,r6
      000F2A 8F 83            [24] 3921 	mov	dph,r7
      000F2C 8D F0            [24] 3922 	mov	b,r5
      000F2E E4               [12] 3923 	clr	a
      000F2F 12r00r00         [24] 3924 	lcall	__gptrput
                                   3925 ;	../../../core/net/rpl/rpl-icmp6.c:439: if(dag->grounded) {
      000F32 A8 81            [24] 3926 	mov	r0,sp
      000F34 18               [12] 3927 	dec	r0
      000F35 18               [12] 3928 	dec	r0
      000F36 74 13            [12] 3929 	mov	a,#0x13
      000F38 26               [12] 3930 	add	a,@r0
      000F39 FD               [12] 3931 	mov	r5,a
      000F3A E4               [12] 3932 	clr	a
      000F3B 08               [12] 3933 	inc	r0
      000F3C 36               [12] 3934 	addc	a,@r0
      000F3D FE               [12] 3935 	mov	r6,a
      000F3E 08               [12] 3936 	inc	r0
      000F3F 86 07            [24] 3937 	mov	ar7,@r0
      000F41 8D 82            [24] 3938 	mov	dpl,r5
      000F43 8E 83            [24] 3939 	mov	dph,r6
      000F45 8F F0            [24] 3940 	mov	b,r7
      000F47 12r00r00         [24] 3941 	lcall	__gptrget
      000F4A 60 2E            [24] 3942 	jz	00102$
                                   3943 ;	../../../core/net/rpl/rpl-icmp6.c:440: buffer[pos] |= RPL_DIO_GROUNDED;
      000F4C 90r00rA7         [24] 3944 	mov	dptr,#_dio_output_pos_65536_333
      000F4F E0               [24] 3945 	movx	a,@dptr
      000F50 FE               [12] 3946 	mov	r6,a
      000F51 A3               [24] 3947 	inc	dptr
      000F52 E0               [24] 3948 	movx	a,@dptr
      000F53 FF               [12] 3949 	mov	r7,a
      000F54 E5 81            [12] 3950 	mov	a,sp
      000F56 24 FB            [12] 3951 	add	a,#0xfb
      000F58 F8               [12] 3952 	mov	r0,a
      000F59 EE               [12] 3953 	mov	a,r6
      000F5A 26               [12] 3954 	add	a,@r0
      000F5B FE               [12] 3955 	mov	r6,a
      000F5C EF               [12] 3956 	mov	a,r7
      000F5D 08               [12] 3957 	inc	r0
      000F5E 36               [12] 3958 	addc	a,@r0
      000F5F FF               [12] 3959 	mov	r7,a
      000F60 08               [12] 3960 	inc	r0
      000F61 86 05            [24] 3961 	mov	ar5,@r0
      000F63 8E 82            [24] 3962 	mov	dpl,r6
      000F65 8F 83            [24] 3963 	mov	dph,r7
      000F67 8D F0            [24] 3964 	mov	b,r5
      000F69 12r00r00         [24] 3965 	lcall	__gptrget
      000F6C FC               [12] 3966 	mov	r4,a
      000F6D 43 04 80         [24] 3967 	orl	ar4,#0x80
      000F70 8E 82            [24] 3968 	mov	dpl,r6
      000F72 8F 83            [24] 3969 	mov	dph,r7
      000F74 8D F0            [24] 3970 	mov	b,r5
      000F76 EC               [12] 3971 	mov	a,r4
      000F77 12r00r00         [24] 3972 	lcall	__gptrput
      000F7A                       3973 00102$:
                                   3974 ;	../../../core/net/rpl/rpl-icmp6.c:443: buffer[pos] |= instance->mop << RPL_DIO_MOP_SHIFT;
      000F7A 90r00rA7         [24] 3975 	mov	dptr,#_dio_output_pos_65536_333
      000F7D E0               [24] 3976 	movx	a,@dptr
      000F7E FE               [12] 3977 	mov	r6,a
      000F7F A3               [24] 3978 	inc	dptr
      000F80 E0               [24] 3979 	movx	a,@dptr
      000F81 FF               [12] 3980 	mov	r7,a
      000F82 E5 81            [12] 3981 	mov	a,sp
      000F84 24 FB            [12] 3982 	add	a,#0xfb
      000F86 F8               [12] 3983 	mov	r0,a
      000F87 EE               [12] 3984 	mov	a,r6
      000F88 26               [12] 3985 	add	a,@r0
      000F89 FE               [12] 3986 	mov	r6,a
      000F8A EF               [12] 3987 	mov	a,r7
      000F8B 08               [12] 3988 	inc	r0
      000F8C 36               [12] 3989 	addc	a,@r0
      000F8D FF               [12] 3990 	mov	r7,a
      000F8E 08               [12] 3991 	inc	r0
      000F8F 86 05            [24] 3992 	mov	ar5,@r0
      000F91 8E 82            [24] 3993 	mov	dpl,r6
      000F93 8F 83            [24] 3994 	mov	dph,r7
      000F95 8D F0            [24] 3995 	mov	b,r5
      000F97 E5 81            [12] 3996 	mov	a,sp
      000F99 24 F1            [12] 3997 	add	a,#0xf1
      000F9B F8               [12] 3998 	mov	r0,a
      000F9C 12r00r00         [24] 3999 	lcall	__gptrget
      000F9F F6               [12] 4000 	mov	@r0,a
      000FA0 E5 81            [12] 4001 	mov	a,sp
      000FA2 24 EE            [12] 4002 	add	a,#0xee
      000FA4 F8               [12] 4003 	mov	r0,a
      000FA5 74 89            [12] 4004 	mov	a,#0x89
      000FA7 26               [12] 4005 	add	a,@r0
      000FA8 FA               [12] 4006 	mov	r2,a
      000FA9 E4               [12] 4007 	clr	a
      000FAA 08               [12] 4008 	inc	r0
      000FAB 36               [12] 4009 	addc	a,@r0
      000FAC FB               [12] 4010 	mov	r3,a
      000FAD 08               [12] 4011 	inc	r0
      000FAE 86 04            [24] 4012 	mov	ar4,@r0
      000FB0 8A 82            [24] 4013 	mov	dpl,r2
      000FB2 8B 83            [24] 4014 	mov	dph,r3
      000FB4 8C F0            [24] 4015 	mov	b,r4
      000FB6 12r00r00         [24] 4016 	lcall	__gptrget
      000FB9 C4               [12] 4017 	swap	a
      000FBA 03               [12] 4018 	rr	a
      000FBB 54 F8            [12] 4019 	anl	a,#0xf8
      000FBD FA               [12] 4020 	mov	r2,a
      000FBE E5 81            [12] 4021 	mov	a,sp
      000FC0 24 F1            [12] 4022 	add	a,#0xf1
      000FC2 F8               [12] 4023 	mov	r0,a
      000FC3 E6               [12] 4024 	mov	a,@r0
      000FC4 42 02            [12] 4025 	orl	ar2,a
      000FC6 8E 82            [24] 4026 	mov	dpl,r6
      000FC8 8F 83            [24] 4027 	mov	dph,r7
      000FCA 8D F0            [24] 4028 	mov	b,r5
      000FCC EA               [12] 4029 	mov	a,r2
      000FCD 12r00r00         [24] 4030 	lcall	__gptrput
                                   4031 ;	../../../core/net/rpl/rpl-icmp6.c:444: buffer[pos] |= dag->preference & RPL_DIO_PREFERENCE_MASK;
      000FD0 90r00rA7         [24] 4032 	mov	dptr,#_dio_output_pos_65536_333
      000FD3 E0               [24] 4033 	movx	a,@dptr
      000FD4 FE               [12] 4034 	mov	r6,a
      000FD5 A3               [24] 4035 	inc	dptr
      000FD6 E0               [24] 4036 	movx	a,@dptr
      000FD7 FF               [12] 4037 	mov	r7,a
      000FD8 E5 81            [12] 4038 	mov	a,sp
      000FDA 24 FB            [12] 4039 	add	a,#0xfb
      000FDC F8               [12] 4040 	mov	r0,a
      000FDD EE               [12] 4041 	mov	a,r6
      000FDE 26               [12] 4042 	add	a,@r0
      000FDF FE               [12] 4043 	mov	r6,a
      000FE0 EF               [12] 4044 	mov	a,r7
      000FE1 08               [12] 4045 	inc	r0
      000FE2 36               [12] 4046 	addc	a,@r0
      000FE3 FF               [12] 4047 	mov	r7,a
      000FE4 08               [12] 4048 	inc	r0
      000FE5 86 05            [24] 4049 	mov	ar5,@r0
      000FE7 8E 82            [24] 4050 	mov	dpl,r6
      000FE9 8F 83            [24] 4051 	mov	dph,r7
      000FEB 8D F0            [24] 4052 	mov	b,r5
      000FED E5 81            [12] 4053 	mov	a,sp
      000FEF 24 F1            [12] 4054 	add	a,#0xf1
      000FF1 F8               [12] 4055 	mov	r0,a
      000FF2 12r00r00         [24] 4056 	lcall	__gptrget
      000FF5 F6               [12] 4057 	mov	@r0,a
      000FF6 A8 81            [24] 4058 	mov	r0,sp
      000FF8 18               [12] 4059 	dec	r0
      000FF9 18               [12] 4060 	dec	r0
      000FFA 74 14            [12] 4061 	mov	a,#0x14
      000FFC 26               [12] 4062 	add	a,@r0
      000FFD FA               [12] 4063 	mov	r2,a
      000FFE E4               [12] 4064 	clr	a
      000FFF 08               [12] 4065 	inc	r0
      001000 36               [12] 4066 	addc	a,@r0
      001001 FB               [12] 4067 	mov	r3,a
      001002 08               [12] 4068 	inc	r0
      001003 86 04            [24] 4069 	mov	ar4,@r0
      001005 8A 82            [24] 4070 	mov	dpl,r2
      001007 8B 83            [24] 4071 	mov	dph,r3
      001009 8C F0            [24] 4072 	mov	b,r4
      00100B 12r00r00         [24] 4073 	lcall	__gptrget
      00100E FA               [12] 4074 	mov	r2,a
      00100F 53 02 07         [24] 4075 	anl	ar2,#0x07
      001012 E5 81            [12] 4076 	mov	a,sp
      001014 24 F1            [12] 4077 	add	a,#0xf1
      001016 F8               [12] 4078 	mov	r0,a
      001017 E6               [12] 4079 	mov	a,@r0
      001018 42 02            [12] 4080 	orl	ar2,a
      00101A 8E 82            [24] 4081 	mov	dpl,r6
      00101C 8F 83            [24] 4082 	mov	dph,r7
      00101E 8D F0            [24] 4083 	mov	b,r5
      001020 EA               [12] 4084 	mov	a,r2
      001021 12r00r00         [24] 4085 	lcall	__gptrput
                                   4086 ;	../../../core/net/rpl/rpl-icmp6.c:445: pos++;
      001024 90r00rA7         [24] 4087 	mov	dptr,#_dio_output_pos_65536_333
      001027 E0               [24] 4088 	movx	a,@dptr
      001028 24 01            [12] 4089 	add	a,#0x01
      00102A F0               [24] 4090 	movx	@dptr,a
      00102B A3               [24] 4091 	inc	dptr
      00102C E0               [24] 4092 	movx	a,@dptr
      00102D 34 00            [12] 4093 	addc	a,#0x00
      00102F F0               [24] 4094 	movx	@dptr,a
                                   4095 ;	../../../core/net/rpl/rpl-icmp6.c:447: buffer[pos++] = instance->dtsn_out;
      001030 90r00rA7         [24] 4096 	mov	dptr,#_dio_output_pos_65536_333
      001033 E0               [24] 4097 	movx	a,@dptr
      001034 FE               [12] 4098 	mov	r6,a
      001035 A3               [24] 4099 	inc	dptr
      001036 E0               [24] 4100 	movx	a,@dptr
      001037 FF               [12] 4101 	mov	r7,a
      001038 90r00rA7         [24] 4102 	mov	dptr,#_dio_output_pos_65536_333
      00103B 74 01            [12] 4103 	mov	a,#0x01
      00103D 2E               [12] 4104 	add	a,r6
      00103E F0               [24] 4105 	movx	@dptr,a
      00103F E4               [12] 4106 	clr	a
      001040 3F               [12] 4107 	addc	a,r7
      001041 A3               [24] 4108 	inc	dptr
      001042 F0               [24] 4109 	movx	@dptr,a
      001043 E5 81            [12] 4110 	mov	a,sp
      001045 24 FB            [12] 4111 	add	a,#0xfb
      001047 F8               [12] 4112 	mov	r0,a
      001048 E5 81            [12] 4113 	mov	a,sp
      00104A 24 F2            [12] 4114 	add	a,#0xf2
      00104C F9               [12] 4115 	mov	r1,a
      00104D EE               [12] 4116 	mov	a,r6
      00104E 26               [12] 4117 	add	a,@r0
      00104F F7               [12] 4118 	mov	@r1,a
      001050 EF               [12] 4119 	mov	a,r7
      001051 08               [12] 4120 	inc	r0
      001052 36               [12] 4121 	addc	a,@r0
      001053 09               [12] 4122 	inc	r1
      001054 F7               [12] 4123 	mov	@r1,a
      001055 08               [12] 4124 	inc	r0
      001056 09               [12] 4125 	inc	r1
      001057 E6               [12] 4126 	mov	a,@r0
      001058 F7               [12] 4127 	mov	@r1,a
      001059 E5 81            [12] 4128 	mov	a,sp
      00105B 24 EE            [12] 4129 	add	a,#0xee
      00105D F8               [12] 4130 	mov	r0,a
      00105E 74 88            [12] 4131 	mov	a,#0x88
      001060 26               [12] 4132 	add	a,@r0
      001061 FA               [12] 4133 	mov	r2,a
      001062 E4               [12] 4134 	clr	a
      001063 08               [12] 4135 	inc	r0
      001064 36               [12] 4136 	addc	a,@r0
      001065 FB               [12] 4137 	mov	r3,a
      001066 08               [12] 4138 	inc	r0
      001067 86 04            [24] 4139 	mov	ar4,@r0
      001069 8A 82            [24] 4140 	mov	dpl,r2
      00106B 8B 83            [24] 4141 	mov	dph,r3
      00106D 8C F0            [24] 4142 	mov	b,r4
      00106F 12r00r00         [24] 4143 	lcall	__gptrget
      001072 FF               [12] 4144 	mov	r7,a
      001073 E5 81            [12] 4145 	mov	a,sp
      001075 24 F2            [12] 4146 	add	a,#0xf2
      001077 F8               [12] 4147 	mov	r0,a
      001078 86 82            [24] 4148 	mov	dpl,@r0
      00107A 08               [12] 4149 	inc	r0
      00107B 86 83            [24] 4150 	mov	dph,@r0
      00107D 08               [12] 4151 	inc	r0
      00107E 86 F0            [24] 4152 	mov	b,@r0
      001080 EF               [12] 4153 	mov	a,r7
      001081 12r00r00         [24] 4154 	lcall	__gptrput
                                   4155 ;	../../../core/net/rpl/rpl-icmp6.c:450: RPL_LOLLIPOP_INCREMENT(instance->dtsn_out);
      001084 8A 82            [24] 4156 	mov	dpl,r2
      001086 8B 83            [24] 4157 	mov	dph,r3
      001088 8C F0            [24] 4158 	mov	b,r4
      00108A 12r00r00         [24] 4159 	lcall	__gptrget
      00108D FF               [12] 4160 	mov  r7,a
      00108E 24 80            [12] 4161 	add	a,#0xff - 0x7f
      001090 50 0E            [24] 4162 	jnc	00121$
      001092 EF               [12] 4163 	mov	a,r7
      001093 04               [12] 4164 	inc	a
      001094 FE               [12] 4165 	mov	r6,a
      001095 8A 82            [24] 4166 	mov	dpl,r2
      001097 8B 83            [24] 4167 	mov	dph,r3
      001099 8C F0            [24] 4168 	mov	b,r4
      00109B 12r00r00         [24] 4169 	lcall	__gptrput
      00109E 80 0B            [24] 4170 	sjmp	00122$
      0010A0                       4171 00121$:
      0010A0 0F               [12] 4172 	inc	r7
      0010A1 8A 82            [24] 4173 	mov	dpl,r2
      0010A3 8B 83            [24] 4174 	mov	dph,r3
      0010A5 8C F0            [24] 4175 	mov	b,r4
      0010A7 EF               [12] 4176 	mov	a,r7
      0010A8 12r00r00         [24] 4177 	lcall	__gptrput
      0010AB                       4178 00122$:
                                   4179 ;	../../../core/net/rpl/rpl-icmp6.c:453: buffer[pos++] = 0; /* flags */
      0010AB 90r00rA7         [24] 4180 	mov	dptr,#_dio_output_pos_65536_333
      0010AE E0               [24] 4181 	movx	a,@dptr
      0010AF FE               [12] 4182 	mov	r6,a
      0010B0 A3               [24] 4183 	inc	dptr
      0010B1 E0               [24] 4184 	movx	a,@dptr
      0010B2 FF               [12] 4185 	mov	r7,a
      0010B3 90r00rA7         [24] 4186 	mov	dptr,#_dio_output_pos_65536_333
      0010B6 74 01            [12] 4187 	mov	a,#0x01
      0010B8 2E               [12] 4188 	add	a,r6
      0010B9 F0               [24] 4189 	movx	@dptr,a
      0010BA E4               [12] 4190 	clr	a
      0010BB 3F               [12] 4191 	addc	a,r7
      0010BC A3               [24] 4192 	inc	dptr
      0010BD F0               [24] 4193 	movx	@dptr,a
      0010BE E5 81            [12] 4194 	mov	a,sp
      0010C0 24 FB            [12] 4195 	add	a,#0xfb
      0010C2 F8               [12] 4196 	mov	r0,a
      0010C3 EE               [12] 4197 	mov	a,r6
      0010C4 26               [12] 4198 	add	a,@r0
      0010C5 FE               [12] 4199 	mov	r6,a
      0010C6 EF               [12] 4200 	mov	a,r7
      0010C7 08               [12] 4201 	inc	r0
      0010C8 36               [12] 4202 	addc	a,@r0
      0010C9 FF               [12] 4203 	mov	r7,a
      0010CA 08               [12] 4204 	inc	r0
      0010CB 86 05            [24] 4205 	mov	ar5,@r0
      0010CD 8E 82            [24] 4206 	mov	dpl,r6
      0010CF 8F 83            [24] 4207 	mov	dph,r7
      0010D1 8D F0            [24] 4208 	mov	b,r5
      0010D3 E4               [12] 4209 	clr	a
      0010D4 12r00r00         [24] 4210 	lcall	__gptrput
                                   4211 ;	../../../core/net/rpl/rpl-icmp6.c:454: buffer[pos++] = 0; /* reserved */
      0010D7 90r00rA7         [24] 4212 	mov	dptr,#_dio_output_pos_65536_333
      0010DA E0               [24] 4213 	movx	a,@dptr
      0010DB FE               [12] 4214 	mov	r6,a
      0010DC A3               [24] 4215 	inc	dptr
      0010DD E0               [24] 4216 	movx	a,@dptr
      0010DE FF               [12] 4217 	mov	r7,a
      0010DF 90r00rA7         [24] 4218 	mov	dptr,#_dio_output_pos_65536_333
      0010E2 74 01            [12] 4219 	mov	a,#0x01
      0010E4 2E               [12] 4220 	add	a,r6
      0010E5 F0               [24] 4221 	movx	@dptr,a
      0010E6 E4               [12] 4222 	clr	a
      0010E7 3F               [12] 4223 	addc	a,r7
      0010E8 A3               [24] 4224 	inc	dptr
      0010E9 F0               [24] 4225 	movx	@dptr,a
      0010EA E5 81            [12] 4226 	mov	a,sp
      0010EC 24 FB            [12] 4227 	add	a,#0xfb
      0010EE F8               [12] 4228 	mov	r0,a
      0010EF EE               [12] 4229 	mov	a,r6
      0010F0 26               [12] 4230 	add	a,@r0
      0010F1 FE               [12] 4231 	mov	r6,a
      0010F2 EF               [12] 4232 	mov	a,r7
      0010F3 08               [12] 4233 	inc	r0
      0010F4 36               [12] 4234 	addc	a,@r0
      0010F5 FF               [12] 4235 	mov	r7,a
      0010F6 08               [12] 4236 	inc	r0
      0010F7 86 05            [24] 4237 	mov	ar5,@r0
      0010F9 8E 82            [24] 4238 	mov	dpl,r6
      0010FB 8F 83            [24] 4239 	mov	dph,r7
      0010FD 8D F0            [24] 4240 	mov	b,r5
      0010FF E4               [12] 4241 	clr	a
      001100 12r00r00         [24] 4242 	lcall	__gptrput
                                   4243 ;	../../../core/net/rpl/rpl-icmp6.c:456: memcpy(buffer + pos, &dag->dag_id, sizeof(dag->dag_id));
      001103 A8 81            [24] 4244 	mov	r0,sp
      001105 18               [12] 4245 	dec	r0
      001106 18               [12] 4246 	dec	r0
      001107 86 05            [24] 4247 	mov	ar5,@r0
      001109 08               [12] 4248 	inc	r0
      00110A 86 06            [24] 4249 	mov	ar6,@r0
      00110C 08               [12] 4250 	inc	r0
      00110D 86 07            [24] 4251 	mov	ar7,@r0
      00110F 90r00rA7         [24] 4252 	mov	dptr,#_dio_output_pos_65536_333
      001112 E0               [24] 4253 	movx	a,@dptr
      001113 FB               [12] 4254 	mov	r3,a
      001114 A3               [24] 4255 	inc	dptr
      001115 E0               [24] 4256 	movx	a,@dptr
      001116 FC               [12] 4257 	mov	r4,a
      001117 E5 81            [12] 4258 	mov	a,sp
      001119 24 FB            [12] 4259 	add	a,#0xfb
      00111B F8               [12] 4260 	mov	r0,a
      00111C EB               [12] 4261 	mov	a,r3
      00111D 26               [12] 4262 	add	a,@r0
      00111E FB               [12] 4263 	mov	r3,a
      00111F EC               [12] 4264 	mov	a,r4
      001120 08               [12] 4265 	inc	r0
      001121 36               [12] 4266 	addc	a,@r0
      001122 FC               [12] 4267 	mov	r4,a
      001123 08               [12] 4268 	inc	r0
      001124 86 02            [24] 4269 	mov	ar2,@r0
      001126 74 10            [12] 4270 	mov	a,#0x10
      001128 C0 E0            [24] 4271 	push	acc
      00112A E4               [12] 4272 	clr	a
      00112B C0 E0            [24] 4273 	push	acc
      00112D C0 05            [24] 4274 	push	ar5
      00112F C0 06            [24] 4275 	push	ar6
      001131 C0 07            [24] 4276 	push	ar7
      001133 8B 82            [24] 4277 	mov	dpl,r3
      001135 8C 83            [24] 4278 	mov	dph,r4
      001137 8A F0            [24] 4279 	mov	b,r2
      001139 78r00            [12] 4280 	mov	r0,#___memcpy
      00113B 79s00            [12] 4281 	mov	r1,#(___memcpy >> 8)
      00113D 7As00            [12] 4282 	mov	r2,#(___memcpy >> 16)
      00113F 12r00r00         [24] 4283 	lcall	__sdcc_banked_call
      001142 E5 81            [12] 4284 	mov	a,sp
      001144 24 FB            [12] 4285 	add	a,#0xfb
      001146 F5 81            [12] 4286 	mov	sp,a
                                   4287 ;	../../../core/net/rpl/rpl-icmp6.c:457: pos += 16;
      001148 90r00rA7         [24] 4288 	mov	dptr,#_dio_output_pos_65536_333
      00114B E0               [24] 4289 	movx	a,@dptr
      00114C FE               [12] 4290 	mov	r6,a
      00114D A3               [24] 4291 	inc	dptr
      00114E E0               [24] 4292 	movx	a,@dptr
      00114F FF               [12] 4293 	mov	r7,a
      001150 90r00rA7         [24] 4294 	mov	dptr,#_dio_output_pos_65536_333
      001153 74 10            [12] 4295 	mov	a,#0x10
      001155 2E               [12] 4296 	add	a,r6
      001156 F0               [24] 4297 	movx	@dptr,a
      001157 E4               [12] 4298 	clr	a
      001158 3F               [12] 4299 	addc	a,r7
      001159 A3               [24] 4300 	inc	dptr
      00115A F0               [24] 4301 	movx	@dptr,a
                                   4302 ;	../../../core/net/rpl/rpl-icmp6.c:460: if(instance->mc.type != RPL_DAG_MC_NONE) {
      00115B E5 81            [12] 4303 	mov	a,sp
      00115D 24 EE            [12] 4304 	add	a,#0xee
      00115F F8               [12] 4305 	mov	r0,a
      001160 86 82            [24] 4306 	mov	dpl,@r0
      001162 08               [12] 4307 	inc	r0
      001163 86 83            [24] 4308 	mov	dph,@r0
      001165 08               [12] 4309 	inc	r0
      001166 86 F0            [24] 4310 	mov	b,@r0
      001168 12r00r00         [24] 4311 	lcall	__gptrget
      00116B 70 03            [24] 4312 	jnz	00153$
      00116D 02r14rE1         [24] 4313 	ljmp	00110$
      001170                       4314 00153$:
                                   4315 ;	../../../core/net/rpl/rpl-icmp6.c:461: instance->of->update_metric_container(instance);
      001170 E5 81            [12] 4316 	mov	a,sp
      001172 24 EE            [12] 4317 	add	a,#0xee
      001174 F8               [12] 4318 	mov	r0,a
      001175 74 07            [12] 4319 	mov	a,#0x07
      001177 26               [12] 4320 	add	a,@r0
      001178 FD               [12] 4321 	mov	r5,a
      001179 E4               [12] 4322 	clr	a
      00117A 08               [12] 4323 	inc	r0
      00117B 36               [12] 4324 	addc	a,@r0
      00117C FE               [12] 4325 	mov	r6,a
      00117D 08               [12] 4326 	inc	r0
      00117E 86 07            [24] 4327 	mov	ar7,@r0
      001180 8D 82            [24] 4328 	mov	dpl,r5
      001182 8E 83            [24] 4329 	mov	dph,r6
      001184 8F F0            [24] 4330 	mov	b,r7
      001186 12r00r00         [24] 4331 	lcall	__gptrget
      001189 FD               [12] 4332 	mov	r5,a
      00118A A3               [24] 4333 	inc	dptr
      00118B 12r00r00         [24] 4334 	lcall	__gptrget
      00118E FE               [12] 4335 	mov	r6,a
      00118F A3               [24] 4336 	inc	dptr
      001190 12r00r00         [24] 4337 	lcall	__gptrget
      001193 FF               [12] 4338 	mov	r7,a
      001194 74 0F            [12] 4339 	mov	a,#0x0f
      001196 2D               [12] 4340 	add	a,r5
      001197 FD               [12] 4341 	mov	r5,a
      001198 E4               [12] 4342 	clr	a
      001199 3E               [12] 4343 	addc	a,r6
      00119A FE               [12] 4344 	mov	r6,a
      00119B 8D 82            [24] 4345 	mov	dpl,r5
      00119D 8E 83            [24] 4346 	mov	dph,r6
      00119F 8F F0            [24] 4347 	mov	b,r7
      0011A1 12r00r00         [24] 4348 	lcall	__gptrget
      0011A4 FD               [12] 4349 	mov	r5,a
      0011A5 A3               [24] 4350 	inc	dptr
      0011A6 12r00r00         [24] 4351 	lcall	__gptrget
      0011A9 FE               [12] 4352 	mov	r6,a
      0011AA A3               [24] 4353 	inc	dptr
      0011AB 12r00r00         [24] 4354 	lcall	__gptrget
      0011AE FF               [12] 4355 	mov	r7,a
      0011AF C0 07            [24] 4356 	push	ar7
      0011B1 C0 06            [24] 4357 	push	ar6
      0011B3 C0 05            [24] 4358 	push	ar5
      0011B5 C0 05            [24] 4359 	push	ar5
      0011B7 C0 06            [24] 4360 	push	ar6
      0011B9 C0 07            [24] 4361 	push	ar7
      0011BB E5 81            [12] 4362 	mov	a,sp
      0011BD 24 E8            [12] 4363 	add	a,#0xe8
      0011BF F8               [12] 4364 	mov	r0,a
      0011C0 86 82            [24] 4365 	mov	dpl,@r0
      0011C2 08               [12] 4366 	inc	r0
      0011C3 86 83            [24] 4367 	mov	dph,@r0
      0011C5 08               [12] 4368 	inc	r0
      0011C6 86 F0            [24] 4369 	mov	b,@r0
      0011C8 D0 02            [24] 4370 	pop	ar2
      0011CA D0 01            [24] 4371 	pop	ar1
      0011CC D0 00            [24] 4372 	pop	ar0
      0011CE 12r00r00         [24] 4373 	lcall	__sdcc_banked_call
      0011D1 D0 05            [24] 4374 	pop	ar5
      0011D3 D0 06            [24] 4375 	pop	ar6
      0011D5 D0 07            [24] 4376 	pop	ar7
                                   4377 ;	../../../core/net/rpl/rpl-icmp6.c:463: buffer[pos++] = RPL_OPTION_DAG_METRIC_CONTAINER;
      0011D7 90r00rA7         [24] 4378 	mov	dptr,#_dio_output_pos_65536_333
      0011DA E0               [24] 4379 	movx	a,@dptr
      0011DB FE               [12] 4380 	mov	r6,a
      0011DC A3               [24] 4381 	inc	dptr
      0011DD E0               [24] 4382 	movx	a,@dptr
      0011DE FF               [12] 4383 	mov	r7,a
      0011DF 90r00rA7         [24] 4384 	mov	dptr,#_dio_output_pos_65536_333
      0011E2 74 01            [12] 4385 	mov	a,#0x01
      0011E4 2E               [12] 4386 	add	a,r6
      0011E5 F0               [24] 4387 	movx	@dptr,a
      0011E6 E4               [12] 4388 	clr	a
      0011E7 3F               [12] 4389 	addc	a,r7
      0011E8 A3               [24] 4390 	inc	dptr
      0011E9 F0               [24] 4391 	movx	@dptr,a
      0011EA E5 81            [12] 4392 	mov	a,sp
      0011EC 24 FB            [12] 4393 	add	a,#0xfb
      0011EE F8               [12] 4394 	mov	r0,a
      0011EF EE               [12] 4395 	mov	a,r6
      0011F0 26               [12] 4396 	add	a,@r0
      0011F1 FE               [12] 4397 	mov	r6,a
      0011F2 EF               [12] 4398 	mov	a,r7
      0011F3 08               [12] 4399 	inc	r0
      0011F4 36               [12] 4400 	addc	a,@r0
      0011F5 FF               [12] 4401 	mov	r7,a
      0011F6 08               [12] 4402 	inc	r0
      0011F7 86 05            [24] 4403 	mov	ar5,@r0
      0011F9 8E 82            [24] 4404 	mov	dpl,r6
      0011FB 8F 83            [24] 4405 	mov	dph,r7
      0011FD 8D F0            [24] 4406 	mov	b,r5
      0011FF 74 02            [12] 4407 	mov	a,#0x02
      001201 12r00r00         [24] 4408 	lcall	__gptrput
                                   4409 ;	../../../core/net/rpl/rpl-icmp6.c:464: buffer[pos++] = 6;
      001204 90r00rA7         [24] 4410 	mov	dptr,#_dio_output_pos_65536_333
      001207 E0               [24] 4411 	movx	a,@dptr
      001208 FE               [12] 4412 	mov	r6,a
      001209 A3               [24] 4413 	inc	dptr
      00120A E0               [24] 4414 	movx	a,@dptr
      00120B FF               [12] 4415 	mov	r7,a
      00120C 90r00rA7         [24] 4416 	mov	dptr,#_dio_output_pos_65536_333
      00120F 74 01            [12] 4417 	mov	a,#0x01
      001211 2E               [12] 4418 	add	a,r6
      001212 F0               [24] 4419 	movx	@dptr,a
      001213 E4               [12] 4420 	clr	a
      001214 3F               [12] 4421 	addc	a,r7
      001215 A3               [24] 4422 	inc	dptr
      001216 F0               [24] 4423 	movx	@dptr,a
      001217 E5 81            [12] 4424 	mov	a,sp
      001219 24 FB            [12] 4425 	add	a,#0xfb
      00121B F8               [12] 4426 	mov	r0,a
      00121C EE               [12] 4427 	mov	a,r6
      00121D 26               [12] 4428 	add	a,@r0
      00121E FE               [12] 4429 	mov	r6,a
      00121F EF               [12] 4430 	mov	a,r7
      001220 08               [12] 4431 	inc	r0
      001221 36               [12] 4432 	addc	a,@r0
      001222 FF               [12] 4433 	mov	r7,a
      001223 08               [12] 4434 	inc	r0
      001224 86 05            [24] 4435 	mov	ar5,@r0
      001226 8E 82            [24] 4436 	mov	dpl,r6
      001228 8F 83            [24] 4437 	mov	dph,r7
      00122A 8D F0            [24] 4438 	mov	b,r5
      00122C 74 06            [12] 4439 	mov	a,#0x06
      00122E 12r00r00         [24] 4440 	lcall	__gptrput
                                   4441 ;	../../../core/net/rpl/rpl-icmp6.c:465: buffer[pos++] = instance->mc.type;
      001231 90r00rA7         [24] 4442 	mov	dptr,#_dio_output_pos_65536_333
      001234 E0               [24] 4443 	movx	a,@dptr
      001235 FE               [12] 4444 	mov	r6,a
      001236 A3               [24] 4445 	inc	dptr
      001237 E0               [24] 4446 	movx	a,@dptr
      001238 FF               [12] 4447 	mov	r7,a
      001239 90r00rA7         [24] 4448 	mov	dptr,#_dio_output_pos_65536_333
      00123C 74 01            [12] 4449 	mov	a,#0x01
      00123E 2E               [12] 4450 	add	a,r6
      00123F F0               [24] 4451 	movx	@dptr,a
      001240 E4               [12] 4452 	clr	a
      001241 3F               [12] 4453 	addc	a,r7
      001242 A3               [24] 4454 	inc	dptr
      001243 F0               [24] 4455 	movx	@dptr,a
      001244 E5 81            [12] 4456 	mov	a,sp
      001246 24 FB            [12] 4457 	add	a,#0xfb
      001248 F8               [12] 4458 	mov	r0,a
      001249 EE               [12] 4459 	mov	a,r6
      00124A 26               [12] 4460 	add	a,@r0
      00124B FE               [12] 4461 	mov	r6,a
      00124C EF               [12] 4462 	mov	a,r7
      00124D 08               [12] 4463 	inc	r0
      00124E 36               [12] 4464 	addc	a,@r0
      00124F FF               [12] 4465 	mov	r7,a
      001250 08               [12] 4466 	inc	r0
      001251 86 05            [24] 4467 	mov	ar5,@r0
      001253 E5 81            [12] 4468 	mov	a,sp
      001255 24 EE            [12] 4469 	add	a,#0xee
      001257 F8               [12] 4470 	mov	r0,a
      001258 86 82            [24] 4471 	mov	dpl,@r0
      00125A 08               [12] 4472 	inc	r0
      00125B 86 83            [24] 4473 	mov	dph,@r0
      00125D 08               [12] 4474 	inc	r0
      00125E 86 F0            [24] 4475 	mov	b,@r0
      001260 12r00r00         [24] 4476 	lcall	__gptrget
      001263 8E 82            [24] 4477 	mov	dpl,r6
      001265 8F 83            [24] 4478 	mov	dph,r7
      001267 8D F0            [24] 4479 	mov	b,r5
      001269 12r00r00         [24] 4480 	lcall	__gptrput
                                   4481 ;	../../../core/net/rpl/rpl-icmp6.c:466: buffer[pos++] = instance->mc.flags >> 1;
      00126C 90r00rA7         [24] 4482 	mov	dptr,#_dio_output_pos_65536_333
      00126F E0               [24] 4483 	movx	a,@dptr
      001270 FE               [12] 4484 	mov	r6,a
      001271 A3               [24] 4485 	inc	dptr
      001272 E0               [24] 4486 	movx	a,@dptr
      001273 FF               [12] 4487 	mov	r7,a
      001274 90r00rA7         [24] 4488 	mov	dptr,#_dio_output_pos_65536_333
      001277 74 01            [12] 4489 	mov	a,#0x01
      001279 2E               [12] 4490 	add	a,r6
      00127A F0               [24] 4491 	movx	@dptr,a
      00127B E4               [12] 4492 	clr	a
      00127C 3F               [12] 4493 	addc	a,r7
      00127D A3               [24] 4494 	inc	dptr
      00127E F0               [24] 4495 	movx	@dptr,a
      00127F E5 81            [12] 4496 	mov	a,sp
      001281 24 FB            [12] 4497 	add	a,#0xfb
      001283 F8               [12] 4498 	mov	r0,a
      001284 E5 81            [12] 4499 	mov	a,sp
      001286 24 F2            [12] 4500 	add	a,#0xf2
      001288 F9               [12] 4501 	mov	r1,a
      001289 EE               [12] 4502 	mov	a,r6
      00128A 26               [12] 4503 	add	a,@r0
      00128B F7               [12] 4504 	mov	@r1,a
      00128C EF               [12] 4505 	mov	a,r7
      00128D 08               [12] 4506 	inc	r0
      00128E 36               [12] 4507 	addc	a,@r0
      00128F 09               [12] 4508 	inc	r1
      001290 F7               [12] 4509 	mov	@r1,a
      001291 08               [12] 4510 	inc	r0
      001292 09               [12] 4511 	inc	r1
      001293 E6               [12] 4512 	mov	a,@r0
      001294 F7               [12] 4513 	mov	@r1,a
      001295 E5 81            [12] 4514 	mov	a,sp
      001297 24 EE            [12] 4515 	add	a,#0xee
      001299 F8               [12] 4516 	mov	r0,a
      00129A 74 01            [12] 4517 	mov	a,#0x01
      00129C 26               [12] 4518 	add	a,@r0
      00129D FA               [12] 4519 	mov	r2,a
      00129E E4               [12] 4520 	clr	a
      00129F 08               [12] 4521 	inc	r0
      0012A0 36               [12] 4522 	addc	a,@r0
      0012A1 FB               [12] 4523 	mov	r3,a
      0012A2 08               [12] 4524 	inc	r0
      0012A3 86 04            [24] 4525 	mov	ar4,@r0
      0012A5 8A 82            [24] 4526 	mov	dpl,r2
      0012A7 8B 83            [24] 4527 	mov	dph,r3
      0012A9 8C F0            [24] 4528 	mov	b,r4
      0012AB 12r00r00         [24] 4529 	lcall	__gptrget
      0012AE C3               [12] 4530 	clr	c
      0012AF 13               [12] 4531 	rrc	a
      0012B0 FF               [12] 4532 	mov	r7,a
      0012B1 E5 81            [12] 4533 	mov	a,sp
      0012B3 24 F2            [12] 4534 	add	a,#0xf2
      0012B5 F8               [12] 4535 	mov	r0,a
      0012B6 86 82            [24] 4536 	mov	dpl,@r0
      0012B8 08               [12] 4537 	inc	r0
      0012B9 86 83            [24] 4538 	mov	dph,@r0
      0012BB 08               [12] 4539 	inc	r0
      0012BC 86 F0            [24] 4540 	mov	b,@r0
      0012BE EF               [12] 4541 	mov	a,r7
      0012BF 12r00r00         [24] 4542 	lcall	__gptrput
                                   4543 ;	../../../core/net/rpl/rpl-icmp6.c:467: buffer[pos] = (instance->mc.flags & 1) << 7;
      0012C2 90r00rA7         [24] 4544 	mov	dptr,#_dio_output_pos_65536_333
      0012C5 E0               [24] 4545 	movx	a,@dptr
      0012C6 FE               [12] 4546 	mov	r6,a
      0012C7 A3               [24] 4547 	inc	dptr
      0012C8 E0               [24] 4548 	movx	a,@dptr
      0012C9 FF               [12] 4549 	mov	r7,a
      0012CA E5 81            [12] 4550 	mov	a,sp
      0012CC 24 FB            [12] 4551 	add	a,#0xfb
      0012CE F8               [12] 4552 	mov	r0,a
      0012CF EE               [12] 4553 	mov	a,r6
      0012D0 26               [12] 4554 	add	a,@r0
      0012D1 FE               [12] 4555 	mov	r6,a
      0012D2 EF               [12] 4556 	mov	a,r7
      0012D3 08               [12] 4557 	inc	r0
      0012D4 36               [12] 4558 	addc	a,@r0
      0012D5 FF               [12] 4559 	mov	r7,a
      0012D6 08               [12] 4560 	inc	r0
      0012D7 86 05            [24] 4561 	mov	ar5,@r0
      0012D9 8A 82            [24] 4562 	mov	dpl,r2
      0012DB 8B 83            [24] 4563 	mov	dph,r3
      0012DD 8C F0            [24] 4564 	mov	b,r4
      0012DF 12r00r00         [24] 4565 	lcall	__gptrget
      0012E2 54 01            [12] 4566 	anl	a,#0x01
      0012E4 03               [12] 4567 	rr	a
      0012E5 54 80            [12] 4568 	anl	a,#0x80
      0012E7 8E 82            [24] 4569 	mov	dpl,r6
      0012E9 8F 83            [24] 4570 	mov	dph,r7
      0012EB 8D F0            [24] 4571 	mov	b,r5
      0012ED 12r00r00         [24] 4572 	lcall	__gptrput
                                   4573 ;	../../../core/net/rpl/rpl-icmp6.c:468: buffer[pos++] |= (instance->mc.aggr << 4) | instance->mc.prec;
      0012F0 90r00rA7         [24] 4574 	mov	dptr,#_dio_output_pos_65536_333
      0012F3 E0               [24] 4575 	movx	a,@dptr
      0012F4 FE               [12] 4576 	mov	r6,a
      0012F5 A3               [24] 4577 	inc	dptr
      0012F6 E0               [24] 4578 	movx	a,@dptr
      0012F7 FF               [12] 4579 	mov	r7,a
      0012F8 90r00rA7         [24] 4580 	mov	dptr,#_dio_output_pos_65536_333
      0012FB 74 01            [12] 4581 	mov	a,#0x01
      0012FD 2E               [12] 4582 	add	a,r6
      0012FE F0               [24] 4583 	movx	@dptr,a
      0012FF E4               [12] 4584 	clr	a
      001300 3F               [12] 4585 	addc	a,r7
      001301 A3               [24] 4586 	inc	dptr
      001302 F0               [24] 4587 	movx	@dptr,a
      001303 E5 81            [12] 4588 	mov	a,sp
      001305 24 FB            [12] 4589 	add	a,#0xfb
      001307 F8               [12] 4590 	mov	r0,a
      001308 EE               [12] 4591 	mov	a,r6
      001309 26               [12] 4592 	add	a,@r0
      00130A FE               [12] 4593 	mov	r6,a
      00130B EF               [12] 4594 	mov	a,r7
      00130C 08               [12] 4595 	inc	r0
      00130D 36               [12] 4596 	addc	a,@r0
      00130E FF               [12] 4597 	mov	r7,a
      00130F 08               [12] 4598 	inc	r0
      001310 86 05            [24] 4599 	mov	ar5,@r0
      001312 8E 82            [24] 4600 	mov	dpl,r6
      001314 8F 83            [24] 4601 	mov	dph,r7
      001316 8D F0            [24] 4602 	mov	b,r5
      001318 E5 81            [12] 4603 	mov	a,sp
      00131A 24 F2            [12] 4604 	add	a,#0xf2
      00131C F8               [12] 4605 	mov	r0,a
      00131D 12r00r00         [24] 4606 	lcall	__gptrget
      001320 F6               [12] 4607 	mov	@r0,a
      001321 E5 81            [12] 4608 	mov	a,sp
      001323 24 EE            [12] 4609 	add	a,#0xee
      001325 F8               [12] 4610 	mov	r0,a
      001326 74 02            [12] 4611 	mov	a,#0x02
      001328 26               [12] 4612 	add	a,@r0
      001329 FA               [12] 4613 	mov	r2,a
      00132A E4               [12] 4614 	clr	a
      00132B 08               [12] 4615 	inc	r0
      00132C 36               [12] 4616 	addc	a,@r0
      00132D FB               [12] 4617 	mov	r3,a
      00132E 08               [12] 4618 	inc	r0
      00132F 86 04            [24] 4619 	mov	ar4,@r0
      001331 8A 82            [24] 4620 	mov	dpl,r2
      001333 8B 83            [24] 4621 	mov	dph,r3
      001335 8C F0            [24] 4622 	mov	b,r4
      001337 12r00r00         [24] 4623 	lcall	__gptrget
      00133A FA               [12] 4624 	mov	r2,a
      00133B E5 81            [12] 4625 	mov	a,sp
      00133D 24 F1            [12] 4626 	add	a,#0xf1
      00133F F8               [12] 4627 	mov	r0,a
      001340 EA               [12] 4628 	mov	a,r2
      001341 C4               [12] 4629 	swap	a
      001342 54 F0            [12] 4630 	anl	a,#0xf0
      001344 F6               [12] 4631 	mov	@r0,a
      001345 E5 81            [12] 4632 	mov	a,sp
      001347 24 EE            [12] 4633 	add	a,#0xee
      001349 F8               [12] 4634 	mov	r0,a
      00134A 74 03            [12] 4635 	mov	a,#0x03
      00134C 26               [12] 4636 	add	a,@r0
      00134D FA               [12] 4637 	mov	r2,a
      00134E E4               [12] 4638 	clr	a
      00134F 08               [12] 4639 	inc	r0
      001350 36               [12] 4640 	addc	a,@r0
      001351 FB               [12] 4641 	mov	r3,a
      001352 08               [12] 4642 	inc	r0
      001353 86 04            [24] 4643 	mov	ar4,@r0
      001355 8A 82            [24] 4644 	mov	dpl,r2
      001357 8B 83            [24] 4645 	mov	dph,r3
      001359 8C F0            [24] 4646 	mov	b,r4
      00135B 12r00r00         [24] 4647 	lcall	__gptrget
      00135E FA               [12] 4648 	mov	r2,a
      00135F E5 81            [12] 4649 	mov	a,sp
      001361 24 F1            [12] 4650 	add	a,#0xf1
      001363 F8               [12] 4651 	mov	r0,a
      001364 86 04            [24] 4652 	mov	ar4,@r0
      001366 EA               [12] 4653 	mov	a,r2
      001367 4C               [12] 4654 	orl	a,r4
      001368 C8               [12] 4655 	xch	a,r0
      001369 E5 81            [12] 4656 	mov	a,sp
      00136B 24 F2            [12] 4657 	add	a,#0xf2
      00136D C8               [12] 4658 	xch	a,r0
      00136E 46               [12] 4659 	orl	a,@r0
      00136F FC               [12] 4660 	mov	r4,a
      001370 8E 82            [24] 4661 	mov	dpl,r6
      001372 8F 83            [24] 4662 	mov	dph,r7
      001374 8D F0            [24] 4663 	mov	b,r5
      001376 12r00r00         [24] 4664 	lcall	__gptrput
                                   4665 ;	../../../core/net/rpl/rpl-icmp6.c:469: if(instance->mc.type == RPL_DAG_MC_ETX) {
      001379 E5 81            [12] 4666 	mov	a,sp
      00137B 24 EE            [12] 4667 	add	a,#0xee
      00137D F8               [12] 4668 	mov	r0,a
      00137E 86 82            [24] 4669 	mov	dpl,@r0
      001380 08               [12] 4670 	inc	r0
      001381 86 83            [24] 4671 	mov	dph,@r0
      001383 08               [12] 4672 	inc	r0
      001384 86 F0            [24] 4673 	mov	b,@r0
      001386 12r00r00         [24] 4674 	lcall	__gptrget
      001389 FF               [12] 4675 	mov	r7,a
      00138A BF 07 02         [24] 4676 	cjne	r7,#0x07,00154$
      00138D 80 03            [24] 4677 	sjmp	00155$
      00138F                       4678 00154$:
      00138F 02r14r1E         [24] 4679 	ljmp	00107$
      001392                       4680 00155$:
                                   4681 ;	../../../core/net/rpl/rpl-icmp6.c:470: buffer[pos++] = 2;
      001392 90r00rA7         [24] 4682 	mov	dptr,#_dio_output_pos_65536_333
      001395 E0               [24] 4683 	movx	a,@dptr
      001396 FD               [12] 4684 	mov	r5,a
      001397 A3               [24] 4685 	inc	dptr
      001398 E0               [24] 4686 	movx	a,@dptr
      001399 FE               [12] 4687 	mov	r6,a
      00139A 90r00rA7         [24] 4688 	mov	dptr,#_dio_output_pos_65536_333
      00139D 74 01            [12] 4689 	mov	a,#0x01
      00139F 2D               [12] 4690 	add	a,r5
      0013A0 F0               [24] 4691 	movx	@dptr,a
      0013A1 E4               [12] 4692 	clr	a
      0013A2 3E               [12] 4693 	addc	a,r6
      0013A3 A3               [24] 4694 	inc	dptr
      0013A4 F0               [24] 4695 	movx	@dptr,a
      0013A5 E5 81            [12] 4696 	mov	a,sp
      0013A7 24 FB            [12] 4697 	add	a,#0xfb
      0013A9 F8               [12] 4698 	mov	r0,a
      0013AA ED               [12] 4699 	mov	a,r5
      0013AB 26               [12] 4700 	add	a,@r0
      0013AC FD               [12] 4701 	mov	r5,a
      0013AD EE               [12] 4702 	mov	a,r6
      0013AE 08               [12] 4703 	inc	r0
      0013AF 36               [12] 4704 	addc	a,@r0
      0013B0 FE               [12] 4705 	mov	r6,a
      0013B1 08               [12] 4706 	inc	r0
      0013B2 86 04            [24] 4707 	mov	ar4,@r0
      0013B4 8D 82            [24] 4708 	mov	dpl,r5
      0013B6 8E 83            [24] 4709 	mov	dph,r6
      0013B8 8C F0            [24] 4710 	mov	b,r4
      0013BA 74 02            [12] 4711 	mov	a,#0x02
      0013BC 12r00r00         [24] 4712 	lcall	__gptrput
                                   4713 ;	../../../core/net/rpl/rpl-icmp6.c:471: set16(buffer, pos, instance->mc.obj.etx);
      0013BF E5 81            [12] 4714 	mov	a,sp
      0013C1 24 EE            [12] 4715 	add	a,#0xee
      0013C3 F8               [12] 4716 	mov	r0,a
      0013C4 74 05            [12] 4717 	mov	a,#0x05
      0013C6 26               [12] 4718 	add	a,@r0
      0013C7 FC               [12] 4719 	mov	r4,a
      0013C8 E4               [12] 4720 	clr	a
      0013C9 08               [12] 4721 	inc	r0
      0013CA 36               [12] 4722 	addc	a,@r0
      0013CB FD               [12] 4723 	mov	r5,a
      0013CC 08               [12] 4724 	inc	r0
      0013CD 86 06            [24] 4725 	mov	ar6,@r0
      0013CF 8C 82            [24] 4726 	mov	dpl,r4
      0013D1 8D 83            [24] 4727 	mov	dph,r5
      0013D3 8E F0            [24] 4728 	mov	b,r6
      0013D5 12r00r00         [24] 4729 	lcall	__gptrget
      0013D8 FC               [12] 4730 	mov	r4,a
      0013D9 A3               [24] 4731 	inc	dptr
      0013DA 12r00r00         [24] 4732 	lcall	__gptrget
      0013DD FD               [12] 4733 	mov	r5,a
      0013DE C0 04            [24] 4734 	push	ar4
      0013E0 C0 05            [24] 4735 	push	ar5
      0013E2 90r00rA7         [24] 4736 	mov	dptr,#_dio_output_pos_65536_333
      0013E5 E0               [24] 4737 	movx	a,@dptr
      0013E6 C0 E0            [24] 4738 	push	acc
      0013E8 A3               [24] 4739 	inc	dptr
      0013E9 E0               [24] 4740 	movx	a,@dptr
      0013EA C0 E0            [24] 4741 	push	acc
      0013EC E5 81            [12] 4742 	mov	a,sp
      0013EE 24 F7            [12] 4743 	add	a,#0xf7
      0013F0 F8               [12] 4744 	mov	r0,a
      0013F1 86 82            [24] 4745 	mov	dpl,@r0
      0013F3 08               [12] 4746 	inc	r0
      0013F4 86 83            [24] 4747 	mov	dph,@r0
      0013F6 08               [12] 4748 	inc	r0
      0013F7 86 F0            [24] 4749 	mov	b,@r0
      0013F9 78r79            [12] 4750 	mov	r0,#_set16
      0013FB 79s03            [12] 4751 	mov	r1,#(_set16 >> 8)
      0013FD 7As00            [12] 4752 	mov	r2,#(_set16 >> 16)
      0013FF 12r00r00         [24] 4753 	lcall	__sdcc_banked_call
      001402 E5 81            [12] 4754 	mov	a,sp
      001404 24 FC            [12] 4755 	add	a,#0xfc
      001406 F5 81            [12] 4756 	mov	sp,a
                                   4757 ;	../../../core/net/rpl/rpl-icmp6.c:472: pos += 2;
      001408 90r00rA7         [24] 4758 	mov	dptr,#_dio_output_pos_65536_333
      00140B E0               [24] 4759 	movx	a,@dptr
      00140C FD               [12] 4760 	mov	r5,a
      00140D A3               [24] 4761 	inc	dptr
      00140E E0               [24] 4762 	movx	a,@dptr
      00140F FE               [12] 4763 	mov	r6,a
      001410 90r00rA7         [24] 4764 	mov	dptr,#_dio_output_pos_65536_333
      001413 74 02            [12] 4765 	mov	a,#0x02
      001415 2D               [12] 4766 	add	a,r5
      001416 F0               [24] 4767 	movx	@dptr,a
      001417 E4               [12] 4768 	clr	a
      001418 3E               [12] 4769 	addc	a,r6
      001419 A3               [24] 4770 	inc	dptr
      00141A F0               [24] 4771 	movx	@dptr,a
      00141B 02r14rE1         [24] 4772 	ljmp	00110$
      00141E                       4773 00107$:
                                   4774 ;	../../../core/net/rpl/rpl-icmp6.c:473: } else if(instance->mc.type == RPL_DAG_MC_ENERGY) {
      00141E BF 02 02         [24] 4775 	cjne	r7,#0x02,00156$
      001421 80 03            [24] 4776 	sjmp	00157$
      001423                       4777 00156$:
      001423 02r1Br54         [24] 4778 	ljmp	00119$
      001426                       4779 00157$:
                                   4780 ;	../../../core/net/rpl/rpl-icmp6.c:474: buffer[pos++] = 2;
      001426 90r00rA7         [24] 4781 	mov	dptr,#_dio_output_pos_65536_333
      001429 E0               [24] 4782 	movx	a,@dptr
      00142A FE               [12] 4783 	mov	r6,a
      00142B A3               [24] 4784 	inc	dptr
      00142C E0               [24] 4785 	movx	a,@dptr
      00142D FF               [12] 4786 	mov	r7,a
      00142E 90r00rA7         [24] 4787 	mov	dptr,#_dio_output_pos_65536_333
      001431 74 01            [12] 4788 	mov	a,#0x01
      001433 2E               [12] 4789 	add	a,r6
      001434 F0               [24] 4790 	movx	@dptr,a
      001435 E4               [12] 4791 	clr	a
      001436 3F               [12] 4792 	addc	a,r7
      001437 A3               [24] 4793 	inc	dptr
      001438 F0               [24] 4794 	movx	@dptr,a
      001439 E5 81            [12] 4795 	mov	a,sp
      00143B 24 FB            [12] 4796 	add	a,#0xfb
      00143D F8               [12] 4797 	mov	r0,a
      00143E EE               [12] 4798 	mov	a,r6
      00143F 26               [12] 4799 	add	a,@r0
      001440 FE               [12] 4800 	mov	r6,a
      001441 EF               [12] 4801 	mov	a,r7
      001442 08               [12] 4802 	inc	r0
      001443 36               [12] 4803 	addc	a,@r0
      001444 FF               [12] 4804 	mov	r7,a
      001445 08               [12] 4805 	inc	r0
      001446 86 05            [24] 4806 	mov	ar5,@r0
      001448 8E 82            [24] 4807 	mov	dpl,r6
      00144A 8F 83            [24] 4808 	mov	dph,r7
      00144C 8D F0            [24] 4809 	mov	b,r5
      00144E 74 02            [12] 4810 	mov	a,#0x02
      001450 12r00r00         [24] 4811 	lcall	__gptrput
                                   4812 ;	../../../core/net/rpl/rpl-icmp6.c:475: buffer[pos++] = instance->mc.obj.energy.flags;
      001453 90r00rA7         [24] 4813 	mov	dptr,#_dio_output_pos_65536_333
      001456 E0               [24] 4814 	movx	a,@dptr
      001457 FE               [12] 4815 	mov	r6,a
      001458 A3               [24] 4816 	inc	dptr
      001459 E0               [24] 4817 	movx	a,@dptr
      00145A FF               [12] 4818 	mov	r7,a
      00145B 90r00rA7         [24] 4819 	mov	dptr,#_dio_output_pos_65536_333
      00145E 74 01            [12] 4820 	mov	a,#0x01
      001460 2E               [12] 4821 	add	a,r6
      001461 F0               [24] 4822 	movx	@dptr,a
      001462 E4               [12] 4823 	clr	a
      001463 3F               [12] 4824 	addc	a,r7
      001464 A3               [24] 4825 	inc	dptr
      001465 F0               [24] 4826 	movx	@dptr,a
      001466 E5 81            [12] 4827 	mov	a,sp
      001468 24 FB            [12] 4828 	add	a,#0xfb
      00146A F8               [12] 4829 	mov	r0,a
      00146B E5 81            [12] 4830 	mov	a,sp
      00146D 24 F2            [12] 4831 	add	a,#0xf2
      00146F F9               [12] 4832 	mov	r1,a
      001470 EE               [12] 4833 	mov	a,r6
      001471 26               [12] 4834 	add	a,@r0
      001472 F7               [12] 4835 	mov	@r1,a
      001473 EF               [12] 4836 	mov	a,r7
      001474 08               [12] 4837 	inc	r0
      001475 36               [12] 4838 	addc	a,@r0
      001476 09               [12] 4839 	inc	r1
      001477 F7               [12] 4840 	mov	@r1,a
      001478 08               [12] 4841 	inc	r0
      001479 09               [12] 4842 	inc	r1
      00147A E6               [12] 4843 	mov	a,@r0
      00147B F7               [12] 4844 	mov	@r1,a
      00147C E5 81            [12] 4845 	mov	a,sp
      00147E 24 EE            [12] 4846 	add	a,#0xee
      001480 F8               [12] 4847 	mov	r0,a
      001481 74 05            [12] 4848 	mov	a,#0x05
      001483 26               [12] 4849 	add	a,@r0
      001484 FA               [12] 4850 	mov	r2,a
      001485 E4               [12] 4851 	clr	a
      001486 08               [12] 4852 	inc	r0
      001487 36               [12] 4853 	addc	a,@r0
      001488 FB               [12] 4854 	mov	r3,a
      001489 08               [12] 4855 	inc	r0
      00148A 86 04            [24] 4856 	mov	ar4,@r0
      00148C 8A 82            [24] 4857 	mov	dpl,r2
      00148E 8B 83            [24] 4858 	mov	dph,r3
      001490 8C F0            [24] 4859 	mov	b,r4
      001492 12r00r00         [24] 4860 	lcall	__gptrget
      001495 FF               [12] 4861 	mov	r7,a
      001496 E5 81            [12] 4862 	mov	a,sp
      001498 24 F2            [12] 4863 	add	a,#0xf2
      00149A F8               [12] 4864 	mov	r0,a
      00149B 86 82            [24] 4865 	mov	dpl,@r0
      00149D 08               [12] 4866 	inc	r0
      00149E 86 83            [24] 4867 	mov	dph,@r0
      0014A0 08               [12] 4868 	inc	r0
      0014A1 86 F0            [24] 4869 	mov	b,@r0
      0014A3 EF               [12] 4870 	mov	a,r7
      0014A4 12r00r00         [24] 4871 	lcall	__gptrput
                                   4872 ;	../../../core/net/rpl/rpl-icmp6.c:476: buffer[pos++] = instance->mc.obj.energy.energy_est;
      0014A7 90r00rA7         [24] 4873 	mov	dptr,#_dio_output_pos_65536_333
      0014AA E0               [24] 4874 	movx	a,@dptr
      0014AB FE               [12] 4875 	mov	r6,a
      0014AC A3               [24] 4876 	inc	dptr
      0014AD E0               [24] 4877 	movx	a,@dptr
      0014AE FF               [12] 4878 	mov	r7,a
      0014AF 90r00rA7         [24] 4879 	mov	dptr,#_dio_output_pos_65536_333
      0014B2 74 01            [12] 4880 	mov	a,#0x01
      0014B4 2E               [12] 4881 	add	a,r6
      0014B5 F0               [24] 4882 	movx	@dptr,a
      0014B6 E4               [12] 4883 	clr	a
      0014B7 3F               [12] 4884 	addc	a,r7
      0014B8 A3               [24] 4885 	inc	dptr
      0014B9 F0               [24] 4886 	movx	@dptr,a
      0014BA E5 81            [12] 4887 	mov	a,sp
      0014BC 24 FB            [12] 4888 	add	a,#0xfb
      0014BE F8               [12] 4889 	mov	r0,a
      0014BF EE               [12] 4890 	mov	a,r6
      0014C0 26               [12] 4891 	add	a,@r0
      0014C1 FE               [12] 4892 	mov	r6,a
      0014C2 EF               [12] 4893 	mov	a,r7
      0014C3 08               [12] 4894 	inc	r0
      0014C4 36               [12] 4895 	addc	a,@r0
      0014C5 FF               [12] 4896 	mov	r7,a
      0014C6 08               [12] 4897 	inc	r0
      0014C7 86 05            [24] 4898 	mov	ar5,@r0
      0014C9 0A               [12] 4899 	inc	r2
      0014CA BA 00 01         [24] 4900 	cjne	r2,#0x00,00158$
      0014CD 0B               [12] 4901 	inc	r3
      0014CE                       4902 00158$:
      0014CE 8A 82            [24] 4903 	mov	dpl,r2
      0014D0 8B 83            [24] 4904 	mov	dph,r3
      0014D2 8C F0            [24] 4905 	mov	b,r4
      0014D4 12r00r00         [24] 4906 	lcall	__gptrget
      0014D7 FA               [12] 4907 	mov	r2,a
      0014D8 8E 82            [24] 4908 	mov	dpl,r6
      0014DA 8F 83            [24] 4909 	mov	dph,r7
      0014DC 8D F0            [24] 4910 	mov	b,r5
      0014DE 12r00r00         [24] 4911 	lcall	__gptrput
                                   4912 ;	../../../core/net/rpl/rpl-icmp6.c:480: return;
      0014E1                       4913 00110$:
                                   4914 ;	../../../core/net/rpl/rpl-icmp6.c:486: buffer[pos++] = RPL_OPTION_DAG_CONF;
      0014E1 90r00rA7         [24] 4915 	mov	dptr,#_dio_output_pos_65536_333
      0014E4 E0               [24] 4916 	movx	a,@dptr
      0014E5 FE               [12] 4917 	mov	r6,a
      0014E6 A3               [24] 4918 	inc	dptr
      0014E7 E0               [24] 4919 	movx	a,@dptr
      0014E8 FF               [12] 4920 	mov	r7,a
      0014E9 90r00rA7         [24] 4921 	mov	dptr,#_dio_output_pos_65536_333
      0014EC 74 01            [12] 4922 	mov	a,#0x01
      0014EE 2E               [12] 4923 	add	a,r6
      0014EF F0               [24] 4924 	movx	@dptr,a
      0014F0 E4               [12] 4925 	clr	a
      0014F1 3F               [12] 4926 	addc	a,r7
      0014F2 A3               [24] 4927 	inc	dptr
      0014F3 F0               [24] 4928 	movx	@dptr,a
      0014F4 E5 81            [12] 4929 	mov	a,sp
      0014F6 24 FB            [12] 4930 	add	a,#0xfb
      0014F8 F8               [12] 4931 	mov	r0,a
      0014F9 EE               [12] 4932 	mov	a,r6
      0014FA 26               [12] 4933 	add	a,@r0
      0014FB FE               [12] 4934 	mov	r6,a
      0014FC EF               [12] 4935 	mov	a,r7
      0014FD 08               [12] 4936 	inc	r0
      0014FE 36               [12] 4937 	addc	a,@r0
      0014FF FF               [12] 4938 	mov	r7,a
      001500 08               [12] 4939 	inc	r0
      001501 86 05            [24] 4940 	mov	ar5,@r0
      001503 8E 82            [24] 4941 	mov	dpl,r6
      001505 8F 83            [24] 4942 	mov	dph,r7
      001507 8D F0            [24] 4943 	mov	b,r5
      001509 74 04            [12] 4944 	mov	a,#0x04
      00150B 12r00r00         [24] 4945 	lcall	__gptrput
                                   4946 ;	../../../core/net/rpl/rpl-icmp6.c:487: buffer[pos++] = 14;
      00150E 90r00rA7         [24] 4947 	mov	dptr,#_dio_output_pos_65536_333
      001511 E0               [24] 4948 	movx	a,@dptr
      001512 FE               [12] 4949 	mov	r6,a
      001513 A3               [24] 4950 	inc	dptr
      001514 E0               [24] 4951 	movx	a,@dptr
      001515 FF               [12] 4952 	mov	r7,a
      001516 90r00rA7         [24] 4953 	mov	dptr,#_dio_output_pos_65536_333
      001519 74 01            [12] 4954 	mov	a,#0x01
      00151B 2E               [12] 4955 	add	a,r6
      00151C F0               [24] 4956 	movx	@dptr,a
      00151D E4               [12] 4957 	clr	a
      00151E 3F               [12] 4958 	addc	a,r7
      00151F A3               [24] 4959 	inc	dptr
      001520 F0               [24] 4960 	movx	@dptr,a
      001521 E5 81            [12] 4961 	mov	a,sp
      001523 24 FB            [12] 4962 	add	a,#0xfb
      001525 F8               [12] 4963 	mov	r0,a
      001526 EE               [12] 4964 	mov	a,r6
      001527 26               [12] 4965 	add	a,@r0
      001528 FE               [12] 4966 	mov	r6,a
      001529 EF               [12] 4967 	mov	a,r7
      00152A 08               [12] 4968 	inc	r0
      00152B 36               [12] 4969 	addc	a,@r0
      00152C FF               [12] 4970 	mov	r7,a
      00152D 08               [12] 4971 	inc	r0
      00152E 86 05            [24] 4972 	mov	ar5,@r0
      001530 8E 82            [24] 4973 	mov	dpl,r6
      001532 8F 83            [24] 4974 	mov	dph,r7
      001534 8D F0            [24] 4975 	mov	b,r5
      001536 74 0E            [12] 4976 	mov	a,#0x0e
      001538 12r00r00         [24] 4977 	lcall	__gptrput
                                   4978 ;	../../../core/net/rpl/rpl-icmp6.c:488: buffer[pos++] = 0; /* No Auth, PCS = 0 */
      00153B 90r00rA7         [24] 4979 	mov	dptr,#_dio_output_pos_65536_333
      00153E E0               [24] 4980 	movx	a,@dptr
      00153F FE               [12] 4981 	mov	r6,a
      001540 A3               [24] 4982 	inc	dptr
      001541 E0               [24] 4983 	movx	a,@dptr
      001542 FF               [12] 4984 	mov	r7,a
      001543 90r00rA7         [24] 4985 	mov	dptr,#_dio_output_pos_65536_333
      001546 74 01            [12] 4986 	mov	a,#0x01
      001548 2E               [12] 4987 	add	a,r6
      001549 F0               [24] 4988 	movx	@dptr,a
      00154A E4               [12] 4989 	clr	a
      00154B 3F               [12] 4990 	addc	a,r7
      00154C A3               [24] 4991 	inc	dptr
      00154D F0               [24] 4992 	movx	@dptr,a
      00154E E5 81            [12] 4993 	mov	a,sp
      001550 24 FB            [12] 4994 	add	a,#0xfb
      001552 F8               [12] 4995 	mov	r0,a
      001553 EE               [12] 4996 	mov	a,r6
      001554 26               [12] 4997 	add	a,@r0
      001555 FE               [12] 4998 	mov	r6,a
      001556 EF               [12] 4999 	mov	a,r7
      001557 08               [12] 5000 	inc	r0
      001558 36               [12] 5001 	addc	a,@r0
      001559 FF               [12] 5002 	mov	r7,a
      00155A 08               [12] 5003 	inc	r0
      00155B 86 05            [24] 5004 	mov	ar5,@r0
      00155D 8E 82            [24] 5005 	mov	dpl,r6
      00155F 8F 83            [24] 5006 	mov	dph,r7
      001561 8D F0            [24] 5007 	mov	b,r5
      001563 E4               [12] 5008 	clr	a
      001564 12r00r00         [24] 5009 	lcall	__gptrput
                                   5010 ;	../../../core/net/rpl/rpl-icmp6.c:489: buffer[pos++] = instance->dio_intdoubl;
      001567 90r00rA7         [24] 5011 	mov	dptr,#_dio_output_pos_65536_333
      00156A E0               [24] 5012 	movx	a,@dptr
      00156B FE               [12] 5013 	mov	r6,a
      00156C A3               [24] 5014 	inc	dptr
      00156D E0               [24] 5015 	movx	a,@dptr
      00156E FF               [12] 5016 	mov	r7,a
      00156F 90r00rA7         [24] 5017 	mov	dptr,#_dio_output_pos_65536_333
      001572 74 01            [12] 5018 	mov	a,#0x01
      001574 2E               [12] 5019 	add	a,r6
      001575 F0               [24] 5020 	movx	@dptr,a
      001576 E4               [12] 5021 	clr	a
      001577 3F               [12] 5022 	addc	a,r7
      001578 A3               [24] 5023 	inc	dptr
      001579 F0               [24] 5024 	movx	@dptr,a
      00157A E5 81            [12] 5025 	mov	a,sp
      00157C 24 FB            [12] 5026 	add	a,#0xfb
      00157E F8               [12] 5027 	mov	r0,a
      00157F EE               [12] 5028 	mov	a,r6
      001580 26               [12] 5029 	add	a,@r0
      001581 FE               [12] 5030 	mov	r6,a
      001582 EF               [12] 5031 	mov	a,r7
      001583 08               [12] 5032 	inc	r0
      001584 36               [12] 5033 	addc	a,@r0
      001585 FF               [12] 5034 	mov	r7,a
      001586 08               [12] 5035 	inc	r0
      001587 86 05            [24] 5036 	mov	ar5,@r0
      001589 E5 81            [12] 5037 	mov	a,sp
      00158B 24 EE            [12] 5038 	add	a,#0xee
      00158D F8               [12] 5039 	mov	r0,a
      00158E 74 8A            [12] 5040 	mov	a,#0x8a
      001590 26               [12] 5041 	add	a,@r0
      001591 FA               [12] 5042 	mov	r2,a
      001592 E4               [12] 5043 	clr	a
      001593 08               [12] 5044 	inc	r0
      001594 36               [12] 5045 	addc	a,@r0
      001595 FB               [12] 5046 	mov	r3,a
      001596 08               [12] 5047 	inc	r0
      001597 86 04            [24] 5048 	mov	ar4,@r0
      001599 8A 82            [24] 5049 	mov	dpl,r2
      00159B 8B 83            [24] 5050 	mov	dph,r3
      00159D 8C F0            [24] 5051 	mov	b,r4
      00159F 12r00r00         [24] 5052 	lcall	__gptrget
      0015A2 8E 82            [24] 5053 	mov	dpl,r6
      0015A4 8F 83            [24] 5054 	mov	dph,r7
      0015A6 8D F0            [24] 5055 	mov	b,r5
      0015A8 12r00r00         [24] 5056 	lcall	__gptrput
                                   5057 ;	../../../core/net/rpl/rpl-icmp6.c:490: buffer[pos++] = instance->dio_intmin;
      0015AB 90r00rA7         [24] 5058 	mov	dptr,#_dio_output_pos_65536_333
      0015AE E0               [24] 5059 	movx	a,@dptr
      0015AF FE               [12] 5060 	mov	r6,a
      0015B0 A3               [24] 5061 	inc	dptr
      0015B1 E0               [24] 5062 	movx	a,@dptr
      0015B2 FF               [12] 5063 	mov	r7,a
      0015B3 90r00rA7         [24] 5064 	mov	dptr,#_dio_output_pos_65536_333
      0015B6 74 01            [12] 5065 	mov	a,#0x01
      0015B8 2E               [12] 5066 	add	a,r6
      0015B9 F0               [24] 5067 	movx	@dptr,a
      0015BA E4               [12] 5068 	clr	a
      0015BB 3F               [12] 5069 	addc	a,r7
      0015BC A3               [24] 5070 	inc	dptr
      0015BD F0               [24] 5071 	movx	@dptr,a
      0015BE E5 81            [12] 5072 	mov	a,sp
      0015C0 24 FB            [12] 5073 	add	a,#0xfb
      0015C2 F8               [12] 5074 	mov	r0,a
      0015C3 EE               [12] 5075 	mov	a,r6
      0015C4 26               [12] 5076 	add	a,@r0
      0015C5 FE               [12] 5077 	mov	r6,a
      0015C6 EF               [12] 5078 	mov	a,r7
      0015C7 08               [12] 5079 	inc	r0
      0015C8 36               [12] 5080 	addc	a,@r0
      0015C9 FF               [12] 5081 	mov	r7,a
      0015CA 08               [12] 5082 	inc	r0
      0015CB 86 05            [24] 5083 	mov	ar5,@r0
      0015CD E5 81            [12] 5084 	mov	a,sp
      0015CF 24 EE            [12] 5085 	add	a,#0xee
      0015D1 F8               [12] 5086 	mov	r0,a
      0015D2 74 8B            [12] 5087 	mov	a,#0x8b
      0015D4 26               [12] 5088 	add	a,@r0
      0015D5 FA               [12] 5089 	mov	r2,a
      0015D6 E4               [12] 5090 	clr	a
      0015D7 08               [12] 5091 	inc	r0
      0015D8 36               [12] 5092 	addc	a,@r0
      0015D9 FB               [12] 5093 	mov	r3,a
      0015DA 08               [12] 5094 	inc	r0
      0015DB 86 04            [24] 5095 	mov	ar4,@r0
      0015DD 8A 82            [24] 5096 	mov	dpl,r2
      0015DF 8B 83            [24] 5097 	mov	dph,r3
      0015E1 8C F0            [24] 5098 	mov	b,r4
      0015E3 12r00r00         [24] 5099 	lcall	__gptrget
      0015E6 8E 82            [24] 5100 	mov	dpl,r6
      0015E8 8F 83            [24] 5101 	mov	dph,r7
      0015EA 8D F0            [24] 5102 	mov	b,r5
      0015EC 12r00r00         [24] 5103 	lcall	__gptrput
                                   5104 ;	../../../core/net/rpl/rpl-icmp6.c:491: buffer[pos++] = instance->dio_redundancy;
      0015EF 90r00rA7         [24] 5105 	mov	dptr,#_dio_output_pos_65536_333
      0015F2 E0               [24] 5106 	movx	a,@dptr
      0015F3 FE               [12] 5107 	mov	r6,a
      0015F4 A3               [24] 5108 	inc	dptr
      0015F5 E0               [24] 5109 	movx	a,@dptr
      0015F6 FF               [12] 5110 	mov	r7,a
      0015F7 90r00rA7         [24] 5111 	mov	dptr,#_dio_output_pos_65536_333
      0015FA 74 01            [12] 5112 	mov	a,#0x01
      0015FC 2E               [12] 5113 	add	a,r6
      0015FD F0               [24] 5114 	movx	@dptr,a
      0015FE E4               [12] 5115 	clr	a
      0015FF 3F               [12] 5116 	addc	a,r7
      001600 A3               [24] 5117 	inc	dptr
      001601 F0               [24] 5118 	movx	@dptr,a
      001602 E5 81            [12] 5119 	mov	a,sp
      001604 24 FB            [12] 5120 	add	a,#0xfb
      001606 F8               [12] 5121 	mov	r0,a
      001607 EE               [12] 5122 	mov	a,r6
      001608 26               [12] 5123 	add	a,@r0
      001609 FE               [12] 5124 	mov	r6,a
      00160A EF               [12] 5125 	mov	a,r7
      00160B 08               [12] 5126 	inc	r0
      00160C 36               [12] 5127 	addc	a,@r0
      00160D FF               [12] 5128 	mov	r7,a
      00160E 08               [12] 5129 	inc	r0
      00160F 86 05            [24] 5130 	mov	ar5,@r0
      001611 E5 81            [12] 5131 	mov	a,sp
      001613 24 EE            [12] 5132 	add	a,#0xee
      001615 F8               [12] 5133 	mov	r0,a
      001616 74 8C            [12] 5134 	mov	a,#0x8c
      001618 26               [12] 5135 	add	a,@r0
      001619 FA               [12] 5136 	mov	r2,a
      00161A E4               [12] 5137 	clr	a
      00161B 08               [12] 5138 	inc	r0
      00161C 36               [12] 5139 	addc	a,@r0
      00161D FB               [12] 5140 	mov	r3,a
      00161E 08               [12] 5141 	inc	r0
      00161F 86 04            [24] 5142 	mov	ar4,@r0
      001621 8A 82            [24] 5143 	mov	dpl,r2
      001623 8B 83            [24] 5144 	mov	dph,r3
      001625 8C F0            [24] 5145 	mov	b,r4
      001627 12r00r00         [24] 5146 	lcall	__gptrget
      00162A 8E 82            [24] 5147 	mov	dpl,r6
      00162C 8F 83            [24] 5148 	mov	dph,r7
      00162E 8D F0            [24] 5149 	mov	b,r5
      001630 12r00r00         [24] 5150 	lcall	__gptrput
                                   5151 ;	../../../core/net/rpl/rpl-icmp6.c:492: set16(buffer, pos, instance->max_rankinc);
      001633 E5 81            [12] 5152 	mov	a,sp
      001635 24 EE            [12] 5153 	add	a,#0xee
      001637 F8               [12] 5154 	mov	r0,a
      001638 74 91            [12] 5155 	mov	a,#0x91
      00163A 26               [12] 5156 	add	a,@r0
      00163B FD               [12] 5157 	mov	r5,a
      00163C E4               [12] 5158 	clr	a
      00163D 08               [12] 5159 	inc	r0
      00163E 36               [12] 5160 	addc	a,@r0
      00163F FE               [12] 5161 	mov	r6,a
      001640 08               [12] 5162 	inc	r0
      001641 86 07            [24] 5163 	mov	ar7,@r0
      001643 8D 82            [24] 5164 	mov	dpl,r5
      001645 8E 83            [24] 5165 	mov	dph,r6
      001647 8F F0            [24] 5166 	mov	b,r7
      001649 12r00r00         [24] 5167 	lcall	__gptrget
      00164C FD               [12] 5168 	mov	r5,a
      00164D A3               [24] 5169 	inc	dptr
      00164E 12r00r00         [24] 5170 	lcall	__gptrget
      001651 FE               [12] 5171 	mov	r6,a
      001652 C0 05            [24] 5172 	push	ar5
      001654 C0 06            [24] 5173 	push	ar6
      001656 90r00rA7         [24] 5174 	mov	dptr,#_dio_output_pos_65536_333
      001659 E0               [24] 5175 	movx	a,@dptr
      00165A C0 E0            [24] 5176 	push	acc
      00165C A3               [24] 5177 	inc	dptr
      00165D E0               [24] 5178 	movx	a,@dptr
      00165E C0 E0            [24] 5179 	push	acc
      001660 E5 81            [12] 5180 	mov	a,sp
      001662 24 F7            [12] 5181 	add	a,#0xf7
      001664 F8               [12] 5182 	mov	r0,a
      001665 86 82            [24] 5183 	mov	dpl,@r0
      001667 08               [12] 5184 	inc	r0
      001668 86 83            [24] 5185 	mov	dph,@r0
      00166A 08               [12] 5186 	inc	r0
      00166B 86 F0            [24] 5187 	mov	b,@r0
      00166D 78r79            [12] 5188 	mov	r0,#_set16
      00166F 79s03            [12] 5189 	mov	r1,#(_set16 >> 8)
      001671 7As00            [12] 5190 	mov	r2,#(_set16 >> 16)
      001673 12r00r00         [24] 5191 	lcall	__sdcc_banked_call
      001676 E5 81            [12] 5192 	mov	a,sp
      001678 24 FC            [12] 5193 	add	a,#0xfc
      00167A F5 81            [12] 5194 	mov	sp,a
                                   5195 ;	../../../core/net/rpl/rpl-icmp6.c:493: pos += 2;
      00167C 90r00rA7         [24] 5196 	mov	dptr,#_dio_output_pos_65536_333
      00167F E0               [24] 5197 	movx	a,@dptr
      001680 FE               [12] 5198 	mov	r6,a
      001681 A3               [24] 5199 	inc	dptr
      001682 E0               [24] 5200 	movx	a,@dptr
      001683 FF               [12] 5201 	mov	r7,a
      001684 90r00rA7         [24] 5202 	mov	dptr,#_dio_output_pos_65536_333
      001687 74 02            [12] 5203 	mov	a,#0x02
      001689 2E               [12] 5204 	add	a,r6
      00168A F0               [24] 5205 	movx	@dptr,a
      00168B E4               [12] 5206 	clr	a
      00168C 3F               [12] 5207 	addc	a,r7
      00168D A3               [24] 5208 	inc	dptr
      00168E F0               [24] 5209 	movx	@dptr,a
                                   5210 ;	../../../core/net/rpl/rpl-icmp6.c:494: set16(buffer, pos, instance->min_hoprankinc);
      00168F E5 81            [12] 5211 	mov	a,sp
      001691 24 EE            [12] 5212 	add	a,#0xee
      001693 F8               [12] 5213 	mov	r0,a
      001694 74 93            [12] 5214 	mov	a,#0x93
      001696 26               [12] 5215 	add	a,@r0
      001697 FD               [12] 5216 	mov	r5,a
      001698 E4               [12] 5217 	clr	a
      001699 08               [12] 5218 	inc	r0
      00169A 36               [12] 5219 	addc	a,@r0
      00169B FE               [12] 5220 	mov	r6,a
      00169C 08               [12] 5221 	inc	r0
      00169D 86 07            [24] 5222 	mov	ar7,@r0
      00169F 8D 82            [24] 5223 	mov	dpl,r5
      0016A1 8E 83            [24] 5224 	mov	dph,r6
      0016A3 8F F0            [24] 5225 	mov	b,r7
      0016A5 12r00r00         [24] 5226 	lcall	__gptrget
      0016A8 FD               [12] 5227 	mov	r5,a
      0016A9 A3               [24] 5228 	inc	dptr
      0016AA 12r00r00         [24] 5229 	lcall	__gptrget
      0016AD FE               [12] 5230 	mov	r6,a
      0016AE C0 05            [24] 5231 	push	ar5
      0016B0 C0 06            [24] 5232 	push	ar6
      0016B2 90r00rA7         [24] 5233 	mov	dptr,#_dio_output_pos_65536_333
      0016B5 E0               [24] 5234 	movx	a,@dptr
      0016B6 C0 E0            [24] 5235 	push	acc
      0016B8 A3               [24] 5236 	inc	dptr
      0016B9 E0               [24] 5237 	movx	a,@dptr
      0016BA C0 E0            [24] 5238 	push	acc
      0016BC E5 81            [12] 5239 	mov	a,sp
      0016BE 24 F7            [12] 5240 	add	a,#0xf7
      0016C0 F8               [12] 5241 	mov	r0,a
      0016C1 86 82            [24] 5242 	mov	dpl,@r0
      0016C3 08               [12] 5243 	inc	r0
      0016C4 86 83            [24] 5244 	mov	dph,@r0
      0016C6 08               [12] 5245 	inc	r0
      0016C7 86 F0            [24] 5246 	mov	b,@r0
      0016C9 78r79            [12] 5247 	mov	r0,#_set16
      0016CB 79s03            [12] 5248 	mov	r1,#(_set16 >> 8)
      0016CD 7As00            [12] 5249 	mov	r2,#(_set16 >> 16)
      0016CF 12r00r00         [24] 5250 	lcall	__sdcc_banked_call
      0016D2 E5 81            [12] 5251 	mov	a,sp
      0016D4 24 FC            [12] 5252 	add	a,#0xfc
      0016D6 F5 81            [12] 5253 	mov	sp,a
                                   5254 ;	../../../core/net/rpl/rpl-icmp6.c:495: pos += 2;
      0016D8 90r00rA7         [24] 5255 	mov	dptr,#_dio_output_pos_65536_333
      0016DB E0               [24] 5256 	movx	a,@dptr
      0016DC FE               [12] 5257 	mov	r6,a
      0016DD A3               [24] 5258 	inc	dptr
      0016DE E0               [24] 5259 	movx	a,@dptr
      0016DF FF               [12] 5260 	mov	r7,a
      0016E0 90r00rA7         [24] 5261 	mov	dptr,#_dio_output_pos_65536_333
      0016E3 74 02            [12] 5262 	mov	a,#0x02
      0016E5 2E               [12] 5263 	add	a,r6
      0016E6 F0               [24] 5264 	movx	@dptr,a
      0016E7 E4               [12] 5265 	clr	a
      0016E8 3F               [12] 5266 	addc	a,r7
      0016E9 A3               [24] 5267 	inc	dptr
      0016EA F0               [24] 5268 	movx	@dptr,a
                                   5269 ;	../../../core/net/rpl/rpl-icmp6.c:497: set16(buffer, pos, instance->of->ocp);
      0016EB E5 81            [12] 5270 	mov	a,sp
      0016ED 24 EE            [12] 5271 	add	a,#0xee
      0016EF F8               [12] 5272 	mov	r0,a
      0016F0 74 07            [12] 5273 	mov	a,#0x07
      0016F2 26               [12] 5274 	add	a,@r0
      0016F3 FD               [12] 5275 	mov	r5,a
      0016F4 E4               [12] 5276 	clr	a
      0016F5 08               [12] 5277 	inc	r0
      0016F6 36               [12] 5278 	addc	a,@r0
      0016F7 FE               [12] 5279 	mov	r6,a
      0016F8 08               [12] 5280 	inc	r0
      0016F9 86 07            [24] 5281 	mov	ar7,@r0
      0016FB 8D 82            [24] 5282 	mov	dpl,r5
      0016FD 8E 83            [24] 5283 	mov	dph,r6
      0016FF 8F F0            [24] 5284 	mov	b,r7
      001701 12r00r00         [24] 5285 	lcall	__gptrget
      001704 FD               [12] 5286 	mov	r5,a
      001705 A3               [24] 5287 	inc	dptr
      001706 12r00r00         [24] 5288 	lcall	__gptrget
      001709 FE               [12] 5289 	mov	r6,a
      00170A A3               [24] 5290 	inc	dptr
      00170B 12r00r00         [24] 5291 	lcall	__gptrget
      00170E FF               [12] 5292 	mov	r7,a
      00170F 74 12            [12] 5293 	mov	a,#0x12
      001711 2D               [12] 5294 	add	a,r5
      001712 FD               [12] 5295 	mov	r5,a
      001713 E4               [12] 5296 	clr	a
      001714 3E               [12] 5297 	addc	a,r6
      001715 FE               [12] 5298 	mov	r6,a
      001716 8D 82            [24] 5299 	mov	dpl,r5
      001718 8E 83            [24] 5300 	mov	dph,r6
      00171A 8F F0            [24] 5301 	mov	b,r7
      00171C 12r00r00         [24] 5302 	lcall	__gptrget
      00171F FD               [12] 5303 	mov	r5,a
      001720 A3               [24] 5304 	inc	dptr
      001721 12r00r00         [24] 5305 	lcall	__gptrget
      001724 FE               [12] 5306 	mov	r6,a
      001725 C0 05            [24] 5307 	push	ar5
      001727 C0 06            [24] 5308 	push	ar6
      001729 90r00rA7         [24] 5309 	mov	dptr,#_dio_output_pos_65536_333
      00172C E0               [24] 5310 	movx	a,@dptr
      00172D C0 E0            [24] 5311 	push	acc
      00172F A3               [24] 5312 	inc	dptr
      001730 E0               [24] 5313 	movx	a,@dptr
      001731 C0 E0            [24] 5314 	push	acc
      001733 E5 81            [12] 5315 	mov	a,sp
      001735 24 F7            [12] 5316 	add	a,#0xf7
      001737 F8               [12] 5317 	mov	r0,a
      001738 86 82            [24] 5318 	mov	dpl,@r0
      00173A 08               [12] 5319 	inc	r0
      00173B 86 83            [24] 5320 	mov	dph,@r0
      00173D 08               [12] 5321 	inc	r0
      00173E 86 F0            [24] 5322 	mov	b,@r0
      001740 78r79            [12] 5323 	mov	r0,#_set16
      001742 79s03            [12] 5324 	mov	r1,#(_set16 >> 8)
      001744 7As00            [12] 5325 	mov	r2,#(_set16 >> 16)
      001746 12r00r00         [24] 5326 	lcall	__sdcc_banked_call
      001749 E5 81            [12] 5327 	mov	a,sp
      00174B 24 FC            [12] 5328 	add	a,#0xfc
      00174D F5 81            [12] 5329 	mov	sp,a
                                   5330 ;	../../../core/net/rpl/rpl-icmp6.c:498: pos += 2;
      00174F 90r00rA7         [24] 5331 	mov	dptr,#_dio_output_pos_65536_333
      001752 E0               [24] 5332 	movx	a,@dptr
      001753 FE               [12] 5333 	mov	r6,a
      001754 A3               [24] 5334 	inc	dptr
      001755 E0               [24] 5335 	movx	a,@dptr
      001756 FF               [12] 5336 	mov	r7,a
      001757 90r00rA7         [24] 5337 	mov	dptr,#_dio_output_pos_65536_333
      00175A 74 02            [12] 5338 	mov	a,#0x02
      00175C 2E               [12] 5339 	add	a,r6
      00175D F0               [24] 5340 	movx	@dptr,a
      00175E E4               [12] 5341 	clr	a
      00175F 3F               [12] 5342 	addc	a,r7
      001760 A3               [24] 5343 	inc	dptr
      001761 F0               [24] 5344 	movx	@dptr,a
                                   5345 ;	../../../core/net/rpl/rpl-icmp6.c:499: buffer[pos++] = 0; /* reserved */
      001762 90r00rA7         [24] 5346 	mov	dptr,#_dio_output_pos_65536_333
      001765 E0               [24] 5347 	movx	a,@dptr
      001766 FE               [12] 5348 	mov	r6,a
      001767 A3               [24] 5349 	inc	dptr
      001768 E0               [24] 5350 	movx	a,@dptr
      001769 FF               [12] 5351 	mov	r7,a
      00176A 90r00rA7         [24] 5352 	mov	dptr,#_dio_output_pos_65536_333
      00176D 74 01            [12] 5353 	mov	a,#0x01
      00176F 2E               [12] 5354 	add	a,r6
      001770 F0               [24] 5355 	movx	@dptr,a
      001771 E4               [12] 5356 	clr	a
      001772 3F               [12] 5357 	addc	a,r7
      001773 A3               [24] 5358 	inc	dptr
      001774 F0               [24] 5359 	movx	@dptr,a
      001775 E5 81            [12] 5360 	mov	a,sp
      001777 24 FB            [12] 5361 	add	a,#0xfb
      001779 F8               [12] 5362 	mov	r0,a
      00177A EE               [12] 5363 	mov	a,r6
      00177B 26               [12] 5364 	add	a,@r0
      00177C FE               [12] 5365 	mov	r6,a
      00177D EF               [12] 5366 	mov	a,r7
      00177E 08               [12] 5367 	inc	r0
      00177F 36               [12] 5368 	addc	a,@r0
      001780 FF               [12] 5369 	mov	r7,a
      001781 08               [12] 5370 	inc	r0
      001782 86 05            [24] 5371 	mov	ar5,@r0
      001784 8E 82            [24] 5372 	mov	dpl,r6
      001786 8F 83            [24] 5373 	mov	dph,r7
      001788 8D F0            [24] 5374 	mov	b,r5
      00178A E4               [12] 5375 	clr	a
      00178B 12r00r00         [24] 5376 	lcall	__gptrput
                                   5377 ;	../../../core/net/rpl/rpl-icmp6.c:500: buffer[pos++] = instance->default_lifetime;
      00178E 90r00rA7         [24] 5378 	mov	dptr,#_dio_output_pos_65536_333
      001791 E0               [24] 5379 	movx	a,@dptr
      001792 FE               [12] 5380 	mov	r6,a
      001793 A3               [24] 5381 	inc	dptr
      001794 E0               [24] 5382 	movx	a,@dptr
      001795 FF               [12] 5383 	mov	r7,a
      001796 90r00rA7         [24] 5384 	mov	dptr,#_dio_output_pos_65536_333
      001799 74 01            [12] 5385 	mov	a,#0x01
      00179B 2E               [12] 5386 	add	a,r6
      00179C F0               [24] 5387 	movx	@dptr,a
      00179D E4               [12] 5388 	clr	a
      00179E 3F               [12] 5389 	addc	a,r7
      00179F A3               [24] 5390 	inc	dptr
      0017A0 F0               [24] 5391 	movx	@dptr,a
      0017A1 E5 81            [12] 5392 	mov	a,sp
      0017A3 24 FB            [12] 5393 	add	a,#0xfb
      0017A5 F8               [12] 5394 	mov	r0,a
      0017A6 EE               [12] 5395 	mov	a,r6
      0017A7 26               [12] 5396 	add	a,@r0
      0017A8 FE               [12] 5397 	mov	r6,a
      0017A9 EF               [12] 5398 	mov	a,r7
      0017AA 08               [12] 5399 	inc	r0
      0017AB 36               [12] 5400 	addc	a,@r0
      0017AC FF               [12] 5401 	mov	r7,a
      0017AD 08               [12] 5402 	inc	r0
      0017AE 86 05            [24] 5403 	mov	ar5,@r0
      0017B0 E5 81            [12] 5404 	mov	a,sp
      0017B2 24 EE            [12] 5405 	add	a,#0xee
      0017B4 F8               [12] 5406 	mov	r0,a
      0017B5 74 8D            [12] 5407 	mov	a,#0x8d
      0017B7 26               [12] 5408 	add	a,@r0
      0017B8 FA               [12] 5409 	mov	r2,a
      0017B9 E4               [12] 5410 	clr	a
      0017BA 08               [12] 5411 	inc	r0
      0017BB 36               [12] 5412 	addc	a,@r0
      0017BC FB               [12] 5413 	mov	r3,a
      0017BD 08               [12] 5414 	inc	r0
      0017BE 86 04            [24] 5415 	mov	ar4,@r0
      0017C0 8A 82            [24] 5416 	mov	dpl,r2
      0017C2 8B 83            [24] 5417 	mov	dph,r3
      0017C4 8C F0            [24] 5418 	mov	b,r4
      0017C6 12r00r00         [24] 5419 	lcall	__gptrget
      0017C9 8E 82            [24] 5420 	mov	dpl,r6
      0017CB 8F 83            [24] 5421 	mov	dph,r7
      0017CD 8D F0            [24] 5422 	mov	b,r5
      0017CF 12r00r00         [24] 5423 	lcall	__gptrput
                                   5424 ;	../../../core/net/rpl/rpl-icmp6.c:501: set16(buffer, pos, instance->lifetime_unit);
      0017D2 E5 81            [12] 5425 	mov	a,sp
      0017D4 24 EE            [12] 5426 	add	a,#0xee
      0017D6 F8               [12] 5427 	mov	r0,a
      0017D7 74 95            [12] 5428 	mov	a,#0x95
      0017D9 26               [12] 5429 	add	a,@r0
      0017DA FD               [12] 5430 	mov	r5,a
      0017DB E4               [12] 5431 	clr	a
      0017DC 08               [12] 5432 	inc	r0
      0017DD 36               [12] 5433 	addc	a,@r0
      0017DE FE               [12] 5434 	mov	r6,a
      0017DF 08               [12] 5435 	inc	r0
      0017E0 86 07            [24] 5436 	mov	ar7,@r0
      0017E2 8D 82            [24] 5437 	mov	dpl,r5
      0017E4 8E 83            [24] 5438 	mov	dph,r6
      0017E6 8F F0            [24] 5439 	mov	b,r7
      0017E8 12r00r00         [24] 5440 	lcall	__gptrget
      0017EB FD               [12] 5441 	mov	r5,a
      0017EC A3               [24] 5442 	inc	dptr
      0017ED 12r00r00         [24] 5443 	lcall	__gptrget
      0017F0 FE               [12] 5444 	mov	r6,a
      0017F1 C0 05            [24] 5445 	push	ar5
      0017F3 C0 06            [24] 5446 	push	ar6
      0017F5 90r00rA7         [24] 5447 	mov	dptr,#_dio_output_pos_65536_333
      0017F8 E0               [24] 5448 	movx	a,@dptr
      0017F9 C0 E0            [24] 5449 	push	acc
      0017FB A3               [24] 5450 	inc	dptr
      0017FC E0               [24] 5451 	movx	a,@dptr
      0017FD C0 E0            [24] 5452 	push	acc
      0017FF E5 81            [12] 5453 	mov	a,sp
      001801 24 F7            [12] 5454 	add	a,#0xf7
      001803 F8               [12] 5455 	mov	r0,a
      001804 86 82            [24] 5456 	mov	dpl,@r0
      001806 08               [12] 5457 	inc	r0
      001807 86 83            [24] 5458 	mov	dph,@r0
      001809 08               [12] 5459 	inc	r0
      00180A 86 F0            [24] 5460 	mov	b,@r0
      00180C 78r79            [12] 5461 	mov	r0,#_set16
      00180E 79s03            [12] 5462 	mov	r1,#(_set16 >> 8)
      001810 7As00            [12] 5463 	mov	r2,#(_set16 >> 16)
      001812 12r00r00         [24] 5464 	lcall	__sdcc_banked_call
      001815 E5 81            [12] 5465 	mov	a,sp
      001817 24 FC            [12] 5466 	add	a,#0xfc
      001819 F5 81            [12] 5467 	mov	sp,a
                                   5468 ;	../../../core/net/rpl/rpl-icmp6.c:502: pos += 2;
      00181B 90r00rA7         [24] 5469 	mov	dptr,#_dio_output_pos_65536_333
      00181E E0               [24] 5470 	movx	a,@dptr
      00181F FE               [12] 5471 	mov	r6,a
      001820 A3               [24] 5472 	inc	dptr
      001821 E0               [24] 5473 	movx	a,@dptr
      001822 FF               [12] 5474 	mov	r7,a
      001823 90r00rA7         [24] 5475 	mov	dptr,#_dio_output_pos_65536_333
      001826 74 02            [12] 5476 	mov	a,#0x02
      001828 2E               [12] 5477 	add	a,r6
      001829 F0               [24] 5478 	movx	@dptr,a
      00182A E4               [12] 5479 	clr	a
      00182B 3F               [12] 5480 	addc	a,r7
      00182C A3               [24] 5481 	inc	dptr
      00182D F0               [24] 5482 	movx	@dptr,a
                                   5483 ;	../../../core/net/rpl/rpl-icmp6.c:505: if(dag->prefix_info.length > 0) {
      00182E A8 81            [24] 5484 	mov	r0,sp
      001830 18               [12] 5485 	dec	r0
      001831 18               [12] 5486 	dec	r0
      001832 E5 81            [12] 5487 	mov	a,sp
      001834 24 F8            [12] 5488 	add	a,#0xf8
      001836 F9               [12] 5489 	mov	r1,a
      001837 74 25            [12] 5490 	mov	a,#0x25
      001839 26               [12] 5491 	add	a,@r0
      00183A F7               [12] 5492 	mov	@r1,a
      00183B E4               [12] 5493 	clr	a
      00183C 08               [12] 5494 	inc	r0
      00183D 36               [12] 5495 	addc	a,@r0
      00183E 09               [12] 5496 	inc	r1
      00183F F7               [12] 5497 	mov	@r1,a
      001840 08               [12] 5498 	inc	r0
      001841 09               [12] 5499 	inc	r1
      001842 E6               [12] 5500 	mov	a,@r0
      001843 F7               [12] 5501 	mov	@r1,a
      001844 E5 81            [12] 5502 	mov	a,sp
      001846 24 F8            [12] 5503 	add	a,#0xf8
      001848 F8               [12] 5504 	mov	r0,a
      001849 74 14            [12] 5505 	mov	a,#0x14
      00184B 26               [12] 5506 	add	a,@r0
      00184C FF               [12] 5507 	mov	r7,a
      00184D E4               [12] 5508 	clr	a
      00184E 08               [12] 5509 	inc	r0
      00184F 36               [12] 5510 	addc	a,@r0
      001850 FE               [12] 5511 	mov	r6,a
      001851 08               [12] 5512 	inc	r0
      001852 86 05            [24] 5513 	mov	ar5,@r0
      001854 8F 82            [24] 5514 	mov	dpl,r7
      001856 8E 83            [24] 5515 	mov	dph,r6
      001858 8D F0            [24] 5516 	mov	b,r5
      00185A 12r00r00         [24] 5517 	lcall	__gptrget
      00185D 70 03            [24] 5518 	jnz	00159$
      00185F 02r1ArBE         [24] 5519 	ljmp	00112$
      001862                       5520 00159$:
                                   5521 ;	../../../core/net/rpl/rpl-icmp6.c:506: buffer[pos++] = RPL_OPTION_PREFIX_INFO;
      001862 90r00rA7         [24] 5522 	mov	dptr,#_dio_output_pos_65536_333
      001865 E0               [24] 5523 	movx	a,@dptr
      001866 FB               [12] 5524 	mov	r3,a
      001867 A3               [24] 5525 	inc	dptr
      001868 E0               [24] 5526 	movx	a,@dptr
      001869 FC               [12] 5527 	mov	r4,a
      00186A 90r00rA7         [24] 5528 	mov	dptr,#_dio_output_pos_65536_333
      00186D 74 01            [12] 5529 	mov	a,#0x01
      00186F 2B               [12] 5530 	add	a,r3
      001870 F0               [24] 5531 	movx	@dptr,a
      001871 E4               [12] 5532 	clr	a
      001872 3C               [12] 5533 	addc	a,r4
      001873 A3               [24] 5534 	inc	dptr
      001874 F0               [24] 5535 	movx	@dptr,a
      001875 E5 81            [12] 5536 	mov	a,sp
      001877 24 FB            [12] 5537 	add	a,#0xfb
      001879 F8               [12] 5538 	mov	r0,a
      00187A EB               [12] 5539 	mov	a,r3
      00187B 26               [12] 5540 	add	a,@r0
      00187C FB               [12] 5541 	mov	r3,a
      00187D EC               [12] 5542 	mov	a,r4
      00187E 08               [12] 5543 	inc	r0
      00187F 36               [12] 5544 	addc	a,@r0
      001880 FC               [12] 5545 	mov	r4,a
      001881 08               [12] 5546 	inc	r0
      001882 86 02            [24] 5547 	mov	ar2,@r0
      001884 8B 82            [24] 5548 	mov	dpl,r3
      001886 8C 83            [24] 5549 	mov	dph,r4
      001888 8A F0            [24] 5550 	mov	b,r2
      00188A 74 08            [12] 5551 	mov	a,#0x08
      00188C 12r00r00         [24] 5552 	lcall	__gptrput
                                   5553 ;	../../../core/net/rpl/rpl-icmp6.c:507: buffer[pos++] = 30; /* always 30 bytes + 2 long */
      00188F 90r00rA7         [24] 5554 	mov	dptr,#_dio_output_pos_65536_333
      001892 E0               [24] 5555 	movx	a,@dptr
      001893 FB               [12] 5556 	mov	r3,a
      001894 A3               [24] 5557 	inc	dptr
      001895 E0               [24] 5558 	movx	a,@dptr
      001896 FC               [12] 5559 	mov	r4,a
      001897 90r00rA7         [24] 5560 	mov	dptr,#_dio_output_pos_65536_333
      00189A 74 01            [12] 5561 	mov	a,#0x01
      00189C 2B               [12] 5562 	add	a,r3
      00189D F0               [24] 5563 	movx	@dptr,a
      00189E E4               [12] 5564 	clr	a
      00189F 3C               [12] 5565 	addc	a,r4
      0018A0 A3               [24] 5566 	inc	dptr
      0018A1 F0               [24] 5567 	movx	@dptr,a
      0018A2 E5 81            [12] 5568 	mov	a,sp
      0018A4 24 FB            [12] 5569 	add	a,#0xfb
      0018A6 F8               [12] 5570 	mov	r0,a
      0018A7 EB               [12] 5571 	mov	a,r3
      0018A8 26               [12] 5572 	add	a,@r0
      0018A9 FB               [12] 5573 	mov	r3,a
      0018AA EC               [12] 5574 	mov	a,r4
      0018AB 08               [12] 5575 	inc	r0
      0018AC 36               [12] 5576 	addc	a,@r0
      0018AD FC               [12] 5577 	mov	r4,a
      0018AE 08               [12] 5578 	inc	r0
      0018AF 86 02            [24] 5579 	mov	ar2,@r0
      0018B1 8B 82            [24] 5580 	mov	dpl,r3
      0018B3 8C 83            [24] 5581 	mov	dph,r4
      0018B5 8A F0            [24] 5582 	mov	b,r2
      0018B7 74 1E            [12] 5583 	mov	a,#0x1e
      0018B9 12r00r00         [24] 5584 	lcall	__gptrput
                                   5585 ;	../../../core/net/rpl/rpl-icmp6.c:508: buffer[pos++] = dag->prefix_info.length;
      0018BC 90r00rA7         [24] 5586 	mov	dptr,#_dio_output_pos_65536_333
      0018BF E0               [24] 5587 	movx	a,@dptr
      0018C0 FB               [12] 5588 	mov	r3,a
      0018C1 A3               [24] 5589 	inc	dptr
      0018C2 E0               [24] 5590 	movx	a,@dptr
      0018C3 FC               [12] 5591 	mov	r4,a
      0018C4 90r00rA7         [24] 5592 	mov	dptr,#_dio_output_pos_65536_333
      0018C7 74 01            [12] 5593 	mov	a,#0x01
      0018C9 2B               [12] 5594 	add	a,r3
      0018CA F0               [24] 5595 	movx	@dptr,a
      0018CB E4               [12] 5596 	clr	a
      0018CC 3C               [12] 5597 	addc	a,r4
      0018CD A3               [24] 5598 	inc	dptr
      0018CE F0               [24] 5599 	movx	@dptr,a
      0018CF E5 81            [12] 5600 	mov	a,sp
      0018D1 24 FB            [12] 5601 	add	a,#0xfb
      0018D3 F8               [12] 5602 	mov	r0,a
      0018D4 E5 81            [12] 5603 	mov	a,sp
      0018D6 24 F5            [12] 5604 	add	a,#0xf5
      0018D8 F9               [12] 5605 	mov	r1,a
      0018D9 EB               [12] 5606 	mov	a,r3
      0018DA 26               [12] 5607 	add	a,@r0
      0018DB F7               [12] 5608 	mov	@r1,a
      0018DC EC               [12] 5609 	mov	a,r4
      0018DD 08               [12] 5610 	inc	r0
      0018DE 36               [12] 5611 	addc	a,@r0
      0018DF 09               [12] 5612 	inc	r1
      0018E0 F7               [12] 5613 	mov	@r1,a
      0018E1 08               [12] 5614 	inc	r0
      0018E2 09               [12] 5615 	inc	r1
      0018E3 E6               [12] 5616 	mov	a,@r0
      0018E4 F7               [12] 5617 	mov	@r1,a
      0018E5 8F 82            [24] 5618 	mov	dpl,r7
      0018E7 8E 83            [24] 5619 	mov	dph,r6
      0018E9 8D F0            [24] 5620 	mov	b,r5
      0018EB 12r00r00         [24] 5621 	lcall	__gptrget
      0018EE FC               [12] 5622 	mov	r4,a
      0018EF E5 81            [12] 5623 	mov	a,sp
      0018F1 24 F5            [12] 5624 	add	a,#0xf5
      0018F3 F8               [12] 5625 	mov	r0,a
      0018F4 86 82            [24] 5626 	mov	dpl,@r0
      0018F6 08               [12] 5627 	inc	r0
      0018F7 86 83            [24] 5628 	mov	dph,@r0
      0018F9 08               [12] 5629 	inc	r0
      0018FA 86 F0            [24] 5630 	mov	b,@r0
      0018FC EC               [12] 5631 	mov	a,r4
      0018FD 12r00r00         [24] 5632 	lcall	__gptrput
                                   5633 ;	../../../core/net/rpl/rpl-icmp6.c:509: buffer[pos++] = dag->prefix_info.flags;
      001900 90r00rA7         [24] 5634 	mov	dptr,#_dio_output_pos_65536_333
      001903 E0               [24] 5635 	movx	a,@dptr
      001904 FB               [12] 5636 	mov	r3,a
      001905 A3               [24] 5637 	inc	dptr
      001906 E0               [24] 5638 	movx	a,@dptr
      001907 FC               [12] 5639 	mov	r4,a
      001908 90r00rA7         [24] 5640 	mov	dptr,#_dio_output_pos_65536_333
      00190B 74 01            [12] 5641 	mov	a,#0x01
      00190D 2B               [12] 5642 	add	a,r3
      00190E F0               [24] 5643 	movx	@dptr,a
      00190F E4               [12] 5644 	clr	a
      001910 3C               [12] 5645 	addc	a,r4
      001911 A3               [24] 5646 	inc	dptr
      001912 F0               [24] 5647 	movx	@dptr,a
      001913 E5 81            [12] 5648 	mov	a,sp
      001915 24 FB            [12] 5649 	add	a,#0xfb
      001917 F8               [12] 5650 	mov	r0,a
      001918 EB               [12] 5651 	mov	a,r3
      001919 26               [12] 5652 	add	a,@r0
      00191A FF               [12] 5653 	mov	r7,a
      00191B EC               [12] 5654 	mov	a,r4
      00191C 08               [12] 5655 	inc	r0
      00191D 36               [12] 5656 	addc	a,@r0
      00191E FE               [12] 5657 	mov	r6,a
      00191F 08               [12] 5658 	inc	r0
      001920 86 05            [24] 5659 	mov	ar5,@r0
      001922 E5 81            [12] 5660 	mov	a,sp
      001924 24 F8            [12] 5661 	add	a,#0xf8
      001926 F8               [12] 5662 	mov	r0,a
      001927 74 15            [12] 5663 	mov	a,#0x15
      001929 26               [12] 5664 	add	a,@r0
      00192A FA               [12] 5665 	mov	r2,a
      00192B E4               [12] 5666 	clr	a
      00192C 08               [12] 5667 	inc	r0
      00192D 36               [12] 5668 	addc	a,@r0
      00192E FB               [12] 5669 	mov	r3,a
      00192F 08               [12] 5670 	inc	r0
      001930 86 04            [24] 5671 	mov	ar4,@r0
      001932 8A 82            [24] 5672 	mov	dpl,r2
      001934 8B 83            [24] 5673 	mov	dph,r3
      001936 8C F0            [24] 5674 	mov	b,r4
      001938 12r00r00         [24] 5675 	lcall	__gptrget
      00193B 8F 82            [24] 5676 	mov	dpl,r7
      00193D 8E 83            [24] 5677 	mov	dph,r6
      00193F 8D F0            [24] 5678 	mov	b,r5
      001941 12r00r00         [24] 5679 	lcall	__gptrput
                                   5680 ;	../../../core/net/rpl/rpl-icmp6.c:510: set32(buffer, pos, dag->prefix_info.lifetime);
      001944 E5 81            [12] 5681 	mov	a,sp
      001946 24 F8            [12] 5682 	add	a,#0xf8
      001948 F8               [12] 5683 	mov	r0,a
      001949 E5 81            [12] 5684 	mov	a,sp
      00194B 24 F5            [12] 5685 	add	a,#0xf5
      00194D F9               [12] 5686 	mov	r1,a
      00194E 74 10            [12] 5687 	mov	a,#0x10
      001950 26               [12] 5688 	add	a,@r0
      001951 F7               [12] 5689 	mov	@r1,a
      001952 E4               [12] 5690 	clr	a
      001953 08               [12] 5691 	inc	r0
      001954 36               [12] 5692 	addc	a,@r0
      001955 09               [12] 5693 	inc	r1
      001956 F7               [12] 5694 	mov	@r1,a
      001957 08               [12] 5695 	inc	r0
      001958 09               [12] 5696 	inc	r1
      001959 E6               [12] 5697 	mov	a,@r0
      00195A F7               [12] 5698 	mov	@r1,a
      00195B E5 81            [12] 5699 	mov	a,sp
      00195D 24 F5            [12] 5700 	add	a,#0xf5
      00195F F8               [12] 5701 	mov	r0,a
      001960 86 82            [24] 5702 	mov	dpl,@r0
      001962 08               [12] 5703 	inc	r0
      001963 86 83            [24] 5704 	mov	dph,@r0
      001965 08               [12] 5705 	inc	r0
      001966 86 F0            [24] 5706 	mov	b,@r0
      001968 12r00r00         [24] 5707 	lcall	__gptrget
      00196B FA               [12] 5708 	mov	r2,a
      00196C A3               [24] 5709 	inc	dptr
      00196D 12r00r00         [24] 5710 	lcall	__gptrget
      001970 FB               [12] 5711 	mov	r3,a
      001971 A3               [24] 5712 	inc	dptr
      001972 12r00r00         [24] 5713 	lcall	__gptrget
      001975 FC               [12] 5714 	mov	r4,a
      001976 A3               [24] 5715 	inc	dptr
      001977 12r00r00         [24] 5716 	lcall	__gptrget
      00197A FF               [12] 5717 	mov	r7,a
      00197B C0 02            [24] 5718 	push	ar2
      00197D C0 03            [24] 5719 	push	ar3
      00197F C0 04            [24] 5720 	push	ar4
      001981 C0 07            [24] 5721 	push	ar7
      001983 90r00rA7         [24] 5722 	mov	dptr,#_dio_output_pos_65536_333
      001986 E0               [24] 5723 	movx	a,@dptr
      001987 C0 E0            [24] 5724 	push	acc
      001989 A3               [24] 5725 	inc	dptr
      00198A E0               [24] 5726 	movx	a,@dptr
      00198B C0 E0            [24] 5727 	push	acc
      00198D E5 81            [12] 5728 	mov	a,sp
      00198F 24 F5            [12] 5729 	add	a,#0xf5
      001991 F8               [12] 5730 	mov	r0,a
      001992 86 82            [24] 5731 	mov	dpl,@r0
      001994 08               [12] 5732 	inc	r0
      001995 86 83            [24] 5733 	mov	dph,@r0
      001997 08               [12] 5734 	inc	r0
      001998 86 F0            [24] 5735 	mov	b,@r0
      00199A 78r3A            [12] 5736 	mov	r0,#_set32
      00199C 79s02            [12] 5737 	mov	r1,#(_set32 >> 8)
      00199E 7As00            [12] 5738 	mov	r2,#(_set32 >> 16)
      0019A0 12r00r00         [24] 5739 	lcall	__sdcc_banked_call
      0019A3 E5 81            [12] 5740 	mov	a,sp
      0019A5 24 FA            [12] 5741 	add	a,#0xfa
      0019A7 F5 81            [12] 5742 	mov	sp,a
                                   5743 ;	../../../core/net/rpl/rpl-icmp6.c:511: pos += 4;
      0019A9 90r00rA7         [24] 5744 	mov	dptr,#_dio_output_pos_65536_333
      0019AC E0               [24] 5745 	movx	a,@dptr
      0019AD FE               [12] 5746 	mov	r6,a
      0019AE A3               [24] 5747 	inc	dptr
      0019AF E0               [24] 5748 	movx	a,@dptr
      0019B0 FF               [12] 5749 	mov	r7,a
      0019B1 90r00rA7         [24] 5750 	mov	dptr,#_dio_output_pos_65536_333
      0019B4 74 04            [12] 5751 	mov	a,#0x04
      0019B6 2E               [12] 5752 	add	a,r6
      0019B7 F0               [24] 5753 	movx	@dptr,a
      0019B8 E4               [12] 5754 	clr	a
      0019B9 3F               [12] 5755 	addc	a,r7
      0019BA A3               [24] 5756 	inc	dptr
      0019BB F0               [24] 5757 	movx	@dptr,a
                                   5758 ;	../../../core/net/rpl/rpl-icmp6.c:512: set32(buffer, pos, dag->prefix_info.lifetime);
      0019BC E5 81            [12] 5759 	mov	a,sp
      0019BE 24 F5            [12] 5760 	add	a,#0xf5
      0019C0 F8               [12] 5761 	mov	r0,a
      0019C1 86 82            [24] 5762 	mov	dpl,@r0
      0019C3 08               [12] 5763 	inc	r0
      0019C4 86 83            [24] 5764 	mov	dph,@r0
      0019C6 08               [12] 5765 	inc	r0
      0019C7 86 F0            [24] 5766 	mov	b,@r0
      0019C9 12r00r00         [24] 5767 	lcall	__gptrget
      0019CC FC               [12] 5768 	mov	r4,a
      0019CD A3               [24] 5769 	inc	dptr
      0019CE 12r00r00         [24] 5770 	lcall	__gptrget
      0019D1 FD               [12] 5771 	mov	r5,a
      0019D2 A3               [24] 5772 	inc	dptr
      0019D3 12r00r00         [24] 5773 	lcall	__gptrget
      0019D6 FE               [12] 5774 	mov	r6,a
      0019D7 A3               [24] 5775 	inc	dptr
      0019D8 12r00r00         [24] 5776 	lcall	__gptrget
      0019DB FF               [12] 5777 	mov	r7,a
      0019DC C0 04            [24] 5778 	push	ar4
      0019DE C0 05            [24] 5779 	push	ar5
      0019E0 C0 06            [24] 5780 	push	ar6
      0019E2 C0 07            [24] 5781 	push	ar7
      0019E4 90r00rA7         [24] 5782 	mov	dptr,#_dio_output_pos_65536_333
      0019E7 E0               [24] 5783 	movx	a,@dptr
      0019E8 C0 E0            [24] 5784 	push	acc
      0019EA A3               [24] 5785 	inc	dptr
      0019EB E0               [24] 5786 	movx	a,@dptr
      0019EC C0 E0            [24] 5787 	push	acc
      0019EE E5 81            [12] 5788 	mov	a,sp
      0019F0 24 F5            [12] 5789 	add	a,#0xf5
      0019F2 F8               [12] 5790 	mov	r0,a
      0019F3 86 82            [24] 5791 	mov	dpl,@r0
      0019F5 08               [12] 5792 	inc	r0
      0019F6 86 83            [24] 5793 	mov	dph,@r0
      0019F8 08               [12] 5794 	inc	r0
      0019F9 86 F0            [24] 5795 	mov	b,@r0
      0019FB 78r3A            [12] 5796 	mov	r0,#_set32
      0019FD 79s02            [12] 5797 	mov	r1,#(_set32 >> 8)
      0019FF 7As00            [12] 5798 	mov	r2,#(_set32 >> 16)
      001A01 12r00r00         [24] 5799 	lcall	__sdcc_banked_call
      001A04 E5 81            [12] 5800 	mov	a,sp
      001A06 24 FA            [12] 5801 	add	a,#0xfa
      001A08 F5 81            [12] 5802 	mov	sp,a
                                   5803 ;	../../../core/net/rpl/rpl-icmp6.c:513: pos += 4;
      001A0A 90r00rA7         [24] 5804 	mov	dptr,#_dio_output_pos_65536_333
      001A0D E0               [24] 5805 	movx	a,@dptr
      001A0E FE               [12] 5806 	mov	r6,a
      001A0F A3               [24] 5807 	inc	dptr
      001A10 E0               [24] 5808 	movx	a,@dptr
      001A11 FF               [12] 5809 	mov	r7,a
      001A12 90r00rA7         [24] 5810 	mov	dptr,#_dio_output_pos_65536_333
      001A15 74 04            [12] 5811 	mov	a,#0x04
      001A17 2E               [12] 5812 	add	a,r6
      001A18 F0               [24] 5813 	movx	@dptr,a
      001A19 E4               [12] 5814 	clr	a
      001A1A 3F               [12] 5815 	addc	a,r7
      001A1B A3               [24] 5816 	inc	dptr
      001A1C F0               [24] 5817 	movx	@dptr,a
                                   5818 ;	../../../core/net/rpl/rpl-icmp6.c:514: memset(&buffer[pos], 0, 4);
      001A1D 90r00rA7         [24] 5819 	mov	dptr,#_dio_output_pos_65536_333
      001A20 E0               [24] 5820 	movx	a,@dptr
      001A21 FE               [12] 5821 	mov	r6,a
      001A22 A3               [24] 5822 	inc	dptr
      001A23 E0               [24] 5823 	movx	a,@dptr
      001A24 FF               [12] 5824 	mov	r7,a
      001A25 E5 81            [12] 5825 	mov	a,sp
      001A27 24 FB            [12] 5826 	add	a,#0xfb
      001A29 F8               [12] 5827 	mov	r0,a
      001A2A EE               [12] 5828 	mov	a,r6
      001A2B 26               [12] 5829 	add	a,@r0
      001A2C FE               [12] 5830 	mov	r6,a
      001A2D EF               [12] 5831 	mov	a,r7
      001A2E 08               [12] 5832 	inc	r0
      001A2F 36               [12] 5833 	addc	a,@r0
      001A30 FF               [12] 5834 	mov	r7,a
      001A31 08               [12] 5835 	inc	r0
      001A32 86 05            [24] 5836 	mov	ar5,@r0
      001A34 74 04            [12] 5837 	mov	a,#0x04
      001A36 C0 E0            [24] 5838 	push	acc
      001A38 E4               [12] 5839 	clr	a
      001A39 C0 E0            [24] 5840 	push	acc
      001A3B C0 E0            [24] 5841 	push	acc
      001A3D 8E 82            [24] 5842 	mov	dpl,r6
      001A3F 8F 83            [24] 5843 	mov	dph,r7
      001A41 8D F0            [24] 5844 	mov	b,r5
      001A43 78r00            [12] 5845 	mov	r0,#_memset
      001A45 79s00            [12] 5846 	mov	r1,#(_memset >> 8)
      001A47 7As00            [12] 5847 	mov	r2,#(_memset >> 16)
      001A49 12r00r00         [24] 5848 	lcall	__sdcc_banked_call
      001A4C 15 81            [12] 5849 	dec	sp
      001A4E 15 81            [12] 5850 	dec	sp
      001A50 15 81            [12] 5851 	dec	sp
                                   5852 ;	../../../core/net/rpl/rpl-icmp6.c:515: pos += 4;
      001A52 90r00rA7         [24] 5853 	mov	dptr,#_dio_output_pos_65536_333
      001A55 E0               [24] 5854 	movx	a,@dptr
      001A56 FE               [12] 5855 	mov	r6,a
      001A57 A3               [24] 5856 	inc	dptr
      001A58 E0               [24] 5857 	movx	a,@dptr
      001A59 FF               [12] 5858 	mov	r7,a
      001A5A 90r00rA7         [24] 5859 	mov	dptr,#_dio_output_pos_65536_333
      001A5D 74 04            [12] 5860 	mov	a,#0x04
      001A5F 2E               [12] 5861 	add	a,r6
      001A60 F0               [24] 5862 	movx	@dptr,a
      001A61 E4               [12] 5863 	clr	a
      001A62 3F               [12] 5864 	addc	a,r7
      001A63 A3               [24] 5865 	inc	dptr
      001A64 F0               [24] 5866 	movx	@dptr,a
                                   5867 ;	../../../core/net/rpl/rpl-icmp6.c:516: memcpy(&buffer[pos], &dag->prefix_info.prefix, 16);
      001A65 E5 81            [12] 5868 	mov	a,sp
      001A67 24 F8            [12] 5869 	add	a,#0xf8
      001A69 F8               [12] 5870 	mov	r0,a
      001A6A 86 05            [24] 5871 	mov	ar5,@r0
      001A6C 08               [12] 5872 	inc	r0
      001A6D 86 06            [24] 5873 	mov	ar6,@r0
      001A6F 08               [12] 5874 	inc	r0
      001A70 86 07            [24] 5875 	mov	ar7,@r0
      001A72 90r00rA7         [24] 5876 	mov	dptr,#_dio_output_pos_65536_333
      001A75 E0               [24] 5877 	movx	a,@dptr
      001A76 FB               [12] 5878 	mov	r3,a
      001A77 A3               [24] 5879 	inc	dptr
      001A78 E0               [24] 5880 	movx	a,@dptr
      001A79 FC               [12] 5881 	mov	r4,a
      001A7A E5 81            [12] 5882 	mov	a,sp
      001A7C 24 FB            [12] 5883 	add	a,#0xfb
      001A7E F8               [12] 5884 	mov	r0,a
      001A7F EB               [12] 5885 	mov	a,r3
      001A80 26               [12] 5886 	add	a,@r0
      001A81 FB               [12] 5887 	mov	r3,a
      001A82 EC               [12] 5888 	mov	a,r4
      001A83 08               [12] 5889 	inc	r0
      001A84 36               [12] 5890 	addc	a,@r0
      001A85 FC               [12] 5891 	mov	r4,a
      001A86 08               [12] 5892 	inc	r0
      001A87 86 02            [24] 5893 	mov	ar2,@r0
      001A89 74 10            [12] 5894 	mov	a,#0x10
      001A8B C0 E0            [24] 5895 	push	acc
      001A8D E4               [12] 5896 	clr	a
      001A8E C0 E0            [24] 5897 	push	acc
      001A90 C0 05            [24] 5898 	push	ar5
      001A92 C0 06            [24] 5899 	push	ar6
      001A94 C0 07            [24] 5900 	push	ar7
      001A96 8B 82            [24] 5901 	mov	dpl,r3
      001A98 8C 83            [24] 5902 	mov	dph,r4
      001A9A 8A F0            [24] 5903 	mov	b,r2
      001A9C 78r00            [12] 5904 	mov	r0,#___memcpy
      001A9E 79s00            [12] 5905 	mov	r1,#(___memcpy >> 8)
      001AA0 7As00            [12] 5906 	mov	r2,#(___memcpy >> 16)
      001AA2 12r00r00         [24] 5907 	lcall	__sdcc_banked_call
      001AA5 E5 81            [12] 5908 	mov	a,sp
      001AA7 24 FB            [12] 5909 	add	a,#0xfb
      001AA9 F5 81            [12] 5910 	mov	sp,a
                                   5911 ;	../../../core/net/rpl/rpl-icmp6.c:517: pos += 16;
      001AAB 90r00rA7         [24] 5912 	mov	dptr,#_dio_output_pos_65536_333
      001AAE E0               [24] 5913 	movx	a,@dptr
      001AAF FE               [12] 5914 	mov	r6,a
      001AB0 A3               [24] 5915 	inc	dptr
      001AB1 E0               [24] 5916 	movx	a,@dptr
      001AB2 FF               [12] 5917 	mov	r7,a
      001AB3 90r00rA7         [24] 5918 	mov	dptr,#_dio_output_pos_65536_333
      001AB6 74 10            [12] 5919 	mov	a,#0x10
      001AB8 2E               [12] 5920 	add	a,r6
      001AB9 F0               [24] 5921 	movx	@dptr,a
      001ABA E4               [12] 5922 	clr	a
      001ABB 3F               [12] 5923 	addc	a,r7
      001ABC A3               [24] 5924 	inc	dptr
      001ABD F0               [24] 5925 	movx	@dptr,a
      001ABE                       5926 00112$:
                                   5927 ;	../../../core/net/rpl/rpl-icmp6.c:534: if(uc_addr == NULL) {
      001ABE E5 81            [12] 5928 	mov	a,sp
      001AC0 24 E8            [12] 5929 	add	a,#0xe8
      001AC2 F8               [12] 5930 	mov	r0,a
      001AC3 E6               [12] 5931 	mov	a,@r0
      001AC4 08               [12] 5932 	inc	r0
      001AC5 46               [12] 5933 	orl	a,@r0
      001AC6 70 5F            [24] 5934 	jnz	00117$
                                   5935 ;	../../../core/net/rpl/rpl-icmp6.c:537: uip_create_linklocal_rplnodes_mcast(&addr);
      001AC8 90r00r00         [24] 5936 	mov	dptr,#_addr
      001ACB 74 FF            [12] 5937 	mov	a,#0xff
      001ACD F0               [24] 5938 	movx	@dptr,a
      001ACE 74 02            [12] 5939 	mov	a,#0x02
      001AD0 A3               [24] 5940 	inc	dptr
      001AD1 F0               [24] 5941 	movx	@dptr,a
      001AD2 90r00r02         [24] 5942 	mov	dptr,#(_addr + 0x0002)
      001AD5 E4               [12] 5943 	clr	a
      001AD6 F0               [24] 5944 	movx	@dptr,a
      001AD7 A3               [24] 5945 	inc	dptr
      001AD8 F0               [24] 5946 	movx	@dptr,a
      001AD9 90r00r04         [24] 5947 	mov	dptr,#(_addr + 0x0004)
      001ADC F0               [24] 5948 	movx	@dptr,a
      001ADD A3               [24] 5949 	inc	dptr
      001ADE F0               [24] 5950 	movx	@dptr,a
      001ADF 90r00r06         [24] 5951 	mov	dptr,#(_addr + 0x0006)
      001AE2 F0               [24] 5952 	movx	@dptr,a
      001AE3 A3               [24] 5953 	inc	dptr
      001AE4 F0               [24] 5954 	movx	@dptr,a
      001AE5 90r00r08         [24] 5955 	mov	dptr,#(_addr + 0x0008)
      001AE8 F0               [24] 5956 	movx	@dptr,a
      001AE9 A3               [24] 5957 	inc	dptr
      001AEA F0               [24] 5958 	movx	@dptr,a
      001AEB 90r00r0A         [24] 5959 	mov	dptr,#(_addr + 0x000a)
      001AEE F0               [24] 5960 	movx	@dptr,a
      001AEF A3               [24] 5961 	inc	dptr
      001AF0 F0               [24] 5962 	movx	@dptr,a
      001AF1 90r00r0C         [24] 5963 	mov	dptr,#(_addr + 0x000c)
      001AF4 F0               [24] 5964 	movx	@dptr,a
      001AF5 A3               [24] 5965 	inc	dptr
      001AF6 F0               [24] 5966 	movx	@dptr,a
      001AF7 90r00r0E         [24] 5967 	mov	dptr,#(_addr + 0x000e)
      001AFA F0               [24] 5968 	movx	@dptr,a
      001AFB 74 1A            [12] 5969 	mov	a,#0x1a
      001AFD A3               [24] 5970 	inc	dptr
      001AFE F0               [24] 5971 	movx	@dptr,a
                                   5972 ;	../../../core/net/rpl/rpl-icmp6.c:538: uip_icmp6_send(&addr, ICMP6_RPL, RPL_CODE_DIO, pos);
      001AFF 90r00rA7         [24] 5973 	mov	dptr,#_dio_output_pos_65536_333
      001B02 E0               [24] 5974 	movx	a,@dptr
      001B03 FE               [12] 5975 	mov	r6,a
      001B04 A3               [24] 5976 	inc	dptr
      001B05 E0               [24] 5977 	movx	a,@dptr
      001B06 C0 06            [24] 5978 	push	ar6
      001B08 74 01            [12] 5979 	mov	a,#0x01
      001B0A C0 E0            [24] 5980 	push	acc
      001B0C 74 9B            [12] 5981 	mov	a,#0x9b
      001B0E C0 E0            [24] 5982 	push	acc
      001B10 90r00r00         [24] 5983 	mov	dptr,#_addr
      001B13 75 F0 00         [24] 5984 	mov	b,#0x00
      001B16 78r00            [12] 5985 	mov	r0,#_uip_icmp6_send
      001B18 79s00            [12] 5986 	mov	r1,#(_uip_icmp6_send >> 8)
      001B1A 7As00            [12] 5987 	mov	r2,#(_uip_icmp6_send >> 16)
      001B1C 12r00r00         [24] 5988 	lcall	__sdcc_banked_call
      001B1F 15 81            [12] 5989 	dec	sp
      001B21 15 81            [12] 5990 	dec	sp
      001B23 15 81            [12] 5991 	dec	sp
      001B25 80 2D            [24] 5992 	sjmp	00119$
      001B27                       5993 00117$:
                                   5994 ;	../../../core/net/rpl/rpl-icmp6.c:544: uip_icmp6_send(uc_addr, ICMP6_RPL, RPL_CODE_DIO, pos);
      001B27 90r00rA7         [24] 5995 	mov	dptr,#_dio_output_pos_65536_333
      001B2A E0               [24] 5996 	movx	a,@dptr
      001B2B FE               [12] 5997 	mov	r6,a
      001B2C A3               [24] 5998 	inc	dptr
      001B2D E0               [24] 5999 	movx	a,@dptr
      001B2E C0 06            [24] 6000 	push	ar6
      001B30 74 01            [12] 6001 	mov	a,#0x01
      001B32 C0 E0            [24] 6002 	push	acc
      001B34 74 9B            [12] 6003 	mov	a,#0x9b
      001B36 C0 E0            [24] 6004 	push	acc
      001B38 E5 81            [12] 6005 	mov	a,sp
      001B3A 24 E5            [12] 6006 	add	a,#0xe5
      001B3C F8               [12] 6007 	mov	r0,a
      001B3D 86 82            [24] 6008 	mov	dpl,@r0
      001B3F 08               [12] 6009 	inc	r0
      001B40 86 83            [24] 6010 	mov	dph,@r0
      001B42 08               [12] 6011 	inc	r0
      001B43 86 F0            [24] 6012 	mov	b,@r0
      001B45 78r00            [12] 6013 	mov	r0,#_uip_icmp6_send
      001B47 79s00            [12] 6014 	mov	r1,#(_uip_icmp6_send >> 8)
      001B49 7As00            [12] 6015 	mov	r2,#(_uip_icmp6_send >> 16)
      001B4B 12r00r00         [24] 6016 	lcall	__sdcc_banked_call
      001B4E 15 81            [12] 6017 	dec	sp
      001B50 15 81            [12] 6018 	dec	sp
      001B52 15 81            [12] 6019 	dec	sp
      001B54                       6020 00119$:
                                   6021 ;	../../../core/net/rpl/rpl-icmp6.c:547: }
      001B54 E5 81            [12] 6022 	mov	a,sp
      001B56 24 ED            [12] 6023 	add	a,#0xed
      001B58 F5 81            [12] 6024 	mov	sp,a
      001B5A 02r00r00         [24] 6025 	ljmp	__sdcc_banked_ret
                                   6026 ;------------------------------------------------------------
                                   6027 ;Allocation info for local variables in function 'dao_input'
                                   6028 ;------------------------------------------------------------
                                   6029 ;dag                       Allocated to stack - sp -8
                                   6030 ;instance                  Allocated to stack - sp -5
                                   6031 ;buffer                    Allocated to stack - sp -2
                                   6032 ;flags                     Allocated to stack - sp -19
                                   6033 ;subopt_type               Allocated to registers r7 
                                   6034 ;pathcontrol               Allocated to registers 
                                   6035 ;pathsequence              Allocated to registers 
                                   6036 ;rep                       Allocated to stack - sp -18
                                   6037 ;len                       Allocated to registers r3 r2 
                                   6038 ;i                         Allocated to stack - sp -15
                                   6039 ;learned_from              Allocated to stack - sp -13
                                   6040 ;p                         Allocated to stack - sp -11
                                   6041 ;sloc0                     Allocated to stack - sp -32
                                   6042 ;sloc1                     Allocated to stack - sp -29
                                   6043 ;sloc2                     Allocated to stack - sp -26
                                   6044 ;sloc3                     Allocated to stack - sp -23
                                   6045 ;sequence                  Allocated with name '_dao_input_sequence_65536_345'
                                   6046 ;instance_id               Allocated with name '_dao_input_instance_id_65536_345'
                                   6047 ;lifetime                  Allocated with name '_dao_input_lifetime_65536_345'
                                   6048 ;prefixlen                 Allocated with name '_dao_input_prefixlen_65536_345'
                                   6049 ;buffer_length             Allocated with name '_dao_input_buffer_length_65536_345'
                                   6050 ;pos                       Allocated with name '_dao_input_pos_65536_345'
                                   6051 ;------------------------------------------------------------
                                   6052 ;	../../../core/net/rpl/rpl-icmp6.c:550: dao_input(void)
                                   6053 ;	-----------------------------------------
                                   6054 ;	 function dao_input
                                   6055 ;	-----------------------------------------
      001B5D                       6056 _dao_input:
      001B5D E5 81            [12] 6057 	mov	a,sp
      001B5F 24 21            [12] 6058 	add	a,#0x21
      001B61 F5 81            [12] 6059 	mov	sp,a
                                   6060 ;	../../../core/net/rpl/rpl-icmp6.c:571: prefixlen = 0;
      001B63 90r00rAD         [24] 6061 	mov	dptr,#_dao_input_prefixlen_65536_345
      001B66 E4               [12] 6062 	clr	a
      001B67 F0               [24] 6063 	movx	@dptr,a
                                   6064 ;	../../../core/net/rpl/rpl-icmp6.c:573: uip_ipaddr_copy(&dao_sender_addr, &UIP_IP_BUF->srcipaddr);
      001B68 74 10            [12] 6065 	mov	a,#0x10
      001B6A C0 E0            [24] 6066 	push	acc
      001B6C E4               [12] 6067 	clr	a
      001B6D C0 E0            [24] 6068 	push	acc
      001B6F 74r08            [12] 6069 	mov	a,#(_uip_aligned_buf + 0x0008)
      001B71 C0 E0            [24] 6070 	push	acc
      001B73 74s00            [12] 6071 	mov	a,#((_uip_aligned_buf + 0x0008) >> 8)
      001B75 C0 E0            [24] 6072 	push	acc
      001B77 E4               [12] 6073 	clr	a
      001B78 C0 E0            [24] 6074 	push	acc
      001B7A 90r00r87         [24] 6075 	mov	dptr,#_dao_sender_addr
      001B7D 75 F0 00         [24] 6076 	mov	b,#0x00
      001B80 78r00            [12] 6077 	mov	r0,#___memcpy
      001B82 79s00            [12] 6078 	mov	r1,#(___memcpy >> 8)
      001B84 7As00            [12] 6079 	mov	r2,#(___memcpy >> 16)
      001B86 12r00r00         [24] 6080 	lcall	__sdcc_banked_call
      001B89 E5 81            [12] 6081 	mov	a,sp
      001B8B 24 FB            [12] 6082 	add	a,#0xfb
      001B8D F5 81            [12] 6083 	mov	sp,a
                                   6084 ;	../../../core/net/rpl/rpl-icmp6.c:580: buffer = UIP_ICMP_PAYLOAD;
      001B8F 90r00r00         [24] 6085 	mov	dptr,#_uip_ext_len
      001B92 E0               [24] 6086 	movx	a,@dptr
      001B93 FF               [12] 6087 	mov	r7,a
      001B94 FD               [12] 6088 	mov	r5,a
      001B95 7E 00            [12] 6089 	mov	r6,#0x00
      001B97 74 2C            [12] 6090 	mov	a,#0x2c
      001B99 2D               [12] 6091 	add	a,r5
      001B9A FD               [12] 6092 	mov	r5,a
      001B9B E4               [12] 6093 	clr	a
      001B9C 3E               [12] 6094 	addc	a,r6
      001B9D FE               [12] 6095 	mov	r6,a
      001B9E ED               [12] 6096 	mov	a,r5
      001B9F 24r00            [12] 6097 	add	a,#_uip_aligned_buf
      001BA1 FD               [12] 6098 	mov	r5,a
      001BA2 EE               [12] 6099 	mov	a,r6
      001BA3 34s00            [12] 6100 	addc	a,#(_uip_aligned_buf >> 8)
      001BA5 FE               [12] 6101 	mov	r6,a
      001BA6 A8 81            [24] 6102 	mov	r0,sp
      001BA8 18               [12] 6103 	dec	r0
      001BA9 18               [12] 6104 	dec	r0
      001BAA A6 05            [24] 6105 	mov	@r0,ar5
      001BAC 08               [12] 6106 	inc	r0
      001BAD A6 06            [24] 6107 	mov	@r0,ar6
      001BAF 08               [12] 6108 	inc	r0
      001BB0 76 00            [12] 6109 	mov	@r0,#0x00
                                   6110 ;	../../../core/net/rpl/rpl-icmp6.c:581: buffer_length = uip_len - uip_l3_icmp_hdr_len;
      001BB2 90r00r00         [24] 6111 	mov	dptr,#_uip_len
      001BB5 E0               [24] 6112 	movx	a,@dptr
      001BB6 FA               [12] 6113 	mov	r2,a
      001BB7 A3               [24] 6114 	inc	dptr
      001BB8 E0               [24] 6115 	movx	a,@dptr
      001BB9 74 2C            [12] 6116 	mov	a,#0x2c
      001BBB 2F               [12] 6117 	add	a,r7
      001BBC FF               [12] 6118 	mov	r7,a
      001BBD 90r00rAE         [24] 6119 	mov	dptr,#_dao_input_buffer_length_65536_345
      001BC0 EA               [12] 6120 	mov	a,r2
      001BC1 C3               [12] 6121 	clr	c
      001BC2 9F               [12] 6122 	subb	a,r7
      001BC3 F0               [24] 6123 	movx	@dptr,a
                                   6124 ;	../../../core/net/rpl/rpl-icmp6.c:584: instance_id = buffer[pos++];
      001BC4 90r00rAF         [24] 6125 	mov	dptr,#_dao_input_pos_65536_345
      001BC7 74 01            [12] 6126 	mov	a,#0x01
      001BC9 F0               [24] 6127 	movx	@dptr,a
      001BCA E4               [12] 6128 	clr	a
      001BCB A3               [24] 6129 	inc	dptr
      001BCC F0               [24] 6130 	movx	@dptr,a
      001BCD A8 81            [24] 6131 	mov	r0,sp
      001BCF 18               [12] 6132 	dec	r0
      001BD0 18               [12] 6133 	dec	r0
      001BD1 86 82            [24] 6134 	mov	dpl,@r0
      001BD3 08               [12] 6135 	inc	r0
      001BD4 86 83            [24] 6136 	mov	dph,@r0
      001BD6 08               [12] 6137 	inc	r0
      001BD7 86 F0            [24] 6138 	mov	b,@r0
      001BD9 12r00r00         [24] 6139 	lcall	__gptrget
      001BDC FF               [12] 6140 	mov	r7,a
      001BDD 90r00rAB         [24] 6141 	mov	dptr,#_dao_input_instance_id_65536_345
      001BE0 F0               [24] 6142 	movx	@dptr,a
                                   6143 ;	../../../core/net/rpl/rpl-icmp6.c:586: instance = rpl_get_instance(instance_id);
      001BE1 8F 82            [24] 6144 	mov	dpl,r7
      001BE3 78r00            [12] 6145 	mov	r0,#_rpl_get_instance
      001BE5 79s00            [12] 6146 	mov	r1,#(_rpl_get_instance >> 8)
      001BE7 7As00            [12] 6147 	mov	r2,#(_rpl_get_instance >> 16)
      001BE9 12r00r00         [24] 6148 	lcall	__sdcc_banked_call
      001BEC AA 82            [24] 6149 	mov	r2,dpl
      001BEE AB 83            [24] 6150 	mov	r3,dph
      001BF0 AF F0            [24] 6151 	mov	r7,b
      001BF2 E5 81            [12] 6152 	mov	a,sp
      001BF4 24 FB            [12] 6153 	add	a,#0xfb
      001BF6 F8               [12] 6154 	mov	r0,a
      001BF7 A6 02            [24] 6155 	mov	@r0,ar2
      001BF9 08               [12] 6156 	inc	r0
      001BFA A6 03            [24] 6157 	mov	@r0,ar3
      001BFC 08               [12] 6158 	inc	r0
      001BFD A6 07            [24] 6159 	mov	@r0,ar7
                                   6160 ;	../../../core/net/rpl/rpl-icmp6.c:587: if(instance == NULL) {
      001BFF E5 81            [12] 6161 	mov	a,sp
      001C01 24 FB            [12] 6162 	add	a,#0xfb
      001C03 F8               [12] 6163 	mov	r0,a
      001C04 E6               [12] 6164 	mov	a,@r0
      001C05 08               [12] 6165 	inc	r0
      001C06 46               [12] 6166 	orl	a,@r0
      001C07 70 03            [24] 6167 	jnz	00102$
                                   6168 ;	../../../core/net/rpl/rpl-icmp6.c:590: return;
      001C09 02r22rE2         [24] 6169 	ljmp	00136$
      001C0C                       6170 00102$:
                                   6171 ;	../../../core/net/rpl/rpl-icmp6.c:593: lifetime = instance->default_lifetime;
      001C0C E5 81            [12] 6172 	mov	a,sp
      001C0E 24 FB            [12] 6173 	add	a,#0xfb
      001C10 F8               [12] 6174 	mov	r0,a
      001C11 74 8D            [12] 6175 	mov	a,#0x8d
      001C13 26               [12] 6176 	add	a,@r0
      001C14 FA               [12] 6177 	mov	r2,a
      001C15 E4               [12] 6178 	clr	a
      001C16 08               [12] 6179 	inc	r0
      001C17 36               [12] 6180 	addc	a,@r0
      001C18 FB               [12] 6181 	mov	r3,a
      001C19 08               [12] 6182 	inc	r0
      001C1A 86 07            [24] 6183 	mov	ar7,@r0
      001C1C 8A 82            [24] 6184 	mov	dpl,r2
      001C1E 8B 83            [24] 6185 	mov	dph,r3
      001C20 8F F0            [24] 6186 	mov	b,r7
      001C22 12r00r00         [24] 6187 	lcall	__gptrget
      001C25 90r00rAC         [24] 6188 	mov	dptr,#_dao_input_lifetime_65536_345
      001C28 F0               [24] 6189 	movx	@dptr,a
                                   6190 ;	../../../core/net/rpl/rpl-icmp6.c:595: flags = buffer[pos++];
      001C29 90r00rAF         [24] 6191 	mov	dptr,#_dao_input_pos_65536_345
      001C2C E0               [24] 6192 	movx	a,@dptr
      001C2D FB               [12] 6193 	mov	r3,a
      001C2E A3               [24] 6194 	inc	dptr
      001C2F E0               [24] 6195 	movx	a,@dptr
      001C30 FF               [12] 6196 	mov	r7,a
      001C31 90r00rAF         [24] 6197 	mov	dptr,#_dao_input_pos_65536_345
      001C34 74 01            [12] 6198 	mov	a,#0x01
      001C36 2B               [12] 6199 	add	a,r3
      001C37 F0               [24] 6200 	movx	@dptr,a
      001C38 E4               [12] 6201 	clr	a
      001C39 3F               [12] 6202 	addc	a,r7
      001C3A A3               [24] 6203 	inc	dptr
      001C3B F0               [24] 6204 	movx	@dptr,a
      001C3C A8 81            [24] 6205 	mov	r0,sp
      001C3E 18               [12] 6206 	dec	r0
      001C3F 18               [12] 6207 	dec	r0
      001C40 EB               [12] 6208 	mov	a,r3
      001C41 26               [12] 6209 	add	a,@r0
      001C42 FB               [12] 6210 	mov	r3,a
      001C43 EF               [12] 6211 	mov	a,r7
      001C44 08               [12] 6212 	inc	r0
      001C45 36               [12] 6213 	addc	a,@r0
      001C46 FF               [12] 6214 	mov	r7,a
      001C47 08               [12] 6215 	inc	r0
      001C48 86 02            [24] 6216 	mov	ar2,@r0
      001C4A 8B 82            [24] 6217 	mov	dpl,r3
      001C4C 8F 83            [24] 6218 	mov	dph,r7
      001C4E 8A F0            [24] 6219 	mov	b,r2
      001C50 E5 81            [12] 6220 	mov	a,sp
      001C52 24 ED            [12] 6221 	add	a,#0xed
      001C54 F8               [12] 6222 	mov	r0,a
      001C55 12r00r00         [24] 6223 	lcall	__gptrget
      001C58 F6               [12] 6224 	mov	@r0,a
                                   6225 ;	../../../core/net/rpl/rpl-icmp6.c:597: pos++;
      001C59 90r00rAF         [24] 6226 	mov	dptr,#_dao_input_pos_65536_345
      001C5C E0               [24] 6227 	movx	a,@dptr
      001C5D 24 01            [12] 6228 	add	a,#0x01
      001C5F F0               [24] 6229 	movx	@dptr,a
      001C60 A3               [24] 6230 	inc	dptr
      001C61 E0               [24] 6231 	movx	a,@dptr
      001C62 34 00            [12] 6232 	addc	a,#0x00
      001C64 F0               [24] 6233 	movx	@dptr,a
                                   6234 ;	../../../core/net/rpl/rpl-icmp6.c:598: sequence = buffer[pos++];
      001C65 90r00rAF         [24] 6235 	mov	dptr,#_dao_input_pos_65536_345
      001C68 E0               [24] 6236 	movx	a,@dptr
      001C69 FA               [12] 6237 	mov	r2,a
      001C6A A3               [24] 6238 	inc	dptr
      001C6B E0               [24] 6239 	movx	a,@dptr
      001C6C FB               [12] 6240 	mov	r3,a
      001C6D 90r00rAF         [24] 6241 	mov	dptr,#_dao_input_pos_65536_345
      001C70 74 01            [12] 6242 	mov	a,#0x01
      001C72 2A               [12] 6243 	add	a,r2
      001C73 F0               [24] 6244 	movx	@dptr,a
      001C74 E4               [12] 6245 	clr	a
      001C75 3B               [12] 6246 	addc	a,r3
      001C76 A3               [24] 6247 	inc	dptr
      001C77 F0               [24] 6248 	movx	@dptr,a
      001C78 A8 81            [24] 6249 	mov	r0,sp
      001C7A 18               [12] 6250 	dec	r0
      001C7B 18               [12] 6251 	dec	r0
      001C7C EA               [12] 6252 	mov	a,r2
      001C7D 26               [12] 6253 	add	a,@r0
      001C7E FA               [12] 6254 	mov	r2,a
      001C7F EB               [12] 6255 	mov	a,r3
      001C80 08               [12] 6256 	inc	r0
      001C81 36               [12] 6257 	addc	a,@r0
      001C82 FB               [12] 6258 	mov	r3,a
      001C83 08               [12] 6259 	inc	r0
      001C84 86 07            [24] 6260 	mov	ar7,@r0
      001C86 8A 82            [24] 6261 	mov	dpl,r2
      001C88 8B 83            [24] 6262 	mov	dph,r3
      001C8A 8F F0            [24] 6263 	mov	b,r7
      001C8C 12r00r00         [24] 6264 	lcall	__gptrget
      001C8F 90r00rA9         [24] 6265 	mov	dptr,#_dao_input_sequence_65536_345
      001C92 F0               [24] 6266 	movx	@dptr,a
      001C93 E4               [12] 6267 	clr	a
      001C94 A3               [24] 6268 	inc	dptr
      001C95 F0               [24] 6269 	movx	@dptr,a
                                   6270 ;	../../../core/net/rpl/rpl-icmp6.c:600: dag = instance->current_dag;
      001C96 E5 81            [12] 6271 	mov	a,sp
      001C98 24 FB            [12] 6272 	add	a,#0xfb
      001C9A F8               [12] 6273 	mov	r0,a
      001C9B 74 0A            [12] 6274 	mov	a,#0x0a
      001C9D 26               [12] 6275 	add	a,@r0
      001C9E FA               [12] 6276 	mov	r2,a
      001C9F E4               [12] 6277 	clr	a
      001CA0 08               [12] 6278 	inc	r0
      001CA1 36               [12] 6279 	addc	a,@r0
      001CA2 FB               [12] 6280 	mov	r3,a
      001CA3 08               [12] 6281 	inc	r0
      001CA4 86 07            [24] 6282 	mov	ar7,@r0
      001CA6 8A 82            [24] 6283 	mov	dpl,r2
      001CA8 8B 83            [24] 6284 	mov	dph,r3
      001CAA 8F F0            [24] 6285 	mov	b,r7
      001CAC E5 81            [12] 6286 	mov	a,sp
      001CAE 24 F8            [12] 6287 	add	a,#0xf8
      001CB0 F8               [12] 6288 	mov	r0,a
      001CB1 12r00r00         [24] 6289 	lcall	__gptrget
      001CB4 F6               [12] 6290 	mov	@r0,a
      001CB5 A3               [24] 6291 	inc	dptr
      001CB6 12r00r00         [24] 6292 	lcall	__gptrget
      001CB9 08               [12] 6293 	inc	r0
      001CBA F6               [12] 6294 	mov	@r0,a
      001CBB A3               [24] 6295 	inc	dptr
      001CBC 12r00r00         [24] 6296 	lcall	__gptrget
      001CBF 08               [12] 6297 	inc	r0
      001CC0 F6               [12] 6298 	mov	@r0,a
                                   6299 ;	../../../core/net/rpl/rpl-icmp6.c:602: if(flags & RPL_DAO_D_FLAG) {
      001CC1 E5 81            [12] 6300 	mov	a,sp
      001CC3 24 ED            [12] 6301 	add	a,#0xed
      001CC5 F8               [12] 6302 	mov	r0,a
      001CC6 E6               [12] 6303 	mov	a,@r0
      001CC7 30 E6 63         [24] 6304 	jnb	acc.6,00106$
                                   6305 ;	../../../core/net/rpl/rpl-icmp6.c:603: if(memcmp(&dag->dag_id, &buffer[pos], sizeof(dag->dag_id))) {
      001CCA 90r00rAF         [24] 6306 	mov	dptr,#_dao_input_pos_65536_345
      001CCD E0               [24] 6307 	movx	a,@dptr
      001CCE FB               [12] 6308 	mov	r3,a
      001CCF A3               [24] 6309 	inc	dptr
      001CD0 E0               [24] 6310 	movx	a,@dptr
      001CD1 FF               [12] 6311 	mov	r7,a
      001CD2 A8 81            [24] 6312 	mov	r0,sp
      001CD4 18               [12] 6313 	dec	r0
      001CD5 18               [12] 6314 	dec	r0
      001CD6 EB               [12] 6315 	mov	a,r3
      001CD7 26               [12] 6316 	add	a,@r0
      001CD8 FB               [12] 6317 	mov	r3,a
      001CD9 EF               [12] 6318 	mov	a,r7
      001CDA 08               [12] 6319 	inc	r0
      001CDB 36               [12] 6320 	addc	a,@r0
      001CDC FF               [12] 6321 	mov	r7,a
      001CDD 08               [12] 6322 	inc	r0
      001CDE 86 02            [24] 6323 	mov	ar2,@r0
      001CE0 E5 81            [12] 6324 	mov	a,sp
      001CE2 24 F8            [12] 6325 	add	a,#0xf8
      001CE4 F8               [12] 6326 	mov	r0,a
      001CE5 86 04            [24] 6327 	mov	ar4,@r0
      001CE7 08               [12] 6328 	inc	r0
      001CE8 86 05            [24] 6329 	mov	ar5,@r0
      001CEA 08               [12] 6330 	inc	r0
      001CEB 86 06            [24] 6331 	mov	ar6,@r0
      001CED 74 10            [12] 6332 	mov	a,#0x10
      001CEF C0 E0            [24] 6333 	push	acc
      001CF1 E4               [12] 6334 	clr	a
      001CF2 C0 E0            [24] 6335 	push	acc
      001CF4 C0 03            [24] 6336 	push	ar3
      001CF6 C0 07            [24] 6337 	push	ar7
      001CF8 C0 02            [24] 6338 	push	ar2
      001CFA 8C 82            [24] 6339 	mov	dpl,r4
      001CFC 8D 83            [24] 6340 	mov	dph,r5
      001CFE 8E F0            [24] 6341 	mov	b,r6
      001D00 78r00            [12] 6342 	mov	r0,#_memcmp
      001D02 79s00            [12] 6343 	mov	r1,#(_memcmp >> 8)
      001D04 7As00            [12] 6344 	mov	r2,#(_memcmp >> 16)
      001D06 12r00r00         [24] 6345 	lcall	__sdcc_banked_call
      001D09 AE 82            [24] 6346 	mov	r6,dpl
      001D0B AF 83            [24] 6347 	mov	r7,dph
      001D0D E5 81            [12] 6348 	mov	a,sp
      001D0F 24 FB            [12] 6349 	add	a,#0xfb
      001D11 F5 81            [12] 6350 	mov	sp,a
      001D13 EE               [12] 6351 	mov	a,r6
      001D14 4F               [12] 6352 	orl	a,r7
      001D15 60 03            [24] 6353 	jz	00104$
                                   6354 ;	../../../core/net/rpl/rpl-icmp6.c:605: return;
      001D17 02r22rE2         [24] 6355 	ljmp	00136$
      001D1A                       6356 00104$:
                                   6357 ;	../../../core/net/rpl/rpl-icmp6.c:607: pos += 16;
      001D1A 90r00rAF         [24] 6358 	mov	dptr,#_dao_input_pos_65536_345
      001D1D E0               [24] 6359 	movx	a,@dptr
      001D1E FB               [12] 6360 	mov	r3,a
      001D1F A3               [24] 6361 	inc	dptr
      001D20 E0               [24] 6362 	movx	a,@dptr
      001D21 FF               [12] 6363 	mov	r7,a
      001D22 90r00rAF         [24] 6364 	mov	dptr,#_dao_input_pos_65536_345
      001D25 74 10            [12] 6365 	mov	a,#0x10
      001D27 2B               [12] 6366 	add	a,r3
      001D28 F0               [24] 6367 	movx	@dptr,a
      001D29 E4               [12] 6368 	clr	a
      001D2A 3F               [12] 6369 	addc	a,r7
      001D2B A3               [24] 6370 	inc	dptr
      001D2C F0               [24] 6371 	movx	@dptr,a
      001D2D                       6372 00106$:
                                   6373 ;	../../../core/net/rpl/rpl-icmp6.c:613: i = pos;
      001D2D 90r00rAF         [24] 6374 	mov	dptr,#_dao_input_pos_65536_345
      001D30 E0               [24] 6375 	movx	a,@dptr
      001D31 FB               [12] 6376 	mov	r3,a
      001D32 A3               [24] 6377 	inc	dptr
      001D33 E0               [24] 6378 	movx	a,@dptr
      001D34 FF               [12] 6379 	mov	r7,a
      001D35 E5 81            [12] 6380 	mov	a,sp
      001D37 24 F1            [12] 6381 	add	a,#0xf1
      001D39 F8               [12] 6382 	mov	r0,a
      001D3A A6 03            [24] 6383 	mov	@r0,ar3
      001D3C 08               [12] 6384 	inc	r0
      001D3D A6 07            [24] 6385 	mov	@r0,ar7
      001D3F                       6386 00134$:
                                   6387 ;	../../../core/net/rpl/rpl-icmp6.c:614: for(; i < buffer_length; i += len) {
      001D3F 90r00rAE         [24] 6388 	mov	dptr,#_dao_input_buffer_length_65536_345
      001D42 E0               [24] 6389 	movx	a,@dptr
      001D43 FA               [12] 6390 	mov	r2,a
      001D44 7E 00            [12] 6391 	mov	r6,#0x00
      001D46 E5 81            [12] 6392 	mov	a,sp
      001D48 24 F1            [12] 6393 	add	a,#0xf1
      001D4A F8               [12] 6394 	mov	r0,a
      001D4B C3               [12] 6395 	clr	c
      001D4C E6               [12] 6396 	mov	a,@r0
      001D4D 9A               [12] 6397 	subb	a,r2
      001D4E 08               [12] 6398 	inc	r0
      001D4F E6               [12] 6399 	mov	a,@r0
      001D50 64 80            [12] 6400 	xrl	a,#0x80
      001D52 8E F0            [24] 6401 	mov	b,r6
      001D54 63 F0 80         [24] 6402 	xrl	b,#0x80
      001D57 95 F0            [12] 6403 	subb	a,b
      001D59 40 03            [24] 6404 	jc	00243$
      001D5B 02r1ErBC         [24] 6405 	ljmp	00113$
      001D5E                       6406 00243$:
                                   6407 ;	../../../core/net/rpl/rpl-icmp6.c:615: subopt_type = buffer[i];
      001D5E A8 81            [24] 6408 	mov	r0,sp
      001D60 18               [12] 6409 	dec	r0
      001D61 18               [12] 6410 	dec	r0
      001D62 E5 81            [12] 6411 	mov	a,sp
      001D64 24 F1            [12] 6412 	add	a,#0xf1
      001D66 F9               [12] 6413 	mov	r1,a
      001D67 E7               [12] 6414 	mov	a,@r1
      001D68 26               [12] 6415 	add	a,@r0
      001D69 FA               [12] 6416 	mov	r2,a
      001D6A 09               [12] 6417 	inc	r1
      001D6B E7               [12] 6418 	mov	a,@r1
      001D6C 08               [12] 6419 	inc	r0
      001D6D 36               [12] 6420 	addc	a,@r0
      001D6E FB               [12] 6421 	mov	r3,a
      001D6F 08               [12] 6422 	inc	r0
      001D70 86 07            [24] 6423 	mov	ar7,@r0
      001D72 8A 82            [24] 6424 	mov	dpl,r2
      001D74 8B 83            [24] 6425 	mov	dph,r3
      001D76 8F F0            [24] 6426 	mov	b,r7
      001D78 12r00r00         [24] 6427 	lcall	__gptrget
                                   6428 ;	../../../core/net/rpl/rpl-icmp6.c:616: if(subopt_type == RPL_OPTION_PAD1) {
      001D7B FF               [12] 6429 	mov	r7,a
                                   6430 ;	../../../core/net/rpl/rpl-icmp6.c:617: len = 1;
      001D7C 70 05            [24] 6431 	jnz	00108$
      001D7E 7B 01            [12] 6432 	mov	r3,#0x01
      001D80 FA               [12] 6433 	mov	r2,a
      001D81 80 33            [24] 6434 	sjmp	00109$
      001D83                       6435 00108$:
                                   6436 ;	../../../core/net/rpl/rpl-icmp6.c:620: len = 2 + buffer[i + 1];
      001D83 C0 07            [24] 6437 	push	ar7
      001D85 E5 81            [12] 6438 	mov	a,sp
      001D87 24 F0            [12] 6439 	add	a,#0xf0
      001D89 F8               [12] 6440 	mov	r0,a
      001D8A 74 01            [12] 6441 	mov	a,#0x01
      001D8C 26               [12] 6442 	add	a,@r0
      001D8D FE               [12] 6443 	mov	r6,a
      001D8E E4               [12] 6444 	clr	a
      001D8F 08               [12] 6445 	inc	r0
      001D90 36               [12] 6446 	addc	a,@r0
      001D91 FF               [12] 6447 	mov	r7,a
      001D92 E5 81            [12] 6448 	mov	a,sp
      001D94 24 FD            [12] 6449 	add	a,#0xfd
      001D96 F8               [12] 6450 	mov	r0,a
      001D97 EE               [12] 6451 	mov	a,r6
      001D98 26               [12] 6452 	add	a,@r0
      001D99 FE               [12] 6453 	mov	r6,a
      001D9A EF               [12] 6454 	mov	a,r7
      001D9B 08               [12] 6455 	inc	r0
      001D9C 36               [12] 6456 	addc	a,@r0
      001D9D FF               [12] 6457 	mov	r7,a
      001D9E 08               [12] 6458 	inc	r0
      001D9F 86 05            [24] 6459 	mov	ar5,@r0
      001DA1 8E 82            [24] 6460 	mov	dpl,r6
      001DA3 8F 83            [24] 6461 	mov	dph,r7
      001DA5 8D F0            [24] 6462 	mov	b,r5
      001DA7 12r00r00         [24] 6463 	lcall	__gptrget
      001DAA FE               [12] 6464 	mov	r6,a
      001DAB 7F 00            [12] 6465 	mov	r7,#0x00
      001DAD 74 02            [12] 6466 	mov	a,#0x02
      001DAF 2E               [12] 6467 	add	a,r6
      001DB0 FB               [12] 6468 	mov	r3,a
      001DB1 E4               [12] 6469 	clr	a
      001DB2 3F               [12] 6470 	addc	a,r7
      001DB3 FA               [12] 6471 	mov	r2,a
                                   6472 ;	../../../core/net/rpl/rpl-icmp6.c:695: dao_ack_output(instance, &dao_sender_addr, sequence);
      001DB4 D0 07            [24] 6473 	pop	ar7
                                   6474 ;	../../../core/net/rpl/rpl-icmp6.c:620: len = 2 + buffer[i + 1];
      001DB6                       6475 00109$:
                                   6476 ;	../../../core/net/rpl/rpl-icmp6.c:623: switch(subopt_type) {
      001DB6 BF 05 02         [24] 6477 	cjne	r7,#0x05,00245$
      001DB9 80 09            [24] 6478 	sjmp	00110$
      001DBB                       6479 00245$:
      001DBB BF 06 03         [24] 6480 	cjne	r7,#0x06,00246$
      001DBE 02r1Er84         [24] 6481 	ljmp	00111$
      001DC1                       6482 00246$:
      001DC1 02r1ErAD         [24] 6483 	ljmp	00135$
                                   6484 ;	../../../core/net/rpl/rpl-icmp6.c:624: case RPL_OPTION_TARGET:
      001DC4                       6485 00110$:
                                   6486 ;	../../../core/net/rpl/rpl-icmp6.c:626: prefixlen = buffer[i + 3];
      001DC4 C0 03            [24] 6487 	push	ar3
      001DC6 C0 02            [24] 6488 	push	ar2
      001DC8 E5 81            [12] 6489 	mov	a,sp
      001DCA 24 EF            [12] 6490 	add	a,#0xef
      001DCC F8               [12] 6491 	mov	r0,a
      001DCD 74 03            [12] 6492 	mov	a,#0x03
      001DCF 26               [12] 6493 	add	a,@r0
      001DD0 FE               [12] 6494 	mov	r6,a
      001DD1 E4               [12] 6495 	clr	a
      001DD2 08               [12] 6496 	inc	r0
      001DD3 36               [12] 6497 	addc	a,@r0
      001DD4 FF               [12] 6498 	mov	r7,a
      001DD5 E5 81            [12] 6499 	mov	a,sp
      001DD7 24 FC            [12] 6500 	add	a,#0xfc
      001DD9 F8               [12] 6501 	mov	r0,a
      001DDA EE               [12] 6502 	mov	a,r6
      001DDB 26               [12] 6503 	add	a,@r0
      001DDC FE               [12] 6504 	mov	r6,a
      001DDD EF               [12] 6505 	mov	a,r7
      001DDE 08               [12] 6506 	inc	r0
      001DDF 36               [12] 6507 	addc	a,@r0
      001DE0 FF               [12] 6508 	mov	r7,a
      001DE1 08               [12] 6509 	inc	r0
      001DE2 86 05            [24] 6510 	mov	ar5,@r0
      001DE4 8E 82            [24] 6511 	mov	dpl,r6
      001DE6 8F 83            [24] 6512 	mov	dph,r7
      001DE8 8D F0            [24] 6513 	mov	b,r5
      001DEA 12r00r00         [24] 6514 	lcall	__gptrget
      001DED 90r00rAD         [24] 6515 	mov	dptr,#_dao_input_prefixlen_65536_345
      001DF0 F0               [24] 6516 	movx	@dptr,a
                                   6517 ;	../../../core/net/rpl/rpl-icmp6.c:627: memset(&prefix, 0, sizeof(prefix));
      001DF1 C0 03            [24] 6518 	push	ar3
      001DF3 C0 02            [24] 6519 	push	ar2
      001DF5 74 10            [12] 6520 	mov	a,#0x10
      001DF7 C0 E0            [24] 6521 	push	acc
      001DF9 E4               [12] 6522 	clr	a
      001DFA C0 E0            [24] 6523 	push	acc
      001DFC C0 E0            [24] 6524 	push	acc
      001DFE 90r00r10         [24] 6525 	mov	dptr,#_prefix
      001E01 75 F0 00         [24] 6526 	mov	b,#0x00
      001E04 78r00            [12] 6527 	mov	r0,#_memset
      001E06 79s00            [12] 6528 	mov	r1,#(_memset >> 8)
      001E08 7As00            [12] 6529 	mov	r2,#(_memset >> 16)
      001E0A 12r00r00         [24] 6530 	lcall	__sdcc_banked_call
      001E0D 15 81            [12] 6531 	dec	sp
      001E0F 15 81            [12] 6532 	dec	sp
      001E11 15 81            [12] 6533 	dec	sp
                                   6534 ;	../../../core/net/rpl/rpl-icmp6.c:628: memcpy(&prefix, buffer + i + 4, (prefixlen + 7) / CHAR_BIT);
      001E13 90r00rAD         [24] 6535 	mov	dptr,#_dao_input_prefixlen_65536_345
      001E16 E0               [24] 6536 	movx	a,@dptr
      001E17 FF               [12] 6537 	mov	r7,a
      001E18 7E 00            [12] 6538 	mov	r6,#0x00
      001E1A 74 07            [12] 6539 	mov	a,#0x07
      001E1C 2F               [12] 6540 	add	a,r7
      001E1D FF               [12] 6541 	mov	r7,a
      001E1E E4               [12] 6542 	clr	a
      001E1F 3E               [12] 6543 	addc	a,r6
      001E20 FE               [12] 6544 	mov	r6,a
      001E21 74 08            [12] 6545 	mov	a,#0x08
      001E23 C0 E0            [24] 6546 	push	acc
      001E25 E4               [12] 6547 	clr	a
      001E26 C0 E0            [24] 6548 	push	acc
      001E28 8F 82            [24] 6549 	mov	dpl,r7
      001E2A 8E 83            [24] 6550 	mov	dph,r6
      001E2C 12r00r00         [24] 6551 	lcall	__divsint
      001E2F AE 82            [24] 6552 	mov	r6,dpl
      001E31 AF 83            [24] 6553 	mov	r7,dph
      001E33 15 81            [12] 6554 	dec	sp
      001E35 15 81            [12] 6555 	dec	sp
      001E37 D0 02            [24] 6556 	pop	ar2
      001E39 D0 03            [24] 6557 	pop	ar3
      001E3B E5 81            [12] 6558 	mov	a,sp
      001E3D 24 FC            [12] 6559 	add	a,#0xfc
      001E3F F8               [12] 6560 	mov	r0,a
      001E40 E5 81            [12] 6561 	mov	a,sp
      001E42 24 EF            [12] 6562 	add	a,#0xef
      001E44 F9               [12] 6563 	mov	r1,a
      001E45 E7               [12] 6564 	mov	a,@r1
      001E46 26               [12] 6565 	add	a,@r0
      001E47 FB               [12] 6566 	mov	r3,a
      001E48 09               [12] 6567 	inc	r1
      001E49 E7               [12] 6568 	mov	a,@r1
      001E4A 08               [12] 6569 	inc	r0
      001E4B 36               [12] 6570 	addc	a,@r0
      001E4C FC               [12] 6571 	mov	r4,a
      001E4D 08               [12] 6572 	inc	r0
      001E4E 86 05            [24] 6573 	mov	ar5,@r0
      001E50 74 04            [12] 6574 	mov	a,#0x04
      001E52 2B               [12] 6575 	add	a,r3
      001E53 FB               [12] 6576 	mov	r3,a
      001E54 E4               [12] 6577 	clr	a
      001E55 3C               [12] 6578 	addc	a,r4
      001E56 FC               [12] 6579 	mov	r4,a
      001E57 C0 03            [24] 6580 	push	ar3
      001E59 C0 02            [24] 6581 	push	ar2
      001E5B C0 06            [24] 6582 	push	ar6
      001E5D C0 07            [24] 6583 	push	ar7
      001E5F C0 03            [24] 6584 	push	ar3
      001E61 C0 04            [24] 6585 	push	ar4
      001E63 C0 05            [24] 6586 	push	ar5
      001E65 90r00r10         [24] 6587 	mov	dptr,#_prefix
      001E68 75 F0 00         [24] 6588 	mov	b,#0x00
      001E6B 78r00            [12] 6589 	mov	r0,#___memcpy
      001E6D 79s00            [12] 6590 	mov	r1,#(___memcpy >> 8)
      001E6F 7As00            [12] 6591 	mov	r2,#(___memcpy >> 16)
      001E71 12r00r00         [24] 6592 	lcall	__sdcc_banked_call
      001E74 E5 81            [12] 6593 	mov	a,sp
      001E76 24 FB            [12] 6594 	add	a,#0xfb
      001E78 F5 81            [12] 6595 	mov	sp,a
      001E7A D0 02            [24] 6596 	pop	ar2
      001E7C D0 03            [24] 6597 	pop	ar3
                                   6598 ;	../../../core/net/rpl/rpl-icmp6.c:629: break;
      001E7E D0 02            [24] 6599 	pop	ar2
      001E80 D0 03            [24] 6600 	pop	ar3
                                   6601 ;	../../../core/net/rpl/rpl-icmp6.c:630: case RPL_OPTION_TRANSIT:
      001E82 80 29            [24] 6602 	sjmp	00135$
      001E84                       6603 00111$:
                                   6604 ;	../../../core/net/rpl/rpl-icmp6.c:634: lifetime = buffer[i + 5];
      001E84 E5 81            [12] 6605 	mov	a,sp
      001E86 24 F1            [12] 6606 	add	a,#0xf1
      001E88 F8               [12] 6607 	mov	r0,a
      001E89 74 05            [12] 6608 	mov	a,#0x05
      001E8B 26               [12] 6609 	add	a,@r0
      001E8C FE               [12] 6610 	mov	r6,a
      001E8D E4               [12] 6611 	clr	a
      001E8E 08               [12] 6612 	inc	r0
      001E8F 36               [12] 6613 	addc	a,@r0
      001E90 FF               [12] 6614 	mov	r7,a
      001E91 A8 81            [24] 6615 	mov	r0,sp
      001E93 18               [12] 6616 	dec	r0
      001E94 18               [12] 6617 	dec	r0
      001E95 EE               [12] 6618 	mov	a,r6
      001E96 26               [12] 6619 	add	a,@r0
      001E97 FE               [12] 6620 	mov	r6,a
      001E98 EF               [12] 6621 	mov	a,r7
      001E99 08               [12] 6622 	inc	r0
      001E9A 36               [12] 6623 	addc	a,@r0
      001E9B FF               [12] 6624 	mov	r7,a
      001E9C 08               [12] 6625 	inc	r0
      001E9D 86 05            [24] 6626 	mov	ar5,@r0
      001E9F 8E 82            [24] 6627 	mov	dpl,r6
      001EA1 8F 83            [24] 6628 	mov	dph,r7
      001EA3 8D F0            [24] 6629 	mov	b,r5
      001EA5 12r00r00         [24] 6630 	lcall	__gptrget
      001EA8 FE               [12] 6631 	mov	r6,a
      001EA9 90r00rAC         [24] 6632 	mov	dptr,#_dao_input_lifetime_65536_345
      001EAC F0               [24] 6633 	movx	@dptr,a
                                   6634 ;	../../../core/net/rpl/rpl-icmp6.c:637: }
      001EAD                       6635 00135$:
                                   6636 ;	../../../core/net/rpl/rpl-icmp6.c:614: for(; i < buffer_length; i += len) {
      001EAD E5 81            [12] 6637 	mov	a,sp
      001EAF 24 F1            [12] 6638 	add	a,#0xf1
      001EB1 F8               [12] 6639 	mov	r0,a
      001EB2 EB               [12] 6640 	mov	a,r3
      001EB3 26               [12] 6641 	add	a,@r0
      001EB4 F6               [12] 6642 	mov	@r0,a
      001EB5 EA               [12] 6643 	mov	a,r2
      001EB6 08               [12] 6644 	inc	r0
      001EB7 36               [12] 6645 	addc	a,@r0
      001EB8 F6               [12] 6646 	mov	@r0,a
      001EB9 02r1Dr3F         [24] 6647 	ljmp	00134$
      001EBC                       6648 00113$:
                                   6649 ;	../../../core/net/rpl/rpl-icmp6.c:645: rep = uip_ds6_route_lookup(&prefix);
      001EBC 90r00r10         [24] 6650 	mov	dptr,#_prefix
      001EBF 75 F0 00         [24] 6651 	mov	b,#0x00
      001EC2 78r00            [12] 6652 	mov	r0,#_uip_ds6_route_lookup
      001EC4 79s00            [12] 6653 	mov	r1,#(_uip_ds6_route_lookup >> 8)
      001EC6 7As00            [12] 6654 	mov	r2,#(_uip_ds6_route_lookup >> 16)
      001EC8 12r00r00         [24] 6655 	lcall	__sdcc_banked_call
      001ECB C8               [12] 6656 	xch	a,r0
      001ECC E5 81            [12] 6657 	mov	a,sp
      001ECE 24 E6            [12] 6658 	add	a,#0xe6
      001ED0 C8               [12] 6659 	xch	a,r0
      001ED1 A6 82            [24] 6660 	mov	@r0,dpl
      001ED3 08               [12] 6661 	inc	r0
      001ED4 A6 83            [24] 6662 	mov	@r0,dph
      001ED6 08               [12] 6663 	inc	r0
      001ED7 A6 F0            [24] 6664 	mov	@r0,b
                                   6665 ;	../../../core/net/rpl/rpl-icmp6.c:647: if(lifetime == RPL_ZERO_LIFETIME) {
      001ED9 90r00rAC         [24] 6666 	mov	dptr,#_dao_input_lifetime_65536_345
      001EDC E0               [24] 6667 	movx	a,@dptr
      001EDD 60 03            [24] 6668 	jz	00247$
      001EDF 02r1FrCB         [24] 6669 	ljmp	00119$
      001EE2                       6670 00247$:
                                   6671 ;	../../../core/net/rpl/rpl-icmp6.c:649: if(rep != NULL && rep->state.saved_lifetime == 0 && rep->length == prefixlen) {
      001EE2 E5 81            [12] 6672 	mov	a,sp
      001EE4 24 E6            [12] 6673 	add	a,#0xe6
      001EE6 F8               [12] 6674 	mov	r0,a
      001EE7 E6               [12] 6675 	mov	a,@r0
      001EE8 08               [12] 6676 	inc	r0
      001EE9 46               [12] 6677 	orl	a,@r0
      001EEA 70 03            [24] 6678 	jnz	00248$
      001EEC 02r22rE2         [24] 6679 	ljmp	00136$
      001EEF                       6680 00248$:
      001EEF E5 81            [12] 6681 	mov	a,sp
      001EF1 24 E6            [12] 6682 	add	a,#0xe6
      001EF3 F8               [12] 6683 	mov	r0,a
      001EF4 E5 81            [12] 6684 	mov	a,sp
      001EF6 24 E3            [12] 6685 	add	a,#0xe3
      001EF8 F9               [12] 6686 	mov	r1,a
      001EF9 74 25            [12] 6687 	mov	a,#0x25
      001EFB 26               [12] 6688 	add	a,@r0
      001EFC F7               [12] 6689 	mov	@r1,a
      001EFD E4               [12] 6690 	clr	a
      001EFE 08               [12] 6691 	inc	r0
      001EFF 36               [12] 6692 	addc	a,@r0
      001F00 09               [12] 6693 	inc	r1
      001F01 F7               [12] 6694 	mov	@r1,a
      001F02 08               [12] 6695 	inc	r0
      001F03 09               [12] 6696 	inc	r1
      001F04 E6               [12] 6697 	mov	a,@r0
      001F05 F7               [12] 6698 	mov	@r1,a
      001F06 E5 81            [12] 6699 	mov	a,sp
      001F08 24 E6            [12] 6700 	add	a,#0xe6
      001F0A F8               [12] 6701 	mov	r0,a
      001F0B E5 81            [12] 6702 	mov	a,sp
      001F0D 24 E0            [12] 6703 	add	a,#0xe0
      001F0F F9               [12] 6704 	mov	r1,a
      001F10 74 29            [12] 6705 	mov	a,#0x29
      001F12 26               [12] 6706 	add	a,@r0
      001F13 F7               [12] 6707 	mov	@r1,a
      001F14 E4               [12] 6708 	clr	a
      001F15 08               [12] 6709 	inc	r0
      001F16 36               [12] 6710 	addc	a,@r0
      001F17 09               [12] 6711 	inc	r1
      001F18 F7               [12] 6712 	mov	@r1,a
      001F19 08               [12] 6713 	inc	r0
      001F1A 09               [12] 6714 	inc	r1
      001F1B E6               [12] 6715 	mov	a,@r0
      001F1C F7               [12] 6716 	mov	@r1,a
      001F1D E5 81            [12] 6717 	mov	a,sp
      001F1F 24 E0            [12] 6718 	add	a,#0xe0
      001F21 F8               [12] 6719 	mov	r0,a
      001F22 86 82            [24] 6720 	mov	dpl,@r0
      001F24 08               [12] 6721 	inc	r0
      001F25 86 83            [24] 6722 	mov	dph,@r0
      001F27 08               [12] 6723 	inc	r0
      001F28 86 F0            [24] 6724 	mov	b,@r0
      001F2A 12r00r00         [24] 6725 	lcall	__gptrget
      001F2D FA               [12] 6726 	mov	r2,a
      001F2E A3               [24] 6727 	inc	dptr
      001F2F 12r00r00         [24] 6728 	lcall	__gptrget
      001F32 FB               [12] 6729 	mov	r3,a
      001F33 A3               [24] 6730 	inc	dptr
      001F34 12r00r00         [24] 6731 	lcall	__gptrget
      001F37 FC               [12] 6732 	mov	r4,a
      001F38 A3               [24] 6733 	inc	dptr
      001F39 12r00r00         [24] 6734 	lcall	__gptrget
      001F3C FF               [12] 6735 	mov	r7,a
      001F3D EA               [12] 6736 	mov	a,r2
      001F3E 4B               [12] 6737 	orl	a,r3
      001F3F 4C               [12] 6738 	orl	a,r4
      001F40 4F               [12] 6739 	orl	a,r7
      001F41 60 03            [24] 6740 	jz	00249$
      001F43 02r22rE2         [24] 6741 	ljmp	00136$
      001F46                       6742 00249$:
      001F46 E5 81            [12] 6743 	mov	a,sp
      001F48 24 E6            [12] 6744 	add	a,#0xe6
      001F4A F8               [12] 6745 	mov	r0,a
      001F4B 74 23            [12] 6746 	mov	a,#0x23
      001F4D 26               [12] 6747 	add	a,@r0
      001F4E FD               [12] 6748 	mov	r5,a
      001F4F E4               [12] 6749 	clr	a
      001F50 08               [12] 6750 	inc	r0
      001F51 36               [12] 6751 	addc	a,@r0
      001F52 FE               [12] 6752 	mov	r6,a
      001F53 08               [12] 6753 	inc	r0
      001F54 86 07            [24] 6754 	mov	ar7,@r0
      001F56 8D 82            [24] 6755 	mov	dpl,r5
      001F58 8E 83            [24] 6756 	mov	dph,r6
      001F5A 8F F0            [24] 6757 	mov	b,r7
      001F5C 12r00r00         [24] 6758 	lcall	__gptrget
      001F5F FD               [12] 6759 	mov	r5,a
      001F60 90r00rAD         [24] 6760 	mov	dptr,#_dao_input_prefixlen_65536_345
      001F63 E0               [24] 6761 	movx	a,@dptr
      001F64 FF               [12] 6762 	mov	r7,a
      001F65 ED               [12] 6763 	mov	a,r5
      001F66 B5 07 5F         [24] 6764 	cjne	a,ar7,00115$
                                   6765 ;	../../../core/net/rpl/rpl-icmp6.c:653: rep->state.saved_lifetime = rep->state.lifetime;
      001F69 E5 81            [12] 6766 	mov	a,sp
      001F6B 24 E3            [12] 6767 	add	a,#0xe3
      001F6D F8               [12] 6768 	mov	r0,a
      001F6E 86 82            [24] 6769 	mov	dpl,@r0
      001F70 08               [12] 6770 	inc	r0
      001F71 86 83            [24] 6771 	mov	dph,@r0
      001F73 08               [12] 6772 	inc	r0
      001F74 86 F0            [24] 6773 	mov	b,@r0
      001F76 12r00r00         [24] 6774 	lcall	__gptrget
      001F79 FC               [12] 6775 	mov	r4,a
      001F7A A3               [24] 6776 	inc	dptr
      001F7B 12r00r00         [24] 6777 	lcall	__gptrget
      001F7E FD               [12] 6778 	mov	r5,a
      001F7F A3               [24] 6779 	inc	dptr
      001F80 12r00r00         [24] 6780 	lcall	__gptrget
      001F83 FE               [12] 6781 	mov	r6,a
      001F84 A3               [24] 6782 	inc	dptr
      001F85 12r00r00         [24] 6783 	lcall	__gptrget
      001F88 FF               [12] 6784 	mov	r7,a
      001F89 E5 81            [12] 6785 	mov	a,sp
      001F8B 24 E0            [12] 6786 	add	a,#0xe0
      001F8D F8               [12] 6787 	mov	r0,a
      001F8E 86 82            [24] 6788 	mov	dpl,@r0
      001F90 08               [12] 6789 	inc	r0
      001F91 86 83            [24] 6790 	mov	dph,@r0
      001F93 08               [12] 6791 	inc	r0
      001F94 86 F0            [24] 6792 	mov	b,@r0
      001F96 EC               [12] 6793 	mov	a,r4
      001F97 12r00r00         [24] 6794 	lcall	__gptrput
      001F9A A3               [24] 6795 	inc	dptr
      001F9B ED               [12] 6796 	mov	a,r5
      001F9C 12r00r00         [24] 6797 	lcall	__gptrput
      001F9F A3               [24] 6798 	inc	dptr
      001FA0 EE               [12] 6799 	mov	a,r6
      001FA1 12r00r00         [24] 6800 	lcall	__gptrput
      001FA4 A3               [24] 6801 	inc	dptr
      001FA5 EF               [12] 6802 	mov	a,r7
      001FA6 12r00r00         [24] 6803 	lcall	__gptrput
                                   6804 ;	../../../core/net/rpl/rpl-icmp6.c:654: rep->state.lifetime = DAO_EXPIRATION_TIMEOUT;
      001FA9 E5 81            [12] 6805 	mov	a,sp
      001FAB 24 E3            [12] 6806 	add	a,#0xe3
      001FAD F8               [12] 6807 	mov	r0,a
      001FAE 86 82            [24] 6808 	mov	dpl,@r0
      001FB0 08               [12] 6809 	inc	r0
      001FB1 86 83            [24] 6810 	mov	dph,@r0
      001FB3 08               [12] 6811 	inc	r0
      001FB4 86 F0            [24] 6812 	mov	b,@r0
      001FB6 74 3C            [12] 6813 	mov	a,#0x3c
      001FB8 12r00r00         [24] 6814 	lcall	__gptrput
      001FBB A3               [24] 6815 	inc	dptr
      001FBC E4               [12] 6816 	clr	a
      001FBD 12r00r00         [24] 6817 	lcall	__gptrput
      001FC0 A3               [24] 6818 	inc	dptr
      001FC1 12r00r00         [24] 6819 	lcall	__gptrput
      001FC4 A3               [24] 6820 	inc	dptr
      001FC5 12r00r00         [24] 6821 	lcall	__gptrput
      001FC8                       6822 00115$:
                                   6823 ;	../../../core/net/rpl/rpl-icmp6.c:656: return;
      001FC8 02r22rE2         [24] 6824 	ljmp	00136$
      001FCB                       6825 00119$:
                                   6826 ;	../../../core/net/rpl/rpl-icmp6.c:659: learned_from = uip_is_addr_mcast(&dao_sender_addr) ?
      001FCB 90r00r87         [24] 6827 	mov	dptr,#_dao_sender_addr
      001FCE E0               [24] 6828 	movx	a,@dptr
      001FCF FF               [12] 6829 	mov	r7,a
      001FD0 BF FF 06         [24] 6830 	cjne	r7,#0xff,00138$
                                   6831 ;	../../../core/net/rpl/rpl-icmp6.c:660: RPL_ROUTE_FROM_MULTICAST_DAO : RPL_ROUTE_FROM_UNICAST_DAO;
      001FD3 7E 02            [12] 6832 	mov	r6,#0x02
      001FD5 7F 00            [12] 6833 	mov	r7,#0x00
      001FD7 80 04            [24] 6834 	sjmp	00139$
      001FD9                       6835 00138$:
      001FD9 7E 01            [12] 6836 	mov	r6,#0x01
      001FDB 7F 00            [12] 6837 	mov	r7,#0x00
      001FDD                       6838 00139$:
      001FDD E5 81            [12] 6839 	mov	a,sp
      001FDF 24 F3            [12] 6840 	add	a,#0xf3
      001FE1 F8               [12] 6841 	mov	r0,a
      001FE2 A6 06            [24] 6842 	mov	@r0,ar6
      001FE4 08               [12] 6843 	inc	r0
      001FE5 A6 07            [24] 6844 	mov	@r0,ar7
                                   6845 ;	../../../core/net/rpl/rpl-icmp6.c:662: if(learned_from == RPL_ROUTE_FROM_UNICAST_DAO) {
      001FE7 E5 81            [12] 6846 	mov	a,sp
      001FE9 24 F3            [12] 6847 	add	a,#0xf3
      001FEB F8               [12] 6848 	mov	r0,a
      001FEC E4               [12] 6849 	clr	a
      001FED B6 01 05         [24] 6850 	cjne	@r0,#0x01,00254$
      001FF0 08               [12] 6851 	inc	r0
      001FF1 B6 00 01         [24] 6852 	cjne	@r0,#0x00,00254$
      001FF4 04               [12] 6853 	inc	a
      001FF5                       6854 00254$:
      001FF5 FD               [12] 6855 	mov	r5,a
      001FF6 70 03            [24] 6856 	jnz	00256$
      001FF8 02r21r33         [24] 6857 	ljmp	00124$
      001FFB                       6858 00256$:
                                   6859 ;	../../../core/net/rpl/rpl-icmp6.c:664: p = rpl_find_parent(dag, &dao_sender_addr);
      001FFB C0 05            [24] 6860 	push	ar5
      001FFD 74r87            [12] 6861 	mov	a,#_dao_sender_addr
      001FFF C0 E0            [24] 6862 	push	acc
      002001 74s00            [12] 6863 	mov	a,#(_dao_sender_addr >> 8)
      002003 C0 E0            [24] 6864 	push	acc
      002005 E4               [12] 6865 	clr	a
      002006 C0 E0            [24] 6866 	push	acc
      002008 E5 81            [12] 6867 	mov	a,sp
      00200A 24 F4            [12] 6868 	add	a,#0xf4
      00200C F8               [12] 6869 	mov	r0,a
      00200D 86 82            [24] 6870 	mov	dpl,@r0
      00200F 08               [12] 6871 	inc	r0
      002010 86 83            [24] 6872 	mov	dph,@r0
      002012 08               [12] 6873 	inc	r0
      002013 86 F0            [24] 6874 	mov	b,@r0
      002015 78r00            [12] 6875 	mov	r0,#_rpl_find_parent
      002017 79s00            [12] 6876 	mov	r1,#(_rpl_find_parent >> 8)
      002019 7As00            [12] 6877 	mov	r2,#(_rpl_find_parent >> 16)
      00201B 12r00r00         [24] 6878 	lcall	__sdcc_banked_call
      00201E AA 82            [24] 6879 	mov	r2,dpl
      002020 AB 83            [24] 6880 	mov	r3,dph
      002022 AC F0            [24] 6881 	mov	r4,b
      002024 15 81            [12] 6882 	dec	sp
      002026 15 81            [12] 6883 	dec	sp
      002028 15 81            [12] 6884 	dec	sp
      00202A D0 05            [24] 6885 	pop	ar5
      00202C E5 81            [12] 6886 	mov	a,sp
      00202E 24 F5            [12] 6887 	add	a,#0xf5
      002030 F8               [12] 6888 	mov	r0,a
      002031 A6 02            [24] 6889 	mov	@r0,ar2
      002033 08               [12] 6890 	inc	r0
      002034 A6 03            [24] 6891 	mov	@r0,ar3
      002036 08               [12] 6892 	inc	r0
      002037 A6 04            [24] 6893 	mov	@r0,ar4
                                   6894 ;	../../../core/net/rpl/rpl-icmp6.c:667: if(p != NULL && DAG_RANK(p->rank, instance) < DAG_RANK(dag->rank, instance)) {
      002039 E5 81            [12] 6895 	mov	a,sp
      00203B 24 F5            [12] 6896 	add	a,#0xf5
      00203D F8               [12] 6897 	mov	r0,a
      00203E E6               [12] 6898 	mov	a,@r0
      00203F 08               [12] 6899 	inc	r0
      002040 46               [12] 6900 	orl	a,@r0
      002041 70 03            [24] 6901 	jnz	00257$
      002043 02r21r33         [24] 6902 	ljmp	00124$
      002046                       6903 00257$:
      002046 C0 05            [24] 6904 	push	ar5
      002048 E5 81            [12] 6905 	mov	a,sp
      00204A 24 F4            [12] 6906 	add	a,#0xf4
      00204C F8               [12] 6907 	mov	r0,a
      00204D E5 81            [12] 6908 	mov	a,sp
      00204F 24 E5            [12] 6909 	add	a,#0xe5
      002051 F9               [12] 6910 	mov	r1,a
      002052 74 1D            [12] 6911 	mov	a,#0x1d
      002054 26               [12] 6912 	add	a,@r0
      002055 F7               [12] 6913 	mov	@r1,a
      002056 E4               [12] 6914 	clr	a
      002057 08               [12] 6915 	inc	r0
      002058 36               [12] 6916 	addc	a,@r0
      002059 09               [12] 6917 	inc	r1
      00205A F7               [12] 6918 	mov	@r1,a
      00205B 08               [12] 6919 	inc	r0
      00205C 09               [12] 6920 	inc	r1
      00205D E6               [12] 6921 	mov	a,@r0
      00205E F7               [12] 6922 	mov	@r1,a
      00205F E5 81            [12] 6923 	mov	a,sp
      002061 24 E5            [12] 6924 	add	a,#0xe5
      002063 F8               [12] 6925 	mov	r0,a
      002064 86 82            [24] 6926 	mov	dpl,@r0
      002066 08               [12] 6927 	inc	r0
      002067 86 83            [24] 6928 	mov	dph,@r0
      002069 08               [12] 6929 	inc	r0
      00206A 86 F0            [24] 6930 	mov	b,@r0
      00206C 12r00r00         [24] 6931 	lcall	__gptrget
      00206F FD               [12] 6932 	mov	r5,a
      002070 A3               [24] 6933 	inc	dptr
      002071 12r00r00         [24] 6934 	lcall	__gptrget
      002074 FF               [12] 6935 	mov	r7,a
      002075 E5 81            [12] 6936 	mov	a,sp
      002077 24 FA            [12] 6937 	add	a,#0xfa
      002079 F8               [12] 6938 	mov	r0,a
      00207A 74 93            [12] 6939 	mov	a,#0x93
      00207C 26               [12] 6940 	add	a,@r0
      00207D FB               [12] 6941 	mov	r3,a
      00207E E4               [12] 6942 	clr	a
      00207F 08               [12] 6943 	inc	r0
      002080 36               [12] 6944 	addc	a,@r0
      002081 FC               [12] 6945 	mov	r4,a
      002082 08               [12] 6946 	inc	r0
      002083 86 06            [24] 6947 	mov	ar6,@r0
      002085 8B 82            [24] 6948 	mov	dpl,r3
      002087 8C 83            [24] 6949 	mov	dph,r4
      002089 8E F0            [24] 6950 	mov	b,r6
      00208B 12r00r00         [24] 6951 	lcall	__gptrget
      00208E FB               [12] 6952 	mov	r3,a
      00208F A3               [24] 6953 	inc	dptr
      002090 12r00r00         [24] 6954 	lcall	__gptrget
      002093 FC               [12] 6955 	mov	r4,a
      002094 C0 05            [24] 6956 	push	ar5
      002096 C0 04            [24] 6957 	push	ar4
      002098 C0 03            [24] 6958 	push	ar3
      00209A C0 03            [24] 6959 	push	ar3
      00209C C0 04            [24] 6960 	push	ar4
      00209E 8D 82            [24] 6961 	mov	dpl,r5
      0020A0 8F 83            [24] 6962 	mov	dph,r7
      0020A2 12r00r00         [24] 6963 	lcall	__divuint
      0020A5 C8               [12] 6964 	xch	a,r0
      0020A6 E5 81            [12] 6965 	mov	a,sp
      0020A8 24 DD            [12] 6966 	add	a,#0xdd
      0020AA C8               [12] 6967 	xch	a,r0
      0020AB A6 82            [24] 6968 	mov	@r0,dpl
      0020AD 08               [12] 6969 	inc	r0
      0020AE A6 83            [24] 6970 	mov	@r0,dph
      0020B0 15 81            [12] 6971 	dec	sp
      0020B2 15 81            [12] 6972 	dec	sp
      0020B4 D0 03            [24] 6973 	pop	ar3
      0020B6 D0 04            [24] 6974 	pop	ar4
      0020B8 D0 05            [24] 6975 	pop	ar5
      0020BA E5 81            [12] 6976 	mov	a,sp
      0020BC 24 F7            [12] 6977 	add	a,#0xf7
      0020BE F8               [12] 6978 	mov	r0,a
      0020BF 74 1A            [12] 6979 	mov	a,#0x1a
      0020C1 26               [12] 6980 	add	a,@r0
      0020C2 FA               [12] 6981 	mov	r2,a
      0020C3 E4               [12] 6982 	clr	a
      0020C4 08               [12] 6983 	inc	r0
      0020C5 36               [12] 6984 	addc	a,@r0
      0020C6 FD               [12] 6985 	mov	r5,a
      0020C7 08               [12] 6986 	inc	r0
      0020C8 86 07            [24] 6987 	mov	ar7,@r0
      0020CA 8A 82            [24] 6988 	mov	dpl,r2
      0020CC 8D 83            [24] 6989 	mov	dph,r5
      0020CE 8F F0            [24] 6990 	mov	b,r7
      0020D0 12r00r00         [24] 6991 	lcall	__gptrget
      0020D3 FA               [12] 6992 	mov	r2,a
      0020D4 A3               [24] 6993 	inc	dptr
      0020D5 12r00r00         [24] 6994 	lcall	__gptrget
      0020D8 FD               [12] 6995 	mov	r5,a
      0020D9 C0 05            [24] 6996 	push	ar5
      0020DB C0 03            [24] 6997 	push	ar3
      0020DD C0 04            [24] 6998 	push	ar4
      0020DF 8A 82            [24] 6999 	mov	dpl,r2
      0020E1 8D 83            [24] 7000 	mov	dph,r5
      0020E3 12r00r00         [24] 7001 	lcall	__divuint
      0020E6 AE 82            [24] 7002 	mov	r6,dpl
      0020E8 AF 83            [24] 7003 	mov	r7,dph
      0020EA 15 81            [12] 7004 	dec	sp
      0020EC 15 81            [12] 7005 	dec	sp
      0020EE D0 05            [24] 7006 	pop	ar5
      0020F0 E5 81            [12] 7007 	mov	a,sp
      0020F2 24 E2            [12] 7008 	add	a,#0xe2
      0020F4 F8               [12] 7009 	mov	r0,a
      0020F5 C3               [12] 7010 	clr	c
      0020F6 E6               [12] 7011 	mov	a,@r0
      0020F7 9E               [12] 7012 	subb	a,r6
      0020F8 08               [12] 7013 	inc	r0
      0020F9 E6               [12] 7014 	mov	a,@r0
      0020FA 9F               [12] 7015 	subb	a,r7
      0020FB D0 05            [24] 7016 	pop	ar5
      0020FD 50 34            [24] 7017 	jnc	00124$
                                   7018 ;	../../../core/net/rpl/rpl-icmp6.c:670: p->rank = INFINITE_RANK;
      0020FF E5 81            [12] 7019 	mov	a,sp
      002101 24 E6            [12] 7020 	add	a,#0xe6
      002103 F8               [12] 7021 	mov	r0,a
      002104 86 82            [24] 7022 	mov	dpl,@r0
      002106 08               [12] 7023 	inc	r0
      002107 86 83            [24] 7024 	mov	dph,@r0
      002109 08               [12] 7025 	inc	r0
      00210A 86 F0            [24] 7026 	mov	b,@r0
      00210C 74 FF            [12] 7027 	mov	a,#0xff
      00210E 12r00r00         [24] 7028 	lcall	__gptrput
      002111 A3               [24] 7029 	inc	dptr
      002112 12r00r00         [24] 7030 	lcall	__gptrput
                                   7031 ;	../../../core/net/rpl/rpl-icmp6.c:671: p->updated = 1;
      002115 E5 81            [12] 7032 	mov	a,sp
      002117 24 F5            [12] 7033 	add	a,#0xf5
      002119 F8               [12] 7034 	mov	r0,a
      00211A 74 21            [12] 7035 	mov	a,#0x21
      00211C 26               [12] 7036 	add	a,@r0
      00211D FC               [12] 7037 	mov	r4,a
      00211E E4               [12] 7038 	clr	a
      00211F 08               [12] 7039 	inc	r0
      002120 36               [12] 7040 	addc	a,@r0
      002121 FE               [12] 7041 	mov	r6,a
      002122 08               [12] 7042 	inc	r0
      002123 86 07            [24] 7043 	mov	ar7,@r0
      002125 8C 82            [24] 7044 	mov	dpl,r4
      002127 8E 83            [24] 7045 	mov	dph,r6
      002129 8F F0            [24] 7046 	mov	b,r7
      00212B 74 01            [12] 7047 	mov	a,#0x01
      00212D 12r00r00         [24] 7048 	lcall	__gptrput
                                   7049 ;	../../../core/net/rpl/rpl-icmp6.c:672: return;
      002130 02r22rE2         [24] 7050 	ljmp	00136$
      002133                       7051 00124$:
                                   7052 ;	../../../core/net/rpl/rpl-icmp6.c:676: rep = rpl_add_route(dag, &prefix, prefixlen, &dao_sender_addr);
      002133 90r00rAD         [24] 7053 	mov	dptr,#_dao_input_prefixlen_65536_345
      002136 E0               [24] 7054 	movx	a,@dptr
      002137 FF               [12] 7055 	mov	r7,a
      002138 7E 00            [12] 7056 	mov	r6,#0x00
      00213A C0 05            [24] 7057 	push	ar5
      00213C 74r87            [12] 7058 	mov	a,#_dao_sender_addr
      00213E C0 E0            [24] 7059 	push	acc
      002140 74s00            [12] 7060 	mov	a,#(_dao_sender_addr >> 8)
      002142 C0 E0            [24] 7061 	push	acc
      002144 E4               [12] 7062 	clr	a
      002145 C0 E0            [24] 7063 	push	acc
      002147 C0 07            [24] 7064 	push	ar7
      002149 C0 06            [24] 7065 	push	ar6
      00214B 74r10            [12] 7066 	mov	a,#_prefix
      00214D C0 E0            [24] 7067 	push	acc
      00214F 74s00            [12] 7068 	mov	a,#(_prefix >> 8)
      002151 C0 E0            [24] 7069 	push	acc
      002153 E4               [12] 7070 	clr	a
      002154 C0 E0            [24] 7071 	push	acc
      002156 E5 81            [12] 7072 	mov	a,sp
      002158 24 EF            [12] 7073 	add	a,#0xef
      00215A F8               [12] 7074 	mov	r0,a
      00215B 86 82            [24] 7075 	mov	dpl,@r0
      00215D 08               [12] 7076 	inc	r0
      00215E 86 83            [24] 7077 	mov	dph,@r0
      002160 08               [12] 7078 	inc	r0
      002161 86 F0            [24] 7079 	mov	b,@r0
      002163 78r00            [12] 7080 	mov	r0,#_rpl_add_route
      002165 79s00            [12] 7081 	mov	r1,#(_rpl_add_route >> 8)
      002167 7As00            [12] 7082 	mov	r2,#(_rpl_add_route >> 16)
      002169 12r00r00         [24] 7083 	lcall	__sdcc_banked_call
      00216C AC 82            [24] 7084 	mov	r4,dpl
      00216E AE 83            [24] 7085 	mov	r6,dph
      002170 AF F0            [24] 7086 	mov	r7,b
      002172 E5 81            [12] 7087 	mov	a,sp
      002174 24 F8            [12] 7088 	add	a,#0xf8
      002176 F5 81            [12] 7089 	mov	sp,a
      002178 D0 05            [24] 7090 	pop	ar5
      00217A E5 81            [12] 7091 	mov	a,sp
      00217C 24 EE            [12] 7092 	add	a,#0xee
      00217E F8               [12] 7093 	mov	r0,a
      00217F A6 04            [24] 7094 	mov	@r0,ar4
      002181 08               [12] 7095 	inc	r0
      002182 A6 06            [24] 7096 	mov	@r0,ar6
      002184 08               [12] 7097 	inc	r0
      002185 A6 07            [24] 7098 	mov	@r0,ar7
                                   7099 ;	../../../core/net/rpl/rpl-icmp6.c:677: if(rep == NULL) {
      002187 E5 81            [12] 7100 	mov	a,sp
      002189 24 EE            [12] 7101 	add	a,#0xee
      00218B F8               [12] 7102 	mov	r0,a
      00218C E6               [12] 7103 	mov	a,@r0
      00218D 08               [12] 7104 	inc	r0
      00218E 46               [12] 7105 	orl	a,@r0
      00218F 70 03            [24] 7106 	jnz	00126$
                                   7107 ;	../../../core/net/rpl/rpl-icmp6.c:680: return;
      002191 02r22rE2         [24] 7108 	ljmp	00136$
      002194                       7109 00126$:
                                   7110 ;	../../../core/net/rpl/rpl-icmp6.c:683: rep->state.lifetime = RPL_LIFETIME(instance, lifetime);
      002194 E5 81            [12] 7111 	mov	a,sp
      002196 24 EE            [12] 7112 	add	a,#0xee
      002198 F8               [12] 7113 	mov	r0,a
      002199 E5 81            [12] 7114 	mov	a,sp
      00219B 24 E6            [12] 7115 	add	a,#0xe6
      00219D F9               [12] 7116 	mov	r1,a
      00219E 74 25            [12] 7117 	mov	a,#0x25
      0021A0 26               [12] 7118 	add	a,@r0
      0021A1 F7               [12] 7119 	mov	@r1,a
      0021A2 E4               [12] 7120 	clr	a
      0021A3 08               [12] 7121 	inc	r0
      0021A4 36               [12] 7122 	addc	a,@r0
      0021A5 09               [12] 7123 	inc	r1
      0021A6 F7               [12] 7124 	mov	@r1,a
      0021A7 08               [12] 7125 	inc	r0
      0021A8 09               [12] 7126 	inc	r1
      0021A9 E6               [12] 7127 	mov	a,@r0
      0021AA F7               [12] 7128 	mov	@r1,a
      0021AB E5 81            [12] 7129 	mov	a,sp
      0021AD 24 FB            [12] 7130 	add	a,#0xfb
      0021AF F8               [12] 7131 	mov	r0,a
      0021B0 74 95            [12] 7132 	mov	a,#0x95
      0021B2 26               [12] 7133 	add	a,@r0
      0021B3 FC               [12] 7134 	mov	r4,a
      0021B4 E4               [12] 7135 	clr	a
      0021B5 08               [12] 7136 	inc	r0
      0021B6 36               [12] 7137 	addc	a,@r0
      0021B7 FE               [12] 7138 	mov	r6,a
      0021B8 08               [12] 7139 	inc	r0
      0021B9 86 07            [24] 7140 	mov	ar7,@r0
      0021BB 8C 82            [24] 7141 	mov	dpl,r4
      0021BD 8E 83            [24] 7142 	mov	dph,r6
      0021BF 8F F0            [24] 7143 	mov	b,r7
      0021C1 12r00r00         [24] 7144 	lcall	__gptrget
      0021C4 FC               [12] 7145 	mov	r4,a
      0021C5 A3               [24] 7146 	inc	dptr
      0021C6 12r00r00         [24] 7147 	lcall	__gptrget
      0021C9 FE               [12] 7148 	mov	r6,a
      0021CA E5 81            [12] 7149 	mov	a,sp
      0021CC 24 E9            [12] 7150 	add	a,#0xe9
      0021CE F8               [12] 7151 	mov	r0,a
      0021CF A6 04            [24] 7152 	mov	@r0,ar4
      0021D1 08               [12] 7153 	inc	r0
      0021D2 A6 06            [24] 7154 	mov	@r0,ar6
      0021D4 08               [12] 7155 	inc	r0
      0021D5 76 00            [12] 7156 	mov	@r0,#0x00
      0021D7 08               [12] 7157 	inc	r0
      0021D8 76 00            [12] 7158 	mov	@r0,#0x00
      0021DA 90r00rAC         [24] 7159 	mov	dptr,#_dao_input_lifetime_65536_345
      0021DD E0               [24] 7160 	movx	a,@dptr
      0021DE FA               [12] 7161 	mov	r2,a
      0021DF 7C 00            [12] 7162 	mov	r4,#0x00
      0021E1 7E 00            [12] 7163 	mov	r6,#0x00
      0021E3 7F 00            [12] 7164 	mov	r7,#0x00
      0021E5 C0 05            [24] 7165 	push	ar5
      0021E7 C0 02            [24] 7166 	push	ar2
      0021E9 C0 04            [24] 7167 	push	ar4
      0021EB C0 06            [24] 7168 	push	ar6
      0021ED C0 07            [24] 7169 	push	ar7
      0021EF E5 81            [12] 7170 	mov	a,sp
      0021F1 24 E4            [12] 7171 	add	a,#0xe4
      0021F3 F8               [12] 7172 	mov	r0,a
      0021F4 86 82            [24] 7173 	mov	dpl,@r0
      0021F6 08               [12] 7174 	inc	r0
      0021F7 86 83            [24] 7175 	mov	dph,@r0
      0021F9 08               [12] 7176 	inc	r0
      0021FA 86 F0            [24] 7177 	mov	b,@r0
      0021FC 08               [12] 7178 	inc	r0
      0021FD E6               [12] 7179 	mov	a,@r0
      0021FE 12r00r00         [24] 7180 	lcall	__mullong
      002201 AC 82            [24] 7181 	mov	r4,dpl
      002203 AB 83            [24] 7182 	mov	r3,dph
      002205 AE F0            [24] 7183 	mov	r6,b
      002207 FF               [12] 7184 	mov	r7,a
      002208 E5 81            [12] 7185 	mov	a,sp
      00220A 24 FC            [12] 7186 	add	a,#0xfc
      00220C F5 81            [12] 7187 	mov	sp,a
      00220E D0 05            [24] 7188 	pop	ar5
      002210 E5 81            [12] 7189 	mov	a,sp
      002212 24 E6            [12] 7190 	add	a,#0xe6
      002214 F8               [12] 7191 	mov	r0,a
      002215 86 82            [24] 7192 	mov	dpl,@r0
      002217 08               [12] 7193 	inc	r0
      002218 86 83            [24] 7194 	mov	dph,@r0
      00221A 08               [12] 7195 	inc	r0
      00221B 86 F0            [24] 7196 	mov	b,@r0
      00221D EC               [12] 7197 	mov	a,r4
      00221E 12r00r00         [24] 7198 	lcall	__gptrput
      002221 A3               [24] 7199 	inc	dptr
      002222 EB               [12] 7200 	mov	a,r3
      002223 12r00r00         [24] 7201 	lcall	__gptrput
      002226 A3               [24] 7202 	inc	dptr
      002227 EE               [12] 7203 	mov	a,r6
      002228 12r00r00         [24] 7204 	lcall	__gptrput
      00222B A3               [24] 7205 	inc	dptr
      00222C EF               [12] 7206 	mov	a,r7
      00222D 12r00r00         [24] 7207 	lcall	__gptrput
                                   7208 ;	../../../core/net/rpl/rpl-icmp6.c:684: rep->state.learned_from = learned_from;
      002230 E5 81            [12] 7209 	mov	a,sp
      002232 24 EE            [12] 7210 	add	a,#0xee
      002234 F8               [12] 7211 	mov	r0,a
      002235 74 30            [12] 7212 	mov	a,#0x30
      002237 26               [12] 7213 	add	a,@r0
      002238 FC               [12] 7214 	mov	r4,a
      002239 E4               [12] 7215 	clr	a
      00223A 08               [12] 7216 	inc	r0
      00223B 36               [12] 7217 	addc	a,@r0
      00223C FE               [12] 7218 	mov	r6,a
      00223D 08               [12] 7219 	inc	r0
      00223E 86 07            [24] 7220 	mov	ar7,@r0
      002240 E5 81            [12] 7221 	mov	a,sp
      002242 24 F3            [12] 7222 	add	a,#0xf3
      002244 F8               [12] 7223 	mov	r0,a
      002245 86 03            [24] 7224 	mov	ar3,@r0
      002247 8C 82            [24] 7225 	mov	dpl,r4
      002249 8E 83            [24] 7226 	mov	dph,r6
      00224B 8F F0            [24] 7227 	mov	b,r7
      00224D EB               [12] 7228 	mov	a,r3
      00224E 12r00r00         [24] 7229 	lcall	__gptrput
                                   7230 ;	../../../core/net/rpl/rpl-icmp6.c:686: if(learned_from == RPL_ROUTE_FROM_UNICAST_DAO) {
      002251 ED               [12] 7231 	mov	a,r5
      002252 70 03            [24] 7232 	jnz	00260$
      002254 02r22rE2         [24] 7233 	ljmp	00136$
      002257                       7234 00260$:
                                   7235 ;	../../../core/net/rpl/rpl-icmp6.c:687: if(dag->preferred_parent) {
      002257 E5 81            [12] 7236 	mov	a,sp
      002259 24 F8            [12] 7237 	add	a,#0xf8
      00225B F8               [12] 7238 	mov	r0,a
      00225C 74 17            [12] 7239 	mov	a,#0x17
      00225E 26               [12] 7240 	add	a,@r0
      00225F FD               [12] 7241 	mov	r5,a
      002260 E4               [12] 7242 	clr	a
      002261 08               [12] 7243 	inc	r0
      002262 36               [12] 7244 	addc	a,@r0
      002263 FE               [12] 7245 	mov	r6,a
      002264 08               [12] 7246 	inc	r0
      002265 86 07            [24] 7247 	mov	ar7,@r0
      002267 8D 82            [24] 7248 	mov	dpl,r5
      002269 8E 83            [24] 7249 	mov	dph,r6
      00226B 8F F0            [24] 7250 	mov	b,r7
      00226D 12r00r00         [24] 7251 	lcall	__gptrget
      002270 FD               [12] 7252 	mov	r5,a
      002271 A3               [24] 7253 	inc	dptr
      002272 12r00r00         [24] 7254 	lcall	__gptrget
      002275 FE               [12] 7255 	mov	r6,a
      002276 A3               [24] 7256 	inc	dptr
      002277 12r00r00         [24] 7257 	lcall	__gptrget
      00227A FF               [12] 7258 	mov	r7,a
      00227B ED               [12] 7259 	mov	a,r5
      00227C 4E               [12] 7260 	orl	a,r6
      00227D 60 2A            [24] 7261 	jz	00128$
                                   7262 ;	../../../core/net/rpl/rpl-icmp6.c:691: uip_icmp6_send(&dag->preferred_parent->addr,
      00227F 74 0D            [12] 7263 	mov	a,#0x0d
      002281 2D               [12] 7264 	add	a,r5
      002282 FD               [12] 7265 	mov	r5,a
      002283 E4               [12] 7266 	clr	a
      002284 3E               [12] 7267 	addc	a,r6
      002285 FE               [12] 7268 	mov	r6,a
      002286 90r00rAE         [24] 7269 	mov	dptr,#_dao_input_buffer_length_65536_345
      002289 E0               [24] 7270 	movx	a,@dptr
      00228A C0 E0            [24] 7271 	push	acc
      00228C 74 02            [12] 7272 	mov	a,#0x02
      00228E C0 E0            [24] 7273 	push	acc
      002290 74 9B            [12] 7274 	mov	a,#0x9b
      002292 C0 E0            [24] 7275 	push	acc
      002294 8D 82            [24] 7276 	mov	dpl,r5
      002296 8E 83            [24] 7277 	mov	dph,r6
      002298 8F F0            [24] 7278 	mov	b,r7
      00229A 78r00            [12] 7279 	mov	r0,#_uip_icmp6_send
      00229C 79s00            [12] 7280 	mov	r1,#(_uip_icmp6_send >> 8)
      00229E 7As00            [12] 7281 	mov	r2,#(_uip_icmp6_send >> 16)
      0022A0 12r00r00         [24] 7282 	lcall	__sdcc_banked_call
      0022A3 15 81            [12] 7283 	dec	sp
      0022A5 15 81            [12] 7284 	dec	sp
      0022A7 15 81            [12] 7285 	dec	sp
      0022A9                       7286 00128$:
                                   7287 ;	../../../core/net/rpl/rpl-icmp6.c:694: if(flags & RPL_DAO_K_FLAG) {
      0022A9 E5 81            [12] 7288 	mov	a,sp
      0022AB 24 ED            [12] 7289 	add	a,#0xed
      0022AD F8               [12] 7290 	mov	r0,a
      0022AE E6               [12] 7291 	mov	a,@r0
      0022AF 30 E7 30         [24] 7292 	jnb	acc.7,00136$
                                   7293 ;	../../../core/net/rpl/rpl-icmp6.c:695: dao_ack_output(instance, &dao_sender_addr, sequence);
      0022B2 90r00rA9         [24] 7294 	mov	dptr,#_dao_input_sequence_65536_345
      0022B5 E0               [24] 7295 	movx	a,@dptr
      0022B6 FE               [12] 7296 	mov	r6,a
      0022B7 A3               [24] 7297 	inc	dptr
      0022B8 E0               [24] 7298 	movx	a,@dptr
      0022B9 C0 06            [24] 7299 	push	ar6
      0022BB 74r87            [12] 7300 	mov	a,#_dao_sender_addr
      0022BD C0 E0            [24] 7301 	push	acc
      0022BF 74s00            [12] 7302 	mov	a,#(_dao_sender_addr >> 8)
      0022C1 C0 E0            [24] 7303 	push	acc
      0022C3 E4               [12] 7304 	clr	a
      0022C4 C0 E0            [24] 7305 	push	acc
      0022C6 E5 81            [12] 7306 	mov	a,sp
      0022C8 24 F7            [12] 7307 	add	a,#0xf7
      0022CA F8               [12] 7308 	mov	r0,a
      0022CB 86 82            [24] 7309 	mov	dpl,@r0
      0022CD 08               [12] 7310 	inc	r0
      0022CE 86 83            [24] 7311 	mov	dph,@r0
      0022D0 08               [12] 7312 	inc	r0
      0022D1 86 F0            [24] 7313 	mov	b,@r0
      0022D3 78rD5            [12] 7314 	mov	r0,#_dao_ack_output
      0022D5 79s25            [12] 7315 	mov	r1,#(_dao_ack_output >> 8)
      0022D7 7As00            [12] 7316 	mov	r2,#(_dao_ack_output >> 16)
      0022D9 12r00r00         [24] 7317 	lcall	__sdcc_banked_call
      0022DC E5 81            [12] 7318 	mov	a,sp
      0022DE 24 FC            [12] 7319 	add	a,#0xfc
      0022E0 F5 81            [12] 7320 	mov	sp,a
      0022E2                       7321 00136$:
                                   7322 ;	../../../core/net/rpl/rpl-icmp6.c:698: }
      0022E2 E5 81            [12] 7323 	mov	a,sp
      0022E4 24 DF            [12] 7324 	add	a,#0xdf
      0022E6 F5 81            [12] 7325 	mov	sp,a
      0022E8 02r00r00         [24] 7326 	ljmp	__sdcc_banked_ret
                                   7327 ;------------------------------------------------------------
                                   7328 ;Allocation info for local variables in function 'dao_output'
                                   7329 ;------------------------------------------------------------
                                   7330 ;lifetime                  Allocated to stack - sp -12
                                   7331 ;n                         Allocated to stack - sp -8
                                   7332 ;dag                       Allocated to stack - sp -5
                                   7333 ;instance                  Allocated to registers r5 r3 r4 
                                   7334 ;buffer                    Allocated to stack - sp -2
                                   7335 ;prefixlen                 Allocated to registers 
                                   7336 ;pos                       Allocated to registers 
                                   7337 ;sloc0                     Allocated to stack - sp +7
                                   7338 ;------------------------------------------------------------
                                   7339 ;	../../../core/net/rpl/rpl-icmp6.c:701: dao_output(rpl_parent_t *n, uint8_t lifetime)
                                   7340 ;	-----------------------------------------
                                   7341 ;	 function dao_output
                                   7342 ;	-----------------------------------------
      0022EB                       7343 _dao_output:
      0022EB C0 82            [24] 7344 	push	dpl
      0022ED C0 83            [24] 7345 	push	dph
      0022EF C0 F0            [24] 7346 	push	b
      0022F1 E5 81            [12] 7347 	mov	a,sp
      0022F3 24 06            [12] 7348 	add	a,#0x06
      0022F5 F5 81            [12] 7349 	mov	sp,a
                                   7350 ;	../../../core/net/rpl/rpl-icmp6.c:711: if(get_global_addr(&prefix) == 0) {
      0022F7 90r00r10         [24] 7351 	mov	dptr,#_prefix
      0022FA 75 F0 00         [24] 7352 	mov	b,#0x00
      0022FD 78r00            [12] 7353 	mov	r0,#_get_global_addr
      0022FF 79s00            [12] 7354 	mov	r1,#(_get_global_addr >> 8)
      002301 7As00            [12] 7355 	mov	r2,#(_get_global_addr >> 16)
      002303 12r00r00         [24] 7356 	lcall	__sdcc_banked_call
      002306 E5 82            [12] 7357 	mov	a,dpl
      002308 85 83 F0         [24] 7358 	mov	b,dph
      00230B 45 F0            [12] 7359 	orl	a,b
      00230D 70 03            [24] 7360 	jnz	00102$
                                   7361 ;	../../../core/net/rpl/rpl-icmp6.c:713: return;
      00230F 02r25rC9         [24] 7362 	ljmp	00103$
      002312                       7363 00102$:
                                   7364 ;	../../../core/net/rpl/rpl-icmp6.c:716: dag = n->dag;
      002312 E5 81            [12] 7365 	mov	a,sp
      002314 24 F8            [12] 7366 	add	a,#0xf8
      002316 F8               [12] 7367 	mov	r0,a
      002317 74 03            [12] 7368 	mov	a,#0x03
      002319 26               [12] 7369 	add	a,@r0
      00231A FA               [12] 7370 	mov	r2,a
      00231B E4               [12] 7371 	clr	a
      00231C 08               [12] 7372 	inc	r0
      00231D 36               [12] 7373 	addc	a,@r0
      00231E FB               [12] 7374 	mov	r3,a
      00231F 08               [12] 7375 	inc	r0
      002320 86 04            [24] 7376 	mov	ar4,@r0
      002322 8A 82            [24] 7377 	mov	dpl,r2
      002324 8B 83            [24] 7378 	mov	dph,r3
      002326 8C F0            [24] 7379 	mov	b,r4
      002328 E5 81            [12] 7380 	mov	a,sp
      00232A 24 FB            [12] 7381 	add	a,#0xfb
      00232C F8               [12] 7382 	mov	r0,a
      00232D 12r00r00         [24] 7383 	lcall	__gptrget
      002330 F6               [12] 7384 	mov	@r0,a
      002331 A3               [24] 7385 	inc	dptr
      002332 12r00r00         [24] 7386 	lcall	__gptrget
      002335 08               [12] 7387 	inc	r0
      002336 F6               [12] 7388 	mov	@r0,a
      002337 A3               [24] 7389 	inc	dptr
      002338 12r00r00         [24] 7390 	lcall	__gptrget
      00233B 08               [12] 7391 	inc	r0
      00233C F6               [12] 7392 	mov	@r0,a
                                   7393 ;	../../../core/net/rpl/rpl-icmp6.c:717: instance = dag->instance;
      00233D E5 81            [12] 7394 	mov	a,sp
      00233F 24 FB            [12] 7395 	add	a,#0xfb
      002341 F8               [12] 7396 	mov	r0,a
      002342 74 1C            [12] 7397 	mov	a,#0x1c
      002344 26               [12] 7398 	add	a,@r0
      002345 FD               [12] 7399 	mov	r5,a
      002346 E4               [12] 7400 	clr	a
      002347 08               [12] 7401 	inc	r0
      002348 36               [12] 7402 	addc	a,@r0
      002349 FE               [12] 7403 	mov	r6,a
      00234A 08               [12] 7404 	inc	r0
      00234B 86 07            [24] 7405 	mov	ar7,@r0
      00234D 8D 82            [24] 7406 	mov	dpl,r5
      00234F 8E 83            [24] 7407 	mov	dph,r6
      002351 8F F0            [24] 7408 	mov	b,r7
      002353 12r00r00         [24] 7409 	lcall	__gptrget
      002356 FD               [12] 7410 	mov	r5,a
      002357 A3               [24] 7411 	inc	dptr
      002358 12r00r00         [24] 7412 	lcall	__gptrget
      00235B FB               [12] 7413 	mov	r3,a
      00235C A3               [24] 7414 	inc	dptr
      00235D 12r00r00         [24] 7415 	lcall	__gptrget
      002360 FC               [12] 7416 	mov	r4,a
                                   7417 ;	../../../core/net/rpl/rpl-icmp6.c:723: buffer = UIP_ICMP_PAYLOAD;
      002361 90r00r00         [24] 7418 	mov	dptr,#_uip_ext_len
      002364 E0               [24] 7419 	movx	a,@dptr
      002365 FF               [12] 7420 	mov	r7,a
      002366 7E 00            [12] 7421 	mov	r6,#0x00
      002368 74 2C            [12] 7422 	mov	a,#0x2c
      00236A 2F               [12] 7423 	add	a,r7
      00236B FF               [12] 7424 	mov	r7,a
      00236C E4               [12] 7425 	clr	a
      00236D 3E               [12] 7426 	addc	a,r6
      00236E FE               [12] 7427 	mov	r6,a
      00236F EF               [12] 7428 	mov	a,r7
      002370 24r00            [12] 7429 	add	a,#_uip_aligned_buf
      002372 FF               [12] 7430 	mov	r7,a
      002373 EE               [12] 7431 	mov	a,r6
      002374 34s00            [12] 7432 	addc	a,#(_uip_aligned_buf >> 8)
      002376 FE               [12] 7433 	mov	r6,a
      002377 A8 81            [24] 7434 	mov	r0,sp
      002379 18               [12] 7435 	dec	r0
      00237A 18               [12] 7436 	dec	r0
      00237B A6 07            [24] 7437 	mov	@r0,ar7
      00237D 08               [12] 7438 	inc	r0
      00237E A6 06            [24] 7439 	mov	@r0,ar6
      002380 08               [12] 7440 	inc	r0
      002381 76 00            [12] 7441 	mov	@r0,#0x00
                                   7442 ;	../../../core/net/rpl/rpl-icmp6.c:725: RPL_LOLLIPOP_INCREMENT(dao_sequence);
      002383 90r00r00         [24] 7443 	mov	dptr,#_dao_sequence
      002386 E0               [24] 7444 	movx	a,@dptr
      002387 FF               [12] 7445 	mov  r7,a
      002388 24 80            [12] 7446 	add	a,#0xff - 0x7f
      00238A 50 08            [24] 7447 	jnc	00105$
      00238C 90r00r00         [24] 7448 	mov	dptr,#_dao_sequence
      00238F EF               [12] 7449 	mov	a,r7
      002390 04               [12] 7450 	inc	a
      002391 F0               [24] 7451 	movx	@dptr,a
      002392 80 06            [24] 7452 	sjmp	00106$
      002394                       7453 00105$:
      002394 90r00r00         [24] 7454 	mov	dptr,#_dao_sequence
      002397 EF               [12] 7455 	mov	a,r7
      002398 04               [12] 7456 	inc	a
      002399 F0               [24] 7457 	movx	@dptr,a
      00239A                       7458 00106$:
                                   7459 ;	../../../core/net/rpl/rpl-icmp6.c:728: buffer[pos++] = instance->instance_id;
      00239A 74 86            [12] 7460 	mov	a,#0x86
      00239C 2D               [12] 7461 	add	a,r5
      00239D FA               [12] 7462 	mov	r2,a
      00239E E4               [12] 7463 	clr	a
      00239F 3B               [12] 7464 	addc	a,r3
      0023A0 FB               [12] 7465 	mov	r3,a
      0023A1 8A 82            [24] 7466 	mov	dpl,r2
      0023A3 8B 83            [24] 7467 	mov	dph,r3
      0023A5 8C F0            [24] 7468 	mov	b,r4
      0023A7 12r00r00         [24] 7469 	lcall	__gptrget
      0023AA FA               [12] 7470 	mov	r2,a
      0023AB A8 81            [24] 7471 	mov	r0,sp
      0023AD 18               [12] 7472 	dec	r0
      0023AE 18               [12] 7473 	dec	r0
      0023AF 86 82            [24] 7474 	mov	dpl,@r0
      0023B1 08               [12] 7475 	inc	r0
      0023B2 86 83            [24] 7476 	mov	dph,@r0
      0023B4 08               [12] 7477 	inc	r0
      0023B5 86 F0            [24] 7478 	mov	b,@r0
      0023B7 EA               [12] 7479 	mov	a,r2
      0023B8 12r00r00         [24] 7480 	lcall	__gptrput
                                   7481 ;	../../../core/net/rpl/rpl-icmp6.c:729: buffer[pos] = 0;
      0023BB A8 81            [24] 7482 	mov	r0,sp
      0023BD 18               [12] 7483 	dec	r0
      0023BE 18               [12] 7484 	dec	r0
      0023BF 74 01            [12] 7485 	mov	a,#0x01
      0023C1 26               [12] 7486 	add	a,@r0
      0023C2 FA               [12] 7487 	mov	r2,a
      0023C3 E4               [12] 7488 	clr	a
      0023C4 08               [12] 7489 	inc	r0
      0023C5 36               [12] 7490 	addc	a,@r0
      0023C6 FB               [12] 7491 	mov	r3,a
      0023C7 08               [12] 7492 	inc	r0
      0023C8 86 04            [24] 7493 	mov	ar4,@r0
      0023CA 8A 82            [24] 7494 	mov	dpl,r2
      0023CC 8B 83            [24] 7495 	mov	dph,r3
      0023CE 8C F0            [24] 7496 	mov	b,r4
      0023D0 E4               [12] 7497 	clr	a
      0023D1 12r00r00         [24] 7498 	lcall	__gptrput
                                   7499 ;	../../../core/net/rpl/rpl-icmp6.c:731: buffer[pos] |= RPL_DAO_D_FLAG;
      0023D4 8A 82            [24] 7500 	mov	dpl,r2
      0023D6 8B 83            [24] 7501 	mov	dph,r3
      0023D8 8C F0            [24] 7502 	mov	b,r4
      0023DA 12r00r00         [24] 7503 	lcall	__gptrget
      0023DD FF               [12] 7504 	mov	r7,a
      0023DE 43 07 40         [24] 7505 	orl	ar7,#0x40
      0023E1 8A 82            [24] 7506 	mov	dpl,r2
      0023E3 8B 83            [24] 7507 	mov	dph,r3
      0023E5 8C F0            [24] 7508 	mov	b,r4
      0023E7 EF               [12] 7509 	mov	a,r7
      0023E8 12r00r00         [24] 7510 	lcall	__gptrput
                                   7511 ;	../../../core/net/rpl/rpl-icmp6.c:737: buffer[pos++] = 0; /* reserved */
      0023EB A8 81            [24] 7512 	mov	r0,sp
      0023ED 18               [12] 7513 	dec	r0
      0023EE 18               [12] 7514 	dec	r0
      0023EF 74 02            [12] 7515 	mov	a,#0x02
      0023F1 26               [12] 7516 	add	a,@r0
      0023F2 FD               [12] 7517 	mov	r5,a
      0023F3 E4               [12] 7518 	clr	a
      0023F4 08               [12] 7519 	inc	r0
      0023F5 36               [12] 7520 	addc	a,@r0
      0023F6 FE               [12] 7521 	mov	r6,a
      0023F7 08               [12] 7522 	inc	r0
      0023F8 86 07            [24] 7523 	mov	ar7,@r0
      0023FA 8D 82            [24] 7524 	mov	dpl,r5
      0023FC 8E 83            [24] 7525 	mov	dph,r6
      0023FE 8F F0            [24] 7526 	mov	b,r7
      002400 E4               [12] 7527 	clr	a
      002401 12r00r00         [24] 7528 	lcall	__gptrput
                                   7529 ;	../../../core/net/rpl/rpl-icmp6.c:738: buffer[pos++] = dao_sequence;
      002404 A8 81            [24] 7530 	mov	r0,sp
      002406 18               [12] 7531 	dec	r0
      002407 18               [12] 7532 	dec	r0
      002408 74 03            [12] 7533 	mov	a,#0x03
      00240A 26               [12] 7534 	add	a,@r0
      00240B FD               [12] 7535 	mov	r5,a
      00240C E4               [12] 7536 	clr	a
      00240D 08               [12] 7537 	inc	r0
      00240E 36               [12] 7538 	addc	a,@r0
      00240F FE               [12] 7539 	mov	r6,a
      002410 08               [12] 7540 	inc	r0
      002411 86 07            [24] 7541 	mov	ar7,@r0
      002413 90r00r00         [24] 7542 	mov	dptr,#_dao_sequence
      002416 E0               [24] 7543 	movx	a,@dptr
      002417 8D 82            [24] 7544 	mov	dpl,r5
      002419 8E 83            [24] 7545 	mov	dph,r6
      00241B 8F F0            [24] 7546 	mov	b,r7
      00241D 12r00r00         [24] 7547 	lcall	__gptrput
                                   7548 ;	../../../core/net/rpl/rpl-icmp6.c:740: memcpy(buffer + pos, &dag->dag_id, sizeof(dag->dag_id));
      002420 E5 81            [12] 7549 	mov	a,sp
      002422 24 FB            [12] 7550 	add	a,#0xfb
      002424 F8               [12] 7551 	mov	r0,a
      002425 86 05            [24] 7552 	mov	ar5,@r0
      002427 08               [12] 7553 	inc	r0
      002428 86 06            [24] 7554 	mov	ar6,@r0
      00242A 08               [12] 7555 	inc	r0
      00242B 86 07            [24] 7556 	mov	ar7,@r0
      00242D A8 81            [24] 7557 	mov	r0,sp
      00242F 18               [12] 7558 	dec	r0
      002430 18               [12] 7559 	dec	r0
      002431 74 04            [12] 7560 	mov	a,#0x04
      002433 26               [12] 7561 	add	a,@r0
      002434 FA               [12] 7562 	mov	r2,a
      002435 E4               [12] 7563 	clr	a
      002436 08               [12] 7564 	inc	r0
      002437 36               [12] 7565 	addc	a,@r0
      002438 FB               [12] 7566 	mov	r3,a
      002439 08               [12] 7567 	inc	r0
      00243A 86 04            [24] 7568 	mov	ar4,@r0
      00243C 74 10            [12] 7569 	mov	a,#0x10
      00243E C0 E0            [24] 7570 	push	acc
      002440 E4               [12] 7571 	clr	a
      002441 C0 E0            [24] 7572 	push	acc
      002443 C0 05            [24] 7573 	push	ar5
      002445 C0 06            [24] 7574 	push	ar6
      002447 C0 07            [24] 7575 	push	ar7
      002449 8A 82            [24] 7576 	mov	dpl,r2
      00244B 8B 83            [24] 7577 	mov	dph,r3
      00244D 8C F0            [24] 7578 	mov	b,r4
      00244F 78r00            [12] 7579 	mov	r0,#___memcpy
      002451 79s00            [12] 7580 	mov	r1,#(___memcpy >> 8)
      002453 7As00            [12] 7581 	mov	r2,#(___memcpy >> 16)
      002455 12r00r00         [24] 7582 	lcall	__sdcc_banked_call
      002458 E5 81            [12] 7583 	mov	a,sp
      00245A 24 FB            [12] 7584 	add	a,#0xfb
      00245C F5 81            [12] 7585 	mov	sp,a
                                   7586 ;	../../../core/net/rpl/rpl-icmp6.c:746: buffer[pos++] = RPL_OPTION_TARGET;
      00245E A8 81            [24] 7587 	mov	r0,sp
      002460 18               [12] 7588 	dec	r0
      002461 18               [12] 7589 	dec	r0
      002462 74 14            [12] 7590 	mov	a,#0x14
      002464 26               [12] 7591 	add	a,@r0
      002465 FD               [12] 7592 	mov	r5,a
      002466 E4               [12] 7593 	clr	a
      002467 08               [12] 7594 	inc	r0
      002468 36               [12] 7595 	addc	a,@r0
      002469 FE               [12] 7596 	mov	r6,a
      00246A 08               [12] 7597 	inc	r0
      00246B 86 07            [24] 7598 	mov	ar7,@r0
      00246D 8D 82            [24] 7599 	mov	dpl,r5
      00246F 8E 83            [24] 7600 	mov	dph,r6
      002471 8F F0            [24] 7601 	mov	b,r7
      002473 74 05            [12] 7602 	mov	a,#0x05
      002475 12r00r00         [24] 7603 	lcall	__gptrput
                                   7604 ;	../../../core/net/rpl/rpl-icmp6.c:747: buffer[pos++] = 2 + ((prefixlen + 7) / CHAR_BIT);
      002478 A8 81            [24] 7605 	mov	r0,sp
      00247A 18               [12] 7606 	dec	r0
      00247B 18               [12] 7607 	dec	r0
      00247C 74 15            [12] 7608 	mov	a,#0x15
      00247E 26               [12] 7609 	add	a,@r0
      00247F FD               [12] 7610 	mov	r5,a
      002480 E4               [12] 7611 	clr	a
      002481 08               [12] 7612 	inc	r0
      002482 36               [12] 7613 	addc	a,@r0
      002483 FE               [12] 7614 	mov	r6,a
      002484 08               [12] 7615 	inc	r0
      002485 86 07            [24] 7616 	mov	ar7,@r0
      002487 8D 82            [24] 7617 	mov	dpl,r5
      002489 8E 83            [24] 7618 	mov	dph,r6
      00248B 8F F0            [24] 7619 	mov	b,r7
      00248D 74 12            [12] 7620 	mov	a,#0x12
      00248F 12r00r00         [24] 7621 	lcall	__gptrput
                                   7622 ;	../../../core/net/rpl/rpl-icmp6.c:748: buffer[pos++] = 0; /* reserved */
      002492 A8 81            [24] 7623 	mov	r0,sp
      002494 18               [12] 7624 	dec	r0
      002495 18               [12] 7625 	dec	r0
      002496 74 16            [12] 7626 	mov	a,#0x16
      002498 26               [12] 7627 	add	a,@r0
      002499 FD               [12] 7628 	mov	r5,a
      00249A E4               [12] 7629 	clr	a
      00249B 08               [12] 7630 	inc	r0
      00249C 36               [12] 7631 	addc	a,@r0
      00249D FE               [12] 7632 	mov	r6,a
      00249E 08               [12] 7633 	inc	r0
      00249F 86 07            [24] 7634 	mov	ar7,@r0
      0024A1 8D 82            [24] 7635 	mov	dpl,r5
      0024A3 8E 83            [24] 7636 	mov	dph,r6
      0024A5 8F F0            [24] 7637 	mov	b,r7
      0024A7 E4               [12] 7638 	clr	a
      0024A8 12r00r00         [24] 7639 	lcall	__gptrput
                                   7640 ;	../../../core/net/rpl/rpl-icmp6.c:749: buffer[pos++] = prefixlen;
      0024AB A8 81            [24] 7641 	mov	r0,sp
      0024AD 18               [12] 7642 	dec	r0
      0024AE 18               [12] 7643 	dec	r0
      0024AF 74 17            [12] 7644 	mov	a,#0x17
      0024B1 26               [12] 7645 	add	a,@r0
      0024B2 FD               [12] 7646 	mov	r5,a
      0024B3 E4               [12] 7647 	clr	a
      0024B4 08               [12] 7648 	inc	r0
      0024B5 36               [12] 7649 	addc	a,@r0
      0024B6 FE               [12] 7650 	mov	r6,a
      0024B7 08               [12] 7651 	inc	r0
      0024B8 86 07            [24] 7652 	mov	ar7,@r0
      0024BA 8D 82            [24] 7653 	mov	dpl,r5
      0024BC 8E 83            [24] 7654 	mov	dph,r6
      0024BE 8F F0            [24] 7655 	mov	b,r7
      0024C0 74 80            [12] 7656 	mov	a,#0x80
      0024C2 12r00r00         [24] 7657 	lcall	__gptrput
                                   7658 ;	../../../core/net/rpl/rpl-icmp6.c:750: memcpy(buffer + pos, &prefix, (prefixlen + 7) / CHAR_BIT);
      0024C5 A8 81            [24] 7659 	mov	r0,sp
      0024C7 18               [12] 7660 	dec	r0
      0024C8 18               [12] 7661 	dec	r0
      0024C9 74 18            [12] 7662 	mov	a,#0x18
      0024CB 26               [12] 7663 	add	a,@r0
      0024CC FD               [12] 7664 	mov	r5,a
      0024CD E4               [12] 7665 	clr	a
      0024CE 08               [12] 7666 	inc	r0
      0024CF 36               [12] 7667 	addc	a,@r0
      0024D0 FE               [12] 7668 	mov	r6,a
      0024D1 08               [12] 7669 	inc	r0
      0024D2 86 07            [24] 7670 	mov	ar7,@r0
      0024D4 74 10            [12] 7671 	mov	a,#0x10
      0024D6 C0 E0            [24] 7672 	push	acc
      0024D8 E4               [12] 7673 	clr	a
      0024D9 C0 E0            [24] 7674 	push	acc
      0024DB 74r10            [12] 7675 	mov	a,#_prefix
      0024DD C0 E0            [24] 7676 	push	acc
      0024DF 74s00            [12] 7677 	mov	a,#(_prefix >> 8)
      0024E1 C0 E0            [24] 7678 	push	acc
      0024E3 E4               [12] 7679 	clr	a
      0024E4 C0 E0            [24] 7680 	push	acc
      0024E6 8D 82            [24] 7681 	mov	dpl,r5
      0024E8 8E 83            [24] 7682 	mov	dph,r6
      0024EA 8F F0            [24] 7683 	mov	b,r7
      0024EC 78r00            [12] 7684 	mov	r0,#___memcpy
      0024EE 79s00            [12] 7685 	mov	r1,#(___memcpy >> 8)
      0024F0 7As00            [12] 7686 	mov	r2,#(___memcpy >> 16)
      0024F2 12r00r00         [24] 7687 	lcall	__sdcc_banked_call
      0024F5 E5 81            [12] 7688 	mov	a,sp
      0024F7 24 FB            [12] 7689 	add	a,#0xfb
      0024F9 F5 81            [12] 7690 	mov	sp,a
                                   7691 ;	../../../core/net/rpl/rpl-icmp6.c:754: buffer[pos++] = RPL_OPTION_TRANSIT;
      0024FB A8 81            [24] 7692 	mov	r0,sp
      0024FD 18               [12] 7693 	dec	r0
      0024FE 18               [12] 7694 	dec	r0
      0024FF 74 28            [12] 7695 	mov	a,#0x28
      002501 26               [12] 7696 	add	a,@r0
      002502 FD               [12] 7697 	mov	r5,a
      002503 E4               [12] 7698 	clr	a
      002504 08               [12] 7699 	inc	r0
      002505 36               [12] 7700 	addc	a,@r0
      002506 FE               [12] 7701 	mov	r6,a
      002507 08               [12] 7702 	inc	r0
      002508 86 07            [24] 7703 	mov	ar7,@r0
      00250A 8D 82            [24] 7704 	mov	dpl,r5
      00250C 8E 83            [24] 7705 	mov	dph,r6
      00250E 8F F0            [24] 7706 	mov	b,r7
      002510 74 06            [12] 7707 	mov	a,#0x06
      002512 12r00r00         [24] 7708 	lcall	__gptrput
                                   7709 ;	../../../core/net/rpl/rpl-icmp6.c:755: buffer[pos++] = 4;
      002515 A8 81            [24] 7710 	mov	r0,sp
      002517 18               [12] 7711 	dec	r0
      002518 18               [12] 7712 	dec	r0
      002519 74 29            [12] 7713 	mov	a,#0x29
      00251B 26               [12] 7714 	add	a,@r0
      00251C FD               [12] 7715 	mov	r5,a
      00251D E4               [12] 7716 	clr	a
      00251E 08               [12] 7717 	inc	r0
      00251F 36               [12] 7718 	addc	a,@r0
      002520 FE               [12] 7719 	mov	r6,a
      002521 08               [12] 7720 	inc	r0
      002522 86 07            [24] 7721 	mov	ar7,@r0
      002524 8D 82            [24] 7722 	mov	dpl,r5
      002526 8E 83            [24] 7723 	mov	dph,r6
      002528 8F F0            [24] 7724 	mov	b,r7
      00252A 74 04            [12] 7725 	mov	a,#0x04
      00252C 12r00r00         [24] 7726 	lcall	__gptrput
                                   7727 ;	../../../core/net/rpl/rpl-icmp6.c:756: buffer[pos++] = 0; /* flags - ignored */
      00252F A8 81            [24] 7728 	mov	r0,sp
      002531 18               [12] 7729 	dec	r0
      002532 18               [12] 7730 	dec	r0
      002533 74 2A            [12] 7731 	mov	a,#0x2a
      002535 26               [12] 7732 	add	a,@r0
      002536 FD               [12] 7733 	mov	r5,a
      002537 E4               [12] 7734 	clr	a
      002538 08               [12] 7735 	inc	r0
      002539 36               [12] 7736 	addc	a,@r0
      00253A FE               [12] 7737 	mov	r6,a
      00253B 08               [12] 7738 	inc	r0
      00253C 86 07            [24] 7739 	mov	ar7,@r0
      00253E 8D 82            [24] 7740 	mov	dpl,r5
      002540 8E 83            [24] 7741 	mov	dph,r6
      002542 8F F0            [24] 7742 	mov	b,r7
      002544 E4               [12] 7743 	clr	a
      002545 12r00r00         [24] 7744 	lcall	__gptrput
                                   7745 ;	../../../core/net/rpl/rpl-icmp6.c:757: buffer[pos++] = 0; /* path control - ignored */
      002548 A8 81            [24] 7746 	mov	r0,sp
      00254A 18               [12] 7747 	dec	r0
      00254B 18               [12] 7748 	dec	r0
      00254C 74 2B            [12] 7749 	mov	a,#0x2b
      00254E 26               [12] 7750 	add	a,@r0
      00254F FD               [12] 7751 	mov	r5,a
      002550 E4               [12] 7752 	clr	a
      002551 08               [12] 7753 	inc	r0
      002552 36               [12] 7754 	addc	a,@r0
      002553 FE               [12] 7755 	mov	r6,a
      002554 08               [12] 7756 	inc	r0
      002555 86 07            [24] 7757 	mov	ar7,@r0
      002557 8D 82            [24] 7758 	mov	dpl,r5
      002559 8E 83            [24] 7759 	mov	dph,r6
      00255B 8F F0            [24] 7760 	mov	b,r7
      00255D E4               [12] 7761 	clr	a
      00255E 12r00r00         [24] 7762 	lcall	__gptrput
                                   7763 ;	../../../core/net/rpl/rpl-icmp6.c:758: buffer[pos++] = 0; /* path seq - ignored */
      002561 A8 81            [24] 7764 	mov	r0,sp
      002563 18               [12] 7765 	dec	r0
      002564 18               [12] 7766 	dec	r0
      002565 74 2C            [12] 7767 	mov	a,#0x2c
      002567 26               [12] 7768 	add	a,@r0
      002568 FD               [12] 7769 	mov	r5,a
      002569 E4               [12] 7770 	clr	a
      00256A 08               [12] 7771 	inc	r0
      00256B 36               [12] 7772 	addc	a,@r0
      00256C FE               [12] 7773 	mov	r6,a
      00256D 08               [12] 7774 	inc	r0
      00256E 86 07            [24] 7775 	mov	ar7,@r0
      002570 8D 82            [24] 7776 	mov	dpl,r5
      002572 8E 83            [24] 7777 	mov	dph,r6
      002574 8F F0            [24] 7778 	mov	b,r7
      002576 E4               [12] 7779 	clr	a
      002577 12r00r00         [24] 7780 	lcall	__gptrput
                                   7781 ;	../../../core/net/rpl/rpl-icmp6.c:759: buffer[pos++] = lifetime;
      00257A A8 81            [24] 7782 	mov	r0,sp
      00257C 18               [12] 7783 	dec	r0
      00257D 18               [12] 7784 	dec	r0
      00257E 74 2D            [12] 7785 	mov	a,#0x2d
      002580 26               [12] 7786 	add	a,@r0
      002581 FD               [12] 7787 	mov	r5,a
      002582 E4               [12] 7788 	clr	a
      002583 08               [12] 7789 	inc	r0
      002584 36               [12] 7790 	addc	a,@r0
      002585 FE               [12] 7791 	mov	r6,a
      002586 08               [12] 7792 	inc	r0
      002587 86 07            [24] 7793 	mov	ar7,@r0
      002589 8D 82            [24] 7794 	mov	dpl,r5
      00258B 8E 83            [24] 7795 	mov	dph,r6
      00258D 8F F0            [24] 7796 	mov	b,r7
      00258F E5 81            [12] 7797 	mov	a,sp
      002591 24 F4            [12] 7798 	add	a,#0xf4
      002593 F8               [12] 7799 	mov	r0,a
      002594 E6               [12] 7800 	mov	a,@r0
      002595 12r00r00         [24] 7801 	lcall	__gptrput
                                   7802 ;	../../../core/net/rpl/rpl-icmp6.c:767: uip_icmp6_send(&n->addr, ICMP6_RPL, RPL_CODE_DAO, pos);
      002598 E5 81            [12] 7803 	mov	a,sp
      00259A 24 F8            [12] 7804 	add	a,#0xf8
      00259C F8               [12] 7805 	mov	r0,a
      00259D 74 0D            [12] 7806 	mov	a,#0x0d
      00259F 26               [12] 7807 	add	a,@r0
      0025A0 FD               [12] 7808 	mov	r5,a
      0025A1 E4               [12] 7809 	clr	a
      0025A2 08               [12] 7810 	inc	r0
      0025A3 36               [12] 7811 	addc	a,@r0
      0025A4 FE               [12] 7812 	mov	r6,a
      0025A5 08               [12] 7813 	inc	r0
      0025A6 86 07            [24] 7814 	mov	ar7,@r0
      0025A8 74 2E            [12] 7815 	mov	a,#0x2e
      0025AA C0 E0            [24] 7816 	push	acc
      0025AC 74 02            [12] 7817 	mov	a,#0x02
      0025AE C0 E0            [24] 7818 	push	acc
      0025B0 74 9B            [12] 7819 	mov	a,#0x9b
      0025B2 C0 E0            [24] 7820 	push	acc
      0025B4 8D 82            [24] 7821 	mov	dpl,r5
      0025B6 8E 83            [24] 7822 	mov	dph,r6
      0025B8 8F F0            [24] 7823 	mov	b,r7
      0025BA 78r00            [12] 7824 	mov	r0,#_uip_icmp6_send
      0025BC 79s00            [12] 7825 	mov	r1,#(_uip_icmp6_send >> 8)
      0025BE 7As00            [12] 7826 	mov	r2,#(_uip_icmp6_send >> 16)
      0025C0 12r00r00         [24] 7827 	lcall	__sdcc_banked_call
      0025C3 15 81            [12] 7828 	dec	sp
      0025C5 15 81            [12] 7829 	dec	sp
      0025C7 15 81            [12] 7830 	dec	sp
      0025C9                       7831 00103$:
                                   7832 ;	../../../core/net/rpl/rpl-icmp6.c:768: }
      0025C9 E5 81            [12] 7833 	mov	a,sp
      0025CB 24 F7            [12] 7834 	add	a,#0xf7
      0025CD F5 81            [12] 7835 	mov	sp,a
      0025CF 02r00r00         [24] 7836 	ljmp	__sdcc_banked_ret
                                   7837 ;------------------------------------------------------------
                                   7838 ;Allocation info for local variables in function 'dao_ack_input'
                                   7839 ;------------------------------------------------------------
                                   7840 ;buffer                    Allocated to registers 
                                   7841 ;buffer_length             Allocated to registers 
                                   7842 ;instance_id               Allocated to registers 
                                   7843 ;sequence                  Allocated to registers 
                                   7844 ;status                    Allocated to registers 
                                   7845 ;------------------------------------------------------------
                                   7846 ;	../../../core/net/rpl/rpl-icmp6.c:771: dao_ack_input(void)
                                   7847 ;	-----------------------------------------
                                   7848 ;	 function dao_ack_input
                                   7849 ;	-----------------------------------------
      0025D2                       7850 _dao_ack_input:
                                   7851 ;	../../../core/net/rpl/rpl-icmp6.c:784: status = buffer[3];
                                   7852 ;	../../../core/net/rpl/rpl-icmp6.c:790: }
      0025D2 02r00r00         [24] 7853 	ljmp	__sdcc_banked_ret
                                   7854 ;------------------------------------------------------------
                                   7855 ;Allocation info for local variables in function 'dao_ack_output'
                                   7856 ;------------------------------------------------------------
                                   7857 ;dest                      Allocated to stack - sp -5
                                   7858 ;sequence                  Allocated to stack - sp -6
                                   7859 ;instance                  Allocated to registers r5 r6 r7 
                                   7860 ;buffer                    Allocated to registers r4 r3 r2 
                                   7861 ;------------------------------------------------------------
                                   7862 ;	../../../core/net/rpl/rpl-icmp6.c:793: dao_ack_output(rpl_instance_t *instance, uip_ipaddr_t *dest, uint8_t sequence)
                                   7863 ;	-----------------------------------------
                                   7864 ;	 function dao_ack_output
                                   7865 ;	-----------------------------------------
      0025D5                       7866 _dao_ack_output:
      0025D5 AD 82            [24] 7867 	mov	r5,dpl
      0025D7 AE 83            [24] 7868 	mov	r6,dph
      0025D9 AF F0            [24] 7869 	mov	r7,b
                                   7870 ;	../../../core/net/rpl/rpl-icmp6.c:801: buffer = UIP_ICMP_PAYLOAD;
      0025DB 90r00r00         [24] 7871 	mov	dptr,#_uip_ext_len
      0025DE E0               [24] 7872 	movx	a,@dptr
      0025DF FC               [12] 7873 	mov	r4,a
      0025E0 7B 00            [12] 7874 	mov	r3,#0x00
      0025E2 74 2C            [12] 7875 	mov	a,#0x2c
      0025E4 2C               [12] 7876 	add	a,r4
      0025E5 FC               [12] 7877 	mov	r4,a
      0025E6 E4               [12] 7878 	clr	a
      0025E7 3B               [12] 7879 	addc	a,r3
      0025E8 FB               [12] 7880 	mov	r3,a
      0025E9 EC               [12] 7881 	mov	a,r4
      0025EA 24r00            [12] 7882 	add	a,#_uip_aligned_buf
      0025EC FC               [12] 7883 	mov	r4,a
      0025ED EB               [12] 7884 	mov	a,r3
      0025EE 34s00            [12] 7885 	addc	a,#(_uip_aligned_buf >> 8)
      0025F0 FB               [12] 7886 	mov	r3,a
      0025F1 7A 00            [12] 7887 	mov	r2,#0x00
                                   7888 ;	../../../core/net/rpl/rpl-icmp6.c:803: buffer[0] = instance->instance_id;
      0025F3 74 86            [12] 7889 	mov	a,#0x86
      0025F5 2D               [12] 7890 	add	a,r5
      0025F6 FD               [12] 7891 	mov	r5,a
      0025F7 E4               [12] 7892 	clr	a
      0025F8 3E               [12] 7893 	addc	a,r6
      0025F9 FE               [12] 7894 	mov	r6,a
      0025FA 8D 82            [24] 7895 	mov	dpl,r5
      0025FC 8E 83            [24] 7896 	mov	dph,r6
      0025FE 8F F0            [24] 7897 	mov	b,r7
      002600 12r00r00         [24] 7898 	lcall	__gptrget
      002603 8C 82            [24] 7899 	mov	dpl,r4
      002605 8B 83            [24] 7900 	mov	dph,r3
      002607 8A F0            [24] 7901 	mov	b,r2
      002609 12r00r00         [24] 7902 	lcall	__gptrput
                                   7903 ;	../../../core/net/rpl/rpl-icmp6.c:804: buffer[1] = 0;
      00260C 74 01            [12] 7904 	mov	a,#0x01
      00260E 2C               [12] 7905 	add	a,r4
      00260F FD               [12] 7906 	mov	r5,a
      002610 E4               [12] 7907 	clr	a
      002611 3B               [12] 7908 	addc	a,r3
      002612 FE               [12] 7909 	mov	r6,a
      002613 8A 07            [24] 7910 	mov	ar7,r2
      002615 8D 82            [24] 7911 	mov	dpl,r5
      002617 8E 83            [24] 7912 	mov	dph,r6
      002619 8F F0            [24] 7913 	mov	b,r7
      00261B E4               [12] 7914 	clr	a
      00261C 12r00r00         [24] 7915 	lcall	__gptrput
                                   7916 ;	../../../core/net/rpl/rpl-icmp6.c:805: buffer[2] = sequence;
      00261F 74 02            [12] 7917 	mov	a,#0x02
      002621 2C               [12] 7918 	add	a,r4
      002622 FD               [12] 7919 	mov	r5,a
      002623 E4               [12] 7920 	clr	a
      002624 3B               [12] 7921 	addc	a,r3
      002625 FE               [12] 7922 	mov	r6,a
      002626 8A 07            [24] 7923 	mov	ar7,r2
      002628 8D 82            [24] 7924 	mov	dpl,r5
      00262A 8E 83            [24] 7925 	mov	dph,r6
      00262C 8F F0            [24] 7926 	mov	b,r7
      00262E E5 81            [12] 7927 	mov	a,sp
      002630 24 FA            [12] 7928 	add	a,#0xfa
      002632 F8               [12] 7929 	mov	r0,a
      002633 E6               [12] 7930 	mov	a,@r0
      002634 12r00r00         [24] 7931 	lcall	__gptrput
                                   7932 ;	../../../core/net/rpl/rpl-icmp6.c:806: buffer[3] = 0;
      002637 74 03            [12] 7933 	mov	a,#0x03
      002639 2C               [12] 7934 	add	a,r4
      00263A FC               [12] 7935 	mov	r4,a
      00263B E4               [12] 7936 	clr	a
      00263C 3B               [12] 7937 	addc	a,r3
      00263D FB               [12] 7938 	mov	r3,a
      00263E 8C 82            [24] 7939 	mov	dpl,r4
      002640 8B 83            [24] 7940 	mov	dph,r3
      002642 8A F0            [24] 7941 	mov	b,r2
      002644 E4               [12] 7942 	clr	a
      002645 12r00r00         [24] 7943 	lcall	__gptrput
                                   7944 ;	../../../core/net/rpl/rpl-icmp6.c:808: uip_icmp6_send(dest, ICMP6_RPL, RPL_CODE_DAO_ACK, 4);
      002648 74 04            [12] 7945 	mov	a,#0x04
      00264A C0 E0            [24] 7946 	push	acc
      00264C 14               [12] 7947 	dec	a
      00264D C0 E0            [24] 7948 	push	acc
      00264F 74 9B            [12] 7949 	mov	a,#0x9b
      002651 C0 E0            [24] 7950 	push	acc
      002653 E5 81            [12] 7951 	mov	a,sp
      002655 24 F8            [12] 7952 	add	a,#0xf8
      002657 F8               [12] 7953 	mov	r0,a
      002658 86 82            [24] 7954 	mov	dpl,@r0
      00265A 08               [12] 7955 	inc	r0
      00265B 86 83            [24] 7956 	mov	dph,@r0
      00265D 08               [12] 7957 	inc	r0
      00265E 86 F0            [24] 7958 	mov	b,@r0
      002660 78r00            [12] 7959 	mov	r0,#_uip_icmp6_send
      002662 79s00            [12] 7960 	mov	r1,#(_uip_icmp6_send >> 8)
      002664 7As00            [12] 7961 	mov	r2,#(_uip_icmp6_send >> 16)
      002666 12r00r00         [24] 7962 	lcall	__sdcc_banked_call
      002669 15 81            [12] 7963 	dec	sp
      00266B 15 81            [12] 7964 	dec	sp
      00266D 15 81            [12] 7965 	dec	sp
                                   7966 ;	../../../core/net/rpl/rpl-icmp6.c:809: }
      00266F 02r00r00         [24] 7967 	ljmp	__sdcc_banked_ret
                                   7968 ;------------------------------------------------------------
                                   7969 ;Allocation info for local variables in function 'uip_rpl_input'
                                   7970 ;------------------------------------------------------------
                                   7971 ;	../../../core/net/rpl/rpl-icmp6.c:812: uip_rpl_input(void)
                                   7972 ;	-----------------------------------------
                                   7973 ;	 function uip_rpl_input
                                   7974 ;	-----------------------------------------
      002672                       7975 _uip_rpl_input:
                                   7976 ;	../../../core/net/rpl/rpl-icmp6.c:815: switch(UIP_ICMP_BUF->icode) {
      002672 90r00r00         [24] 7977 	mov	dptr,#_uip_ext_len
      002675 E0               [24] 7978 	movx	a,@dptr
      002676 FF               [12] 7979 	mov	r7,a
      002677 7E 00            [12] 7980 	mov	r6,#0x00
      002679 74 28            [12] 7981 	mov	a,#0x28
      00267B 2F               [12] 7982 	add	a,r7
      00267C FF               [12] 7983 	mov	r7,a
      00267D E4               [12] 7984 	clr	a
      00267E 3E               [12] 7985 	addc	a,r6
      00267F FE               [12] 7986 	mov	r6,a
      002680 EF               [12] 7987 	mov	a,r7
      002681 24r00            [12] 7988 	add	a,#_uip_aligned_buf
      002683 FF               [12] 7989 	mov	r7,a
      002684 EE               [12] 7990 	mov	a,r6
      002685 34s00            [12] 7991 	addc	a,#(_uip_aligned_buf >> 8)
      002687 FE               [12] 7992 	mov	r6,a
      002688 8F 82            [24] 7993 	mov	dpl,r7
      00268A 8E 83            [24] 7994 	mov	dph,r6
      00268C A3               [24] 7995 	inc	dptr
      00268D E0               [24] 7996 	movx	a,@dptr
      00268E FF               [12] 7997 	mov  r7,a
      00268F 24 FC            [12] 7998 	add	a,#0xff - 0x03
      002691 40 38            [24] 7999 	jc	00106$
      002693 EF               [12] 8000 	mov	a,r7
      002694 2F               [12] 8001 	add	a,r7
                                   8002 ;	../../../core/net/rpl/rpl-icmp6.c:816: case RPL_CODE_DIO:
      002695 90r26r99         [24] 8003 	mov	dptr,#00114$
      002698 73               [24] 8004 	jmp	@a+dptr
      002699                       8005 00114$:
      002699 80 11            [24] 8006 	sjmp	00102$
      00269B 80 04            [24] 8007 	sjmp	00101$
      00269D 80 18            [24] 8008 	sjmp	00103$
      00269F 80 21            [24] 8009 	sjmp	00104$
      0026A1                       8010 00101$:
                                   8011 ;	../../../core/net/rpl/rpl-icmp6.c:817: dio_input();
      0026A1 78r3A            [12] 8012 	mov	r0,#_dio_input
      0026A3 79s05            [12] 8013 	mov	r1,#(_dio_input >> 8)
      0026A5 7As00            [12] 8014 	mov	r2,#(_dio_input >> 16)
      0026A7 12r00r00         [24] 8015 	lcall	__sdcc_banked_call
                                   8016 ;	../../../core/net/rpl/rpl-icmp6.c:818: break;
                                   8017 ;	../../../core/net/rpl/rpl-icmp6.c:819: case RPL_CODE_DIS:
      0026AA 80 1F            [24] 8018 	sjmp	00106$
      0026AC                       8019 00102$:
                                   8020 ;	../../../core/net/rpl/rpl-icmp6.c:820: dis_input();
      0026AC 78rE8            [12] 8021 	mov	r0,#_dis_input
      0026AE 79s03            [12] 8022 	mov	r1,#(_dis_input >> 8)
      0026B0 7As00            [12] 8023 	mov	r2,#(_dis_input >> 16)
      0026B2 12r00r00         [24] 8024 	lcall	__sdcc_banked_call
                                   8025 ;	../../../core/net/rpl/rpl-icmp6.c:821: break;
                                   8026 ;	../../../core/net/rpl/rpl-icmp6.c:822: case RPL_CODE_DAO:
      0026B5 80 14            [24] 8027 	sjmp	00106$
      0026B7                       8028 00103$:
                                   8029 ;	../../../core/net/rpl/rpl-icmp6.c:823: dao_input();
      0026B7 78r5D            [12] 8030 	mov	r0,#_dao_input
      0026B9 79s1B            [12] 8031 	mov	r1,#(_dao_input >> 8)
      0026BB 7As00            [12] 8032 	mov	r2,#(_dao_input >> 16)
      0026BD 12r00r00         [24] 8033 	lcall	__sdcc_banked_call
                                   8034 ;	../../../core/net/rpl/rpl-icmp6.c:824: break;
                                   8035 ;	../../../core/net/rpl/rpl-icmp6.c:825: case RPL_CODE_DAO_ACK:
      0026C0 80 09            [24] 8036 	sjmp	00106$
      0026C2                       8037 00104$:
                                   8038 ;	../../../core/net/rpl/rpl-icmp6.c:826: dao_ack_input();
      0026C2 78rD2            [12] 8039 	mov	r0,#_dao_ack_input
      0026C4 79s25            [12] 8040 	mov	r1,#(_dao_ack_input >> 8)
      0026C6 7As00            [12] 8041 	mov	r2,#(_dao_ack_input >> 16)
      0026C8 12r00r00         [24] 8042 	lcall	__sdcc_banked_call
                                   8043 ;	../../../core/net/rpl/rpl-icmp6.c:831: }
      0026CB                       8044 00106$:
                                   8045 ;	../../../core/net/rpl/rpl-icmp6.c:833: uip_len = 0;
      0026CB 90r00r00         [24] 8046 	mov	dptr,#_uip_len
      0026CE E4               [12] 8047 	clr	a
      0026CF F0               [24] 8048 	movx	@dptr,a
      0026D0 A3               [24] 8049 	inc	dptr
      0026D1 F0               [24] 8050 	movx	@dptr,a
                                   8051 ;	../../../core/net/rpl/rpl-icmp6.c:834: }
      0026D2 02r00r00         [24] 8052 	ljmp	__sdcc_banked_ret
                                   8053 	.area CSEG    (CODE)
                                   8054 	.area CONST   (CODE)
                                   8055 	.area XINIT   (CODE)
      000000                       8056 __xinit__dao_sequence:
      000000 F0                    8057 	.db #0xf0	; 240
                                   8058 	.area CABS    (ABS,CODE)
