                                      1 ;--------------------------------------------------------
                                      2 ; File Created by SDCC : free open source ANSI-C Compiler
                                      3 ; Version 4.0.0 #11528 (Linux)
                                      4 ;--------------------------------------------------------
                                      5 	.module sicslowpan
                                      6 	.optsdcc -mmcs51 --model-huge
                                      7 	
                                      8 ;--------------------------------------------------------
                                      9 ; Public variables in this module
                                     10 ;--------------------------------------------------------
                                     11 	.globl _sicslowpan_driver
                                     12 	.globl _llprefix
                                     13 	.globl _unc_mxconf
                                     14 	.globl _unc_ctxconf
                                     15 	.globl _unc_llconf
                                     16 	.globl _sicslowpan_init
                                     17 	.globl _neighbor_info_packet_received
                                     18 	.globl _neighbor_info_packet_sent
                                     19 	.globl _packetbuf_addr
                                     20 	.globl _packetbuf_set_addr
                                     21 	.globl _packetbuf_set_attr
                                     22 	.globl _packetbuf_set_datalen
                                     23 	.globl _packetbuf_datalen
                                     24 	.globl _packetbuf_dataptr
                                     25 	.globl _packetbuf_clear
                                     26 	.globl _rimeaddr_copy
                                     27 	.globl _uip_ds6_set_addr_iid
                                     28 	.globl _tcpip_set_outputfunc
                                     29 	.globl _tcpip_input
                                     30 	.globl _watchdog_periodic
                                     31 	.globl ___memcpy
                                     32 	.globl _memset
                                     33 	.globl _memcmp
                                     34 	.globl _ACTIVE
                                     35 	.globl _TX_BYTE
                                     36 	.globl _RX_BYTE
                                     37 	.globl _ERR
                                     38 	.globl _FE
                                     39 	.globl _SLAVE
                                     40 	.globl _RE
                                     41 	.globl _MODE
                                     42 	.globl _T3OVFIF
                                     43 	.globl _T3CH0IF
                                     44 	.globl _T3CH1IF
                                     45 	.globl _T4OVFIF
                                     46 	.globl _T4CH0IF
                                     47 	.globl _T4CH1IF
                                     48 	.globl _OVFIM
                                     49 	.globl _B_0
                                     50 	.globl _B_1
                                     51 	.globl _B_2
                                     52 	.globl _B_3
                                     53 	.globl _B_4
                                     54 	.globl _B_5
                                     55 	.globl _B_6
                                     56 	.globl _B_7
                                     57 	.globl _P2IF
                                     58 	.globl _UTX0IF
                                     59 	.globl _UTX1IF
                                     60 	.globl _P1IF
                                     61 	.globl _WDTIF
                                     62 	.globl _ACC_0
                                     63 	.globl _ACC_1
                                     64 	.globl _ACC_2
                                     65 	.globl _ACC_3
                                     66 	.globl _ACC_4
                                     67 	.globl _ACC_5
                                     68 	.globl _ACC_6
                                     69 	.globl _ACC_7
                                     70 	.globl _P
                                     71 	.globl _F1
                                     72 	.globl _OV
                                     73 	.globl _RS0
                                     74 	.globl _RS1
                                     75 	.globl _F0
                                     76 	.globl _AC
                                     77 	.globl _CY
                                     78 	.globl _DMAIF
                                     79 	.globl _T1IF
                                     80 	.globl _T2IF
                                     81 	.globl _T3IF
                                     82 	.globl _T4IF
                                     83 	.globl _P0IF
                                     84 	.globl _STIF
                                     85 	.globl _DMAIE
                                     86 	.globl _T1IE
                                     87 	.globl _T2IE
                                     88 	.globl _T3IE
                                     89 	.globl _T4IE
                                     90 	.globl _P0IE
                                     91 	.globl _RFERRIE
                                     92 	.globl _ADCIE
                                     93 	.globl _URX0IE
                                     94 	.globl _URX1IE
                                     95 	.globl _ENCIE
                                     96 	.globl _STIE
                                     97 	.globl _EA
                                     98 	.globl _P2_0
                                     99 	.globl _P2_1
                                    100 	.globl _P2_2
                                    101 	.globl _P2_3
                                    102 	.globl _P2_4
                                    103 	.globl _P2_5
                                    104 	.globl _P2_6
                                    105 	.globl _P2_7
                                    106 	.globl _ENCIF_0
                                    107 	.globl _ENCIF_1
                                    108 	.globl _P1_0
                                    109 	.globl _P1_1
                                    110 	.globl _P1_2
                                    111 	.globl _P1_3
                                    112 	.globl _P1_4
                                    113 	.globl _P1_5
                                    114 	.globl _P1_6
                                    115 	.globl _P1_7
                                    116 	.globl _IT0
                                    117 	.globl _RFERRIF
                                    118 	.globl _IT1
                                    119 	.globl _URX0IF
                                    120 	.globl _ADCIF
                                    121 	.globl _URX1IF
                                    122 	.globl _P0_0
                                    123 	.globl _P0_1
                                    124 	.globl _P0_2
                                    125 	.globl _P0_3
                                    126 	.globl _P0_4
                                    127 	.globl _P0_5
                                    128 	.globl _P0_6
                                    129 	.globl _P0_7
                                    130 	.globl _WDCTL
                                    131 	.globl _U1GCR
                                    132 	.globl _U1UCR
                                    133 	.globl _U1BAUD
                                    134 	.globl _U1DBUF
                                    135 	.globl _U1CSR
                                    136 	.globl _U0GCR
                                    137 	.globl _U0UCR
                                    138 	.globl _U0BAUD
                                    139 	.globl _U0DBUF
                                    140 	.globl _U0CSR
                                    141 	.globl _TIMIF
                                    142 	.globl _T4CC1
                                    143 	.globl _T4CCTL1
                                    144 	.globl _T4CC0
                                    145 	.globl _T4CCTL0
                                    146 	.globl _T4CTL
                                    147 	.globl _T4CNT
                                    148 	.globl _T3CC1
                                    149 	.globl _T3CCTL1
                                    150 	.globl _T3CC0
                                    151 	.globl _T3CCTL0
                                    152 	.globl _T3CTL
                                    153 	.globl _T3CNT
                                    154 	.globl _T2MSEL
                                    155 	.globl _T2IRQM
                                    156 	.globl _T2MOVF2
                                    157 	.globl _T2MOVF1
                                    158 	.globl _T2MOVF0
                                    159 	.globl _T2M1
                                    160 	.globl _T2M0
                                    161 	.globl _T2IRQF
                                    162 	.globl _T2EVTCFG
                                    163 	.globl _T2CTRL
                                    164 	.globl _T1STAT
                                    165 	.globl _T1CCTL2
                                    166 	.globl _T1CCTL1
                                    167 	.globl _T1CCTL0
                                    168 	.globl _T1CTL
                                    169 	.globl _T1CNTH
                                    170 	.globl _T1CNTL
                                    171 	.globl _T1CC2H
                                    172 	.globl _T1CC2L
                                    173 	.globl _T1CC1H
                                    174 	.globl _T1CC1L
                                    175 	.globl _T1CC0H
                                    176 	.globl _T1CC0L
                                    177 	.globl _CLKCONSTA
                                    178 	.globl _CLKCONCMD
                                    179 	.globl _SLEEPSTA
                                    180 	.globl _SLEEPCMD
                                    181 	.globl _STLOAD
                                    182 	.globl _ST2
                                    183 	.globl _ST1
                                    184 	.globl _ST0
                                    185 	.globl _RFERRF
                                    186 	.globl _RFIRQF0
                                    187 	.globl _RFST
                                    188 	.globl _RFD
                                    189 	.globl _RFIRQF1
                                    190 	.globl _PSBANK
                                    191 	.globl _FMAP
                                    192 	.globl _MEMCTR
                                    193 	.globl __XPAGE
                                    194 	.globl _MPAGE
                                    195 	.globl _PMUX
                                    196 	.globl _P2DIR
                                    197 	.globl _P1DIR
                                    198 	.globl _P0DIR
                                    199 	.globl _P2INP
                                    200 	.globl _P1INP
                                    201 	.globl _P2SEL
                                    202 	.globl _P1SEL
                                    203 	.globl _P0SEL
                                    204 	.globl _APCFG
                                    205 	.globl _PERCFG
                                    206 	.globl _P0INP
                                    207 	.globl _P2IEN
                                    208 	.globl _P1IEN
                                    209 	.globl _P0IEN
                                    210 	.globl _PICTL
                                    211 	.globl _P2IFG
                                    212 	.globl _P1IFG
                                    213 	.globl _P0IFG
                                    214 	.globl _DMAREQ
                                    215 	.globl _DMAARM
                                    216 	.globl _DMA0CFGH
                                    217 	.globl _DMA0CFGL
                                    218 	.globl _DMA1CFGH
                                    219 	.globl _DMA1CFGL
                                    220 	.globl _DMAIRQ
                                    221 	.globl _ENCCS
                                    222 	.globl _ENCDO
                                    223 	.globl _ENCDI
                                    224 	.globl _RNDH
                                    225 	.globl _RNDL
                                    226 	.globl _ADCH
                                    227 	.globl _ADCL
                                    228 	.globl _ADCCON3
                                    229 	.globl _ADCCON2
                                    230 	.globl _ADCCON1
                                    231 	.globl _B
                                    232 	.globl _IRCON2
                                    233 	.globl _ACC
                                    234 	.globl _PSW
                                    235 	.globl _IRCON
                                    236 	.globl _IP1
                                    237 	.globl _IEN1
                                    238 	.globl _IP0
                                    239 	.globl _IEN0
                                    240 	.globl _P2
                                    241 	.globl _S1CON
                                    242 	.globl _IEN2
                                    243 	.globl _S0CON
                                    244 	.globl _DPS
                                    245 	.globl _P1
                                    246 	.globl _TCON
                                    247 	.globl _PCON
                                    248 	.globl _DPH1
                                    249 	.globl _DPL1
                                    250 	.globl _DPH0
                                    251 	.globl _DPL0
                                    252 	.globl _SP
                                    253 	.globl _P0
                                    254 	.globl _X_IEEE_ADDR
                                    255 	.globl _X_INFOPAGE
                                    256 	.globl _X_P2DIR
                                    257 	.globl _X_P1DIR
                                    258 	.globl _X_P0DIR
                                    259 	.globl _X_U1GCR
                                    260 	.globl _X_U1UCR
                                    261 	.globl _X_U1BAUD
                                    262 	.globl _X_U1DBUF
                                    263 	.globl _X_U1CSR
                                    264 	.globl _X_P2INP
                                    265 	.globl _X_P1INP
                                    266 	.globl _X_P2SEL
                                    267 	.globl _X_P1SEL
                                    268 	.globl _X_P0SEL
                                    269 	.globl _X_APCFG
                                    270 	.globl _X_PERCFG
                                    271 	.globl _X_T4CC1
                                    272 	.globl _X_T4CCTL1
                                    273 	.globl _X_T4CC0
                                    274 	.globl _X_T4CCTL0
                                    275 	.globl _X_T4CTL
                                    276 	.globl _X_T4CNT
                                    277 	.globl _X_RFIRQF0
                                    278 	.globl _X_T1CCTL2
                                    279 	.globl _X_T1CCTL1
                                    280 	.globl _X_T1CCTL0
                                    281 	.globl _X_T1CTL
                                    282 	.globl _X_T1CNTH
                                    283 	.globl _X_T1CNTL
                                    284 	.globl _X_RFST
                                    285 	.globl _X_T1CC2H
                                    286 	.globl _X_T1CC2L
                                    287 	.globl _X_T1CC1H
                                    288 	.globl _X_T1CC1L
                                    289 	.globl _X_T1CC0H
                                    290 	.globl _X_T1CC0L
                                    291 	.globl _X_RFD
                                    292 	.globl _X_TIMIF
                                    293 	.globl _X_DMAREQ
                                    294 	.globl _X_DMAARM
                                    295 	.globl _X_DMA0CFGH
                                    296 	.globl _X_DMA0CFGL
                                    297 	.globl _X_DMA1CFGH
                                    298 	.globl _X_DMA1CFGL
                                    299 	.globl _X_DMAIRQ
                                    300 	.globl _X_T3CC1
                                    301 	.globl _X_T3CCTL1
                                    302 	.globl _X_T3CC0
                                    303 	.globl _X_T3CCTL0
                                    304 	.globl _X_T3CTL
                                    305 	.globl _X_T3CNT
                                    306 	.globl _X_WDCTL
                                    307 	.globl _X_MEMCTR
                                    308 	.globl _X_CLKCONCMD
                                    309 	.globl _X_U0GCR
                                    310 	.globl _X_U0UCR
                                    311 	.globl _X_T2MSEL
                                    312 	.globl _X_U0BAUD
                                    313 	.globl _X_U0DBUF
                                    314 	.globl _X_RFERRF
                                    315 	.globl _X_SLEEPCMD
                                    316 	.globl _X_RNDH
                                    317 	.globl _X_RNDL
                                    318 	.globl _X_ADCH
                                    319 	.globl _X_ADCL
                                    320 	.globl _X_ADCCON3
                                    321 	.globl _X_ADCCON2
                                    322 	.globl _X_ADCCON1
                                    323 	.globl _X_ENCCS
                                    324 	.globl _X_ENCDO
                                    325 	.globl _X_ENCDI
                                    326 	.globl _X_T1STAT
                                    327 	.globl _X_PMUX
                                    328 	.globl _X_STLOAD
                                    329 	.globl _X_P2IEN
                                    330 	.globl _X_P0IEN
                                    331 	.globl _X_T2IRQM
                                    332 	.globl _X_T2MOVF2
                                    333 	.globl _X_T2MOVF1
                                    334 	.globl _X_T2MOVF0
                                    335 	.globl _X_T2M1
                                    336 	.globl _X_T2M0
                                    337 	.globl _X_T2IRQF
                                    338 	.globl _X_P2
                                    339 	.globl _X_PSBANK
                                    340 	.globl _X_FMAP
                                    341 	.globl _X_CLKCONSTA
                                    342 	.globl _X_SLEEPSTA
                                    343 	.globl _X_T2EVTCFG
                                    344 	.globl _X_ST2
                                    345 	.globl _X_ST1
                                    346 	.globl _X_ST0
                                    347 	.globl _X_T2CTRL
                                    348 	.globl _X__XPAGE
                                    349 	.globl _X_MPAGE
                                    350 	.globl _X_RFIRQF1
                                    351 	.globl _X_P1
                                    352 	.globl _X_P0INP
                                    353 	.globl _X_P1IEN
                                    354 	.globl _X_PICTL
                                    355 	.globl _X_P2IFG
                                    356 	.globl _X_P1IFG
                                    357 	.globl _X_P0IFG
                                    358 	.globl _X_U0CSR
                                    359 	.globl _X_P0
                                    360 	.globl _USBF5
                                    361 	.globl _USBF4
                                    362 	.globl _USBF3
                                    363 	.globl _USBF2
                                    364 	.globl _USBF1
                                    365 	.globl _USBF0
                                    366 	.globl _USBCNTH
                                    367 	.globl _USBCNTL
                                    368 	.globl _USBCNT0
                                    369 	.globl _USBCSOH
                                    370 	.globl _USBCSOL
                                    371 	.globl _USBMAXO
                                    372 	.globl _USBCSIH
                                    373 	.globl _USBCSIL
                                    374 	.globl _USBCS0
                                    375 	.globl _USBMAXI
                                    376 	.globl _USBCTRL
                                    377 	.globl _USBINDEX
                                    378 	.globl _USBFRMH
                                    379 	.globl _USBFRML
                                    380 	.globl _USBCIE
                                    381 	.globl _USBOIE
                                    382 	.globl _USBIIE
                                    383 	.globl _USBCIF
                                    384 	.globl _USBOIF
                                    385 	.globl _USBIIF
                                    386 	.globl _USBPOW
                                    387 	.globl _USBADDR
                                    388 	.globl _CSPT
                                    389 	.globl _CSPZ
                                    390 	.globl _CSPY
                                    391 	.globl _CSPX
                                    392 	.globl _CSPSTAT
                                    393 	.globl _CSPCTRL
                                    394 	.globl _CSPPROG23
                                    395 	.globl _CSPPROG22
                                    396 	.globl _CSPPROG21
                                    397 	.globl _CSPPROG20
                                    398 	.globl _CSPPROG19
                                    399 	.globl _CSPPROG18
                                    400 	.globl _CSPPROG17
                                    401 	.globl _CSPPROG16
                                    402 	.globl _CSPPROG15
                                    403 	.globl _CSPPROG14
                                    404 	.globl _CSPPROG13
                                    405 	.globl _CSPPROG12
                                    406 	.globl _CSPPROG11
                                    407 	.globl _CSPPROG10
                                    408 	.globl _CSPPROG9
                                    409 	.globl _CSPPROG8
                                    410 	.globl _CSPPROG7
                                    411 	.globl _CSPPROG6
                                    412 	.globl _CSPPROG5
                                    413 	.globl _CSPPROG4
                                    414 	.globl _CSPPROG3
                                    415 	.globl _CSPPROG2
                                    416 	.globl _CSPPROG1
                                    417 	.globl _CSPPROG0
                                    418 	.globl _RFC_OBS_CTRL2
                                    419 	.globl _RFC_OBS_CTRL1
                                    420 	.globl _RFC_OBS_CTRL0
                                    421 	.globl _TXFILTCFG
                                    422 	.globl _PTEST1
                                    423 	.globl _PTEST0
                                    424 	.globl _ATEST
                                    425 	.globl _DACTEST2
                                    426 	.globl _DACTEST1
                                    427 	.globl _DACTEST0
                                    428 	.globl _MDMTEST1
                                    429 	.globl _MDMTEST0
                                    430 	.globl _ADCTEST2
                                    431 	.globl _ADCTEST1
                                    432 	.globl _ADCTEST0
                                    433 	.globl _AGCCTRL3
                                    434 	.globl _AGCCTRL2
                                    435 	.globl _AGCCTRL1
                                    436 	.globl _AGCCTRL0
                                    437 	.globl _FSCAL3
                                    438 	.globl _FSCAL2
                                    439 	.globl _FSCAL1
                                    440 	.globl _FSCAL0
                                    441 	.globl _FSCTRL
                                    442 	.globl _RXCTRL
                                    443 	.globl _FREQEST
                                    444 	.globl _MDMCTRL1
                                    445 	.globl _MDMCTRL0
                                    446 	.globl _RFRND
                                    447 	.globl _RFERRM
                                    448 	.globl _RFIRQM1
                                    449 	.globl _RFIRQM0
                                    450 	.globl _TXLAST_PTR
                                    451 	.globl _TXFIRST_PTR
                                    452 	.globl _RXP1_PTR
                                    453 	.globl _RXLAST_PTR
                                    454 	.globl _RXFIRST_PTR
                                    455 	.globl _TXFIFOCNT
                                    456 	.globl _RXFIFOCNT
                                    457 	.globl _RXFIRST
                                    458 	.globl _RSSISTAT
                                    459 	.globl _RSSI
                                    460 	.globl _CCACTRL1
                                    461 	.globl _CCACTRL0
                                    462 	.globl _FSMCTRL
                                    463 	.globl _FIFOPCTRL
                                    464 	.globl _FSMSTAT1
                                    465 	.globl _FSMSTAT0
                                    466 	.globl _TXCTRL
                                    467 	.globl _TXPOWER
                                    468 	.globl _FREQCTRL
                                    469 	.globl _FREQTUNE
                                    470 	.globl _RXMASKCLR
                                    471 	.globl _RXMASKSET
                                    472 	.globl _RXENABLE
                                    473 	.globl _FRMCTRL1
                                    474 	.globl _FRMCTRL0
                                    475 	.globl _SRCEXTEN2
                                    476 	.globl _SRCEXTEN1
                                    477 	.globl _SRCEXTEN0
                                    478 	.globl _SRCSHORTEN2
                                    479 	.globl _SRCSHORTEN1
                                    480 	.globl _SRCSHORTEN0
                                    481 	.globl _SRCMATCH
                                    482 	.globl _FRMFILT1
                                    483 	.globl _FRMFILT0
                                    484 	.globl _SHORT_ADDR1
                                    485 	.globl _SHORT_ADDR0
                                    486 	.globl _PAN_ID1
                                    487 	.globl _PAN_ID0
                                    488 	.globl _EXT_ADDR7
                                    489 	.globl _EXT_ADDR6
                                    490 	.globl _EXT_ADDR5
                                    491 	.globl _EXT_ADDR4
                                    492 	.globl _EXT_ADDR3
                                    493 	.globl _EXT_ADDR2
                                    494 	.globl _EXT_ADDR1
                                    495 	.globl _EXT_ADDR0
                                    496 	.globl _SRCSHORTPENDEN2
                                    497 	.globl _SRCSHORTPENDEN1
                                    498 	.globl _SRCSHORTPENDEN0
                                    499 	.globl _SRCEXTPENDEN2
                                    500 	.globl _SRCEXTPENDEN1
                                    501 	.globl _SRCEXTPENDEN0
                                    502 	.globl _SRCRESINDEX
                                    503 	.globl _SRCRESMASK2
                                    504 	.globl _SRCRESMASK1
                                    505 	.globl _SRCRESMASK0
                                    506 	.globl _SRC_ADDR_TABLE
                                    507 	.globl _TXFIFO
                                    508 	.globl _RXFIFO
                                    509 	.globl _RFCORE_RAM
                                    510 	.globl _CMPCTL
                                    511 	.globl _OPAMPS
                                    512 	.globl _OPAMPC
                                    513 	.globl _STCV2
                                    514 	.globl _STCV1
                                    515 	.globl _STCV0
                                    516 	.globl _STCS
                                    517 	.globl _STCC
                                    518 	.globl _T1CC4H
                                    519 	.globl _T1CC4L
                                    520 	.globl _T1CC3H
                                    521 	.globl _T1CC3L
                                    522 	.globl _XX_T1CC2H
                                    523 	.globl _XX_T1CC2L
                                    524 	.globl _XX_T1CC1H
                                    525 	.globl _XX_T1CC1L
                                    526 	.globl _XX_T1CC0H
                                    527 	.globl _XX_T1CC0L
                                    528 	.globl _T1CCTL4
                                    529 	.globl _T1CCTL3
                                    530 	.globl _XX_T1CCTL2
                                    531 	.globl _XX_T1CCTL1
                                    532 	.globl _XX_T1CCTL0
                                    533 	.globl _CLD
                                    534 	.globl _IRCTL
                                    535 	.globl _CHIPINFO1
                                    536 	.globl _CHIPINFO0
                                    537 	.globl _FWDATA
                                    538 	.globl _FADDRH
                                    539 	.globl _FADDRL
                                    540 	.globl _FCTL
                                    541 	.globl _IVCTRL
                                    542 	.globl _BATTMON
                                    543 	.globl _SRCRC
                                    544 	.globl _DBGDATA
                                    545 	.globl _TESTREG0
                                    546 	.globl _CHIPID
                                    547 	.globl _CHVER
                                    548 	.globl _OBSSEL5
                                    549 	.globl _OBSSEL4
                                    550 	.globl _OBSSEL3
                                    551 	.globl _OBSSEL2
                                    552 	.globl _OBSSEL1
                                    553 	.globl _OBSSEL0
                                    554 	.globl _I2CIO
                                    555 	.globl _I2CWC
                                    556 	.globl _I2CADDR
                                    557 	.globl _I2CDATA
                                    558 	.globl _I2CSTAT
                                    559 	.globl _I2CCFG
                                    560 	.globl _OPAMPMC
                                    561 	.globl _MONMUX
                                    562 	.globl _rime_sniffer_add
                                    563 	.globl _rime_sniffer_remove
                                    564 ;--------------------------------------------------------
                                    565 ; special function registers
                                    566 ;--------------------------------------------------------
                                    567 	.area RSEG    (ABS,DATA)
      000000                        568 	.org 0x0000
                           000080   569 _P0	=	0x0080
                           000081   570 _SP	=	0x0081
                           000082   571 _DPL0	=	0x0082
                           000083   572 _DPH0	=	0x0083
                           000084   573 _DPL1	=	0x0084
                           000085   574 _DPH1	=	0x0085
                           000087   575 _PCON	=	0x0087
                           000088   576 _TCON	=	0x0088
                           000090   577 _P1	=	0x0090
                           000092   578 _DPS	=	0x0092
                           000098   579 _S0CON	=	0x0098
                           00009A   580 _IEN2	=	0x009a
                           00009B   581 _S1CON	=	0x009b
                           0000A0   582 _P2	=	0x00a0
                           0000A8   583 _IEN0	=	0x00a8
                           0000A9   584 _IP0	=	0x00a9
                           0000B8   585 _IEN1	=	0x00b8
                           0000B9   586 _IP1	=	0x00b9
                           0000C0   587 _IRCON	=	0x00c0
                           0000D0   588 _PSW	=	0x00d0
                           0000E0   589 _ACC	=	0x00e0
                           0000E8   590 _IRCON2	=	0x00e8
                           0000F0   591 _B	=	0x00f0
                           0000B4   592 _ADCCON1	=	0x00b4
                           0000B5   593 _ADCCON2	=	0x00b5
                           0000B6   594 _ADCCON3	=	0x00b6
                           0000BA   595 _ADCL	=	0x00ba
                           0000BB   596 _ADCH	=	0x00bb
                           0000BC   597 _RNDL	=	0x00bc
                           0000BD   598 _RNDH	=	0x00bd
                           0000B1   599 _ENCDI	=	0x00b1
                           0000B2   600 _ENCDO	=	0x00b2
                           0000B3   601 _ENCCS	=	0x00b3
                           0000D1   602 _DMAIRQ	=	0x00d1
                           0000D2   603 _DMA1CFGL	=	0x00d2
                           0000D3   604 _DMA1CFGH	=	0x00d3
                           0000D4   605 _DMA0CFGL	=	0x00d4
                           0000D5   606 _DMA0CFGH	=	0x00d5
                           0000D6   607 _DMAARM	=	0x00d6
                           0000D7   608 _DMAREQ	=	0x00d7
                           000089   609 _P0IFG	=	0x0089
                           00008A   610 _P1IFG	=	0x008a
                           00008B   611 _P2IFG	=	0x008b
                           00008C   612 _PICTL	=	0x008c
                           0000AB   613 _P0IEN	=	0x00ab
                           00008D   614 _P1IEN	=	0x008d
                           0000AC   615 _P2IEN	=	0x00ac
                           00008F   616 _P0INP	=	0x008f
                           0000F1   617 _PERCFG	=	0x00f1
                           0000F2   618 _APCFG	=	0x00f2
                           0000F3   619 _P0SEL	=	0x00f3
                           0000F4   620 _P1SEL	=	0x00f4
                           0000F5   621 _P2SEL	=	0x00f5
                           0000F6   622 _P1INP	=	0x00f6
                           0000F7   623 _P2INP	=	0x00f7
                           0000FD   624 _P0DIR	=	0x00fd
                           0000FE   625 _P1DIR	=	0x00fe
                           0000FF   626 _P2DIR	=	0x00ff
                           0000AE   627 _PMUX	=	0x00ae
                           000093   628 _MPAGE	=	0x0093
                           000093   629 __XPAGE	=	0x0093
                           0000C7   630 _MEMCTR	=	0x00c7
                           00009F   631 _FMAP	=	0x009f
                           00009F   632 _PSBANK	=	0x009f
                           000091   633 _RFIRQF1	=	0x0091
                           0000D9   634 _RFD	=	0x00d9
                           0000E1   635 _RFST	=	0x00e1
                           0000E9   636 _RFIRQF0	=	0x00e9
                           0000BF   637 _RFERRF	=	0x00bf
                           000095   638 _ST0	=	0x0095
                           000096   639 _ST1	=	0x0096
                           000097   640 _ST2	=	0x0097
                           0000AD   641 _STLOAD	=	0x00ad
                           0000BE   642 _SLEEPCMD	=	0x00be
                           00009D   643 _SLEEPSTA	=	0x009d
                           0000C6   644 _CLKCONCMD	=	0x00c6
                           00009E   645 _CLKCONSTA	=	0x009e
                           0000DA   646 _T1CC0L	=	0x00da
                           0000DB   647 _T1CC0H	=	0x00db
                           0000DC   648 _T1CC1L	=	0x00dc
                           0000DD   649 _T1CC1H	=	0x00dd
                           0000DE   650 _T1CC2L	=	0x00de
                           0000DF   651 _T1CC2H	=	0x00df
                           0000E2   652 _T1CNTL	=	0x00e2
                           0000E3   653 _T1CNTH	=	0x00e3
                           0000E4   654 _T1CTL	=	0x00e4
                           0000E5   655 _T1CCTL0	=	0x00e5
                           0000E6   656 _T1CCTL1	=	0x00e6
                           0000E7   657 _T1CCTL2	=	0x00e7
                           0000AF   658 _T1STAT	=	0x00af
                           000094   659 _T2CTRL	=	0x0094
                           00009C   660 _T2EVTCFG	=	0x009c
                           0000A1   661 _T2IRQF	=	0x00a1
                           0000A2   662 _T2M0	=	0x00a2
                           0000A3   663 _T2M1	=	0x00a3
                           0000A4   664 _T2MOVF0	=	0x00a4
                           0000A5   665 _T2MOVF1	=	0x00a5
                           0000A6   666 _T2MOVF2	=	0x00a6
                           0000A7   667 _T2IRQM	=	0x00a7
                           0000C3   668 _T2MSEL	=	0x00c3
                           0000CA   669 _T3CNT	=	0x00ca
                           0000CB   670 _T3CTL	=	0x00cb
                           0000CC   671 _T3CCTL0	=	0x00cc
                           0000CD   672 _T3CC0	=	0x00cd
                           0000CE   673 _T3CCTL1	=	0x00ce
                           0000CF   674 _T3CC1	=	0x00cf
                           0000EA   675 _T4CNT	=	0x00ea
                           0000EB   676 _T4CTL	=	0x00eb
                           0000EC   677 _T4CCTL0	=	0x00ec
                           0000ED   678 _T4CC0	=	0x00ed
                           0000EE   679 _T4CCTL1	=	0x00ee
                           0000EF   680 _T4CC1	=	0x00ef
                           0000D8   681 _TIMIF	=	0x00d8
                           000086   682 _U0CSR	=	0x0086
                           0000C1   683 _U0DBUF	=	0x00c1
                           0000C2   684 _U0BAUD	=	0x00c2
                           0000C4   685 _U0UCR	=	0x00c4
                           0000C5   686 _U0GCR	=	0x00c5
                           0000F8   687 _U1CSR	=	0x00f8
                           0000F9   688 _U1DBUF	=	0x00f9
                           0000FA   689 _U1BAUD	=	0x00fa
                           0000FB   690 _U1UCR	=	0x00fb
                           0000FC   691 _U1GCR	=	0x00fc
                           0000C9   692 _WDCTL	=	0x00c9
                                    693 ;--------------------------------------------------------
                                    694 ; special function bits
                                    695 ;--------------------------------------------------------
                                    696 	.area RSEG    (ABS,DATA)
      000000                        697 	.org 0x0000
                           000087   698 _P0_7	=	0x0087
                           000086   699 _P0_6	=	0x0086
                           000085   700 _P0_5	=	0x0085
                           000084   701 _P0_4	=	0x0084
                           000083   702 _P0_3	=	0x0083
                           000082   703 _P0_2	=	0x0082
                           000081   704 _P0_1	=	0x0081
                           000080   705 _P0_0	=	0x0080
                           00008F   706 _URX1IF	=	0x008f
                           00008D   707 _ADCIF	=	0x008d
                           00008B   708 _URX0IF	=	0x008b
                           00008A   709 _IT1	=	0x008a
                           000089   710 _RFERRIF	=	0x0089
                           000088   711 _IT0	=	0x0088
                           000097   712 _P1_7	=	0x0097
                           000096   713 _P1_6	=	0x0096
                           000095   714 _P1_5	=	0x0095
                           000094   715 _P1_4	=	0x0094
                           000093   716 _P1_3	=	0x0093
                           000092   717 _P1_2	=	0x0092
                           000091   718 _P1_1	=	0x0091
                           000090   719 _P1_0	=	0x0090
                           000099   720 _ENCIF_1	=	0x0099
                           000098   721 _ENCIF_0	=	0x0098
                           0000A7   722 _P2_7	=	0x00a7
                           0000A6   723 _P2_6	=	0x00a6
                           0000A5   724 _P2_5	=	0x00a5
                           0000A4   725 _P2_4	=	0x00a4
                           0000A3   726 _P2_3	=	0x00a3
                           0000A2   727 _P2_2	=	0x00a2
                           0000A1   728 _P2_1	=	0x00a1
                           0000A0   729 _P2_0	=	0x00a0
                           0000AF   730 _EA	=	0x00af
                           0000AD   731 _STIE	=	0x00ad
                           0000AC   732 _ENCIE	=	0x00ac
                           0000AB   733 _URX1IE	=	0x00ab
                           0000AA   734 _URX0IE	=	0x00aa
                           0000A9   735 _ADCIE	=	0x00a9
                           0000A8   736 _RFERRIE	=	0x00a8
                           0000BD   737 _P0IE	=	0x00bd
                           0000BC   738 _T4IE	=	0x00bc
                           0000BB   739 _T3IE	=	0x00bb
                           0000BA   740 _T2IE	=	0x00ba
                           0000B9   741 _T1IE	=	0x00b9
                           0000B8   742 _DMAIE	=	0x00b8
                           0000C7   743 _STIF	=	0x00c7
                           0000C5   744 _P0IF	=	0x00c5
                           0000C4   745 _T4IF	=	0x00c4
                           0000C3   746 _T3IF	=	0x00c3
                           0000C2   747 _T2IF	=	0x00c2
                           0000C1   748 _T1IF	=	0x00c1
                           0000C0   749 _DMAIF	=	0x00c0
                           0000D7   750 _CY	=	0x00d7
                           0000D6   751 _AC	=	0x00d6
                           0000D5   752 _F0	=	0x00d5
                           0000D4   753 _RS1	=	0x00d4
                           0000D3   754 _RS0	=	0x00d3
                           0000D2   755 _OV	=	0x00d2
                           0000D1   756 _F1	=	0x00d1
                           0000D0   757 _P	=	0x00d0
                           0000E7   758 _ACC_7	=	0x00e7
                           0000E6   759 _ACC_6	=	0x00e6
                           0000E5   760 _ACC_5	=	0x00e5
                           0000E4   761 _ACC_4	=	0x00e4
                           0000E3   762 _ACC_3	=	0x00e3
                           0000E2   763 _ACC_2	=	0x00e2
                           0000E1   764 _ACC_1	=	0x00e1
                           0000E0   765 _ACC_0	=	0x00e0
                           0000EC   766 _WDTIF	=	0x00ec
                           0000EB   767 _P1IF	=	0x00eb
                           0000EA   768 _UTX1IF	=	0x00ea
                           0000E9   769 _UTX0IF	=	0x00e9
                           0000E8   770 _P2IF	=	0x00e8
                           0000F7   771 _B_7	=	0x00f7
                           0000F6   772 _B_6	=	0x00f6
                           0000F5   773 _B_5	=	0x00f5
                           0000F4   774 _B_4	=	0x00f4
                           0000F3   775 _B_3	=	0x00f3
                           0000F2   776 _B_2	=	0x00f2
                           0000F1   777 _B_1	=	0x00f1
                           0000F0   778 _B_0	=	0x00f0
                           0000DE   779 _OVFIM	=	0x00de
                           0000DD   780 _T4CH1IF	=	0x00dd
                           0000DC   781 _T4CH0IF	=	0x00dc
                           0000DB   782 _T4OVFIF	=	0x00db
                           0000DA   783 _T3CH1IF	=	0x00da
                           0000D9   784 _T3CH0IF	=	0x00d9
                           0000D8   785 _T3OVFIF	=	0x00d8
                           0000FF   786 _MODE	=	0x00ff
                           0000FE   787 _RE	=	0x00fe
                           0000FD   788 _SLAVE	=	0x00fd
                           0000FC   789 _FE	=	0x00fc
                           0000FB   790 _ERR	=	0x00fb
                           0000FA   791 _RX_BYTE	=	0x00fa
                           0000F9   792 _TX_BYTE	=	0x00f9
                           0000F8   793 _ACTIVE	=	0x00f8
                                    794 ;--------------------------------------------------------
                                    795 ; overlayable register banks
                                    796 ;--------------------------------------------------------
                                    797 	.area REG_BANK_0	(REL,OVR,DATA)
      000000                        798 	.ds 8
                                    799 ;--------------------------------------------------------
                                    800 ; internal ram data
                                    801 ;--------------------------------------------------------
                                    802 	.area DSEG    (DATA)
                                    803 ;--------------------------------------------------------
                                    804 ; overlayable items in internal ram 
                                    805 ;--------------------------------------------------------
                                    806 ;--------------------------------------------------------
                                    807 ; indirectly addressable internal ram data
                                    808 ;--------------------------------------------------------
                                    809 	.area ISEG    (DATA)
                                    810 ;--------------------------------------------------------
                                    811 ; absolute internal ram data
                                    812 ;--------------------------------------------------------
                                    813 	.area IABS    (ABS,DATA)
                                    814 	.area IABS    (ABS,DATA)
                                    815 ;--------------------------------------------------------
                                    816 ; bit data
                                    817 ;--------------------------------------------------------
                                    818 	.area BSEG    (BIT)
                                    819 ;--------------------------------------------------------
                                    820 ; paged external ram data
                                    821 ;--------------------------------------------------------
                                    822 	.area PSEG    (PAG,XDATA)
                                    823 ;--------------------------------------------------------
                                    824 ; external ram data
                                    825 ;--------------------------------------------------------
                                    826 	.area XSEG    (XDATA)
                           0061A6   827 _MONMUX	=	0x61a6
                           0061A6   828 _OPAMPMC	=	0x61a6
                           006230   829 _I2CCFG	=	0x6230
                           006231   830 _I2CSTAT	=	0x6231
                           006232   831 _I2CDATA	=	0x6232
                           006233   832 _I2CADDR	=	0x6233
                           006234   833 _I2CWC	=	0x6234
                           006235   834 _I2CIO	=	0x6235
                           006243   835 _OBSSEL0	=	0x6243
                           006244   836 _OBSSEL1	=	0x6244
                           006245   837 _OBSSEL2	=	0x6245
                           006246   838 _OBSSEL3	=	0x6246
                           006247   839 _OBSSEL4	=	0x6247
                           006248   840 _OBSSEL5	=	0x6248
                           006249   841 _CHVER	=	0x6249
                           00624A   842 _CHIPID	=	0x624a
                           00624B   843 _TESTREG0	=	0x624b
                           006260   844 _DBGDATA	=	0x6260
                           006262   845 _SRCRC	=	0x6262
                           006264   846 _BATTMON	=	0x6264
                           006265   847 _IVCTRL	=	0x6265
                           006270   848 _FCTL	=	0x6270
                           006271   849 _FADDRL	=	0x6271
                           006272   850 _FADDRH	=	0x6272
                           006273   851 _FWDATA	=	0x6273
                           006276   852 _CHIPINFO0	=	0x6276
                           006277   853 _CHIPINFO1	=	0x6277
                           006281   854 _IRCTL	=	0x6281
                           006290   855 _CLD	=	0x6290
                           0062A0   856 _XX_T1CCTL0	=	0x62a0
                           0062A1   857 _XX_T1CCTL1	=	0x62a1
                           0062A2   858 _XX_T1CCTL2	=	0x62a2
                           0062A3   859 _T1CCTL3	=	0x62a3
                           0062A4   860 _T1CCTL4	=	0x62a4
                           0062A6   861 _XX_T1CC0L	=	0x62a6
                           0062A7   862 _XX_T1CC0H	=	0x62a7
                           0062A8   863 _XX_T1CC1L	=	0x62a8
                           0062A9   864 _XX_T1CC1H	=	0x62a9
                           0062AA   865 _XX_T1CC2L	=	0x62aa
                           0062AB   866 _XX_T1CC2H	=	0x62ab
                           0062AC   867 _T1CC3L	=	0x62ac
                           0062AD   868 _T1CC3H	=	0x62ad
                           0062AE   869 _T1CC4L	=	0x62ae
                           0062AF   870 _T1CC4H	=	0x62af
                           0062B0   871 _STCC	=	0x62b0
                           0062B1   872 _STCS	=	0x62b1
                           0062B2   873 _STCV0	=	0x62b2
                           0062B3   874 _STCV1	=	0x62b3
                           0062B4   875 _STCV2	=	0x62b4
                           0062C0   876 _OPAMPC	=	0x62c0
                           0062C1   877 _OPAMPS	=	0x62c1
                           0062D0   878 _CMPCTL	=	0x62d0
                           006000   879 _RFCORE_RAM	=	0x6000
                           006000   880 _RXFIFO	=	0x6000
                           006080   881 _TXFIFO	=	0x6080
                           006100   882 _SRC_ADDR_TABLE	=	0x6100
                           006160   883 _SRCRESMASK0	=	0x6160
                           006161   884 _SRCRESMASK1	=	0x6161
                           006162   885 _SRCRESMASK2	=	0x6162
                           006163   886 _SRCRESINDEX	=	0x6163
                           006164   887 _SRCEXTPENDEN0	=	0x6164
                           006165   888 _SRCEXTPENDEN1	=	0x6165
                           006166   889 _SRCEXTPENDEN2	=	0x6166
                           006167   890 _SRCSHORTPENDEN0	=	0x6167
                           006168   891 _SRCSHORTPENDEN1	=	0x6168
                           006169   892 _SRCSHORTPENDEN2	=	0x6169
                           00616A   893 _EXT_ADDR0	=	0x616a
                           00616B   894 _EXT_ADDR1	=	0x616b
                           00616C   895 _EXT_ADDR2	=	0x616c
                           00616D   896 _EXT_ADDR3	=	0x616d
                           00616E   897 _EXT_ADDR4	=	0x616e
                           00616F   898 _EXT_ADDR5	=	0x616f
                           006170   899 _EXT_ADDR6	=	0x6170
                           006171   900 _EXT_ADDR7	=	0x6171
                           006172   901 _PAN_ID0	=	0x6172
                           006173   902 _PAN_ID1	=	0x6173
                           006174   903 _SHORT_ADDR0	=	0x6174
                           006175   904 _SHORT_ADDR1	=	0x6175
                           006180   905 _FRMFILT0	=	0x6180
                           006181   906 _FRMFILT1	=	0x6181
                           006182   907 _SRCMATCH	=	0x6182
                           006183   908 _SRCSHORTEN0	=	0x6183
                           006184   909 _SRCSHORTEN1	=	0x6184
                           006185   910 _SRCSHORTEN2	=	0x6185
                           006186   911 _SRCEXTEN0	=	0x6186
                           006187   912 _SRCEXTEN1	=	0x6187
                           006188   913 _SRCEXTEN2	=	0x6188
                           006189   914 _FRMCTRL0	=	0x6189
                           00618A   915 _FRMCTRL1	=	0x618a
                           00618B   916 _RXENABLE	=	0x618b
                           00618C   917 _RXMASKSET	=	0x618c
                           00618D   918 _RXMASKCLR	=	0x618d
                           00618E   919 _FREQTUNE	=	0x618e
                           00618F   920 _FREQCTRL	=	0x618f
                           006190   921 _TXPOWER	=	0x6190
                           006191   922 _TXCTRL	=	0x6191
                           006192   923 _FSMSTAT0	=	0x6192
                           006193   924 _FSMSTAT1	=	0x6193
                           006194   925 _FIFOPCTRL	=	0x6194
                           006195   926 _FSMCTRL	=	0x6195
                           006196   927 _CCACTRL0	=	0x6196
                           006197   928 _CCACTRL1	=	0x6197
                           006198   929 _RSSI	=	0x6198
                           006199   930 _RSSISTAT	=	0x6199
                           00619A   931 _RXFIRST	=	0x619a
                           00619B   932 _RXFIFOCNT	=	0x619b
                           00619C   933 _TXFIFOCNT	=	0x619c
                           00619D   934 _RXFIRST_PTR	=	0x619d
                           00619E   935 _RXLAST_PTR	=	0x619e
                           00619F   936 _RXP1_PTR	=	0x619f
                           0061A1   937 _TXFIRST_PTR	=	0x61a1
                           0061A2   938 _TXLAST_PTR	=	0x61a2
                           0061A3   939 _RFIRQM0	=	0x61a3
                           0061A4   940 _RFIRQM1	=	0x61a4
                           0061A5   941 _RFERRM	=	0x61a5
                           0061A7   942 _RFRND	=	0x61a7
                           0061A8   943 _MDMCTRL0	=	0x61a8
                           0061A9   944 _MDMCTRL1	=	0x61a9
                           0061AA   945 _FREQEST	=	0x61aa
                           0061AB   946 _RXCTRL	=	0x61ab
                           0061AC   947 _FSCTRL	=	0x61ac
                           0061AD   948 _FSCAL0	=	0x61ad
                           0061AE   949 _FSCAL1	=	0x61ae
                           0061AF   950 _FSCAL2	=	0x61af
                           0061B0   951 _FSCAL3	=	0x61b0
                           0061B1   952 _AGCCTRL0	=	0x61b1
                           0061B2   953 _AGCCTRL1	=	0x61b2
                           0061B3   954 _AGCCTRL2	=	0x61b3
                           0061B4   955 _AGCCTRL3	=	0x61b4
                           0061B5   956 _ADCTEST0	=	0x61b5
                           0061B6   957 _ADCTEST1	=	0x61b6
                           0061B7   958 _ADCTEST2	=	0x61b7
                           0061B8   959 _MDMTEST0	=	0x61b8
                           0061B9   960 _MDMTEST1	=	0x61b9
                           0061BA   961 _DACTEST0	=	0x61ba
                           0061BB   962 _DACTEST1	=	0x61bb
                           0061BC   963 _DACTEST2	=	0x61bc
                           0061BD   964 _ATEST	=	0x61bd
                           0061BE   965 _PTEST0	=	0x61be
                           0061BF   966 _PTEST1	=	0x61bf
                           0061FA   967 _TXFILTCFG	=	0x61fa
                           0061EB   968 _RFC_OBS_CTRL0	=	0x61eb
                           0061EC   969 _RFC_OBS_CTRL1	=	0x61ec
                           0061ED   970 _RFC_OBS_CTRL2	=	0x61ed
                           0061C0   971 _CSPPROG0	=	0x61c0
                           0061C1   972 _CSPPROG1	=	0x61c1
                           0061C2   973 _CSPPROG2	=	0x61c2
                           0061C3   974 _CSPPROG3	=	0x61c3
                           0061C4   975 _CSPPROG4	=	0x61c4
                           0061C5   976 _CSPPROG5	=	0x61c5
                           0061C6   977 _CSPPROG6	=	0x61c6
                           0061C7   978 _CSPPROG7	=	0x61c7
                           0061C8   979 _CSPPROG8	=	0x61c8
                           0061C9   980 _CSPPROG9	=	0x61c9
                           0061CA   981 _CSPPROG10	=	0x61ca
                           0061CB   982 _CSPPROG11	=	0x61cb
                           0061CC   983 _CSPPROG12	=	0x61cc
                           0061CD   984 _CSPPROG13	=	0x61cd
                           0061CE   985 _CSPPROG14	=	0x61ce
                           0061CF   986 _CSPPROG15	=	0x61cf
                           0061D0   987 _CSPPROG16	=	0x61d0
                           0061D1   988 _CSPPROG17	=	0x61d1
                           0061D2   989 _CSPPROG18	=	0x61d2
                           0061D3   990 _CSPPROG19	=	0x61d3
                           0061D4   991 _CSPPROG20	=	0x61d4
                           0061D5   992 _CSPPROG21	=	0x61d5
                           0061D6   993 _CSPPROG22	=	0x61d6
                           0061D7   994 _CSPPROG23	=	0x61d7
                           0061E0   995 _CSPCTRL	=	0x61e0
                           0061E1   996 _CSPSTAT	=	0x61e1
                           0061E2   997 _CSPX	=	0x61e2
                           0061E3   998 _CSPY	=	0x61e3
                           0061E4   999 _CSPZ	=	0x61e4
                           0061E5  1000 _CSPT	=	0x61e5
                           006200  1001 _USBADDR	=	0x6200
                           006201  1002 _USBPOW	=	0x6201
                           006202  1003 _USBIIF	=	0x6202
                           006204  1004 _USBOIF	=	0x6204
                           006206  1005 _USBCIF	=	0x6206
                           006207  1006 _USBIIE	=	0x6207
                           006209  1007 _USBOIE	=	0x6209
                           00620B  1008 _USBCIE	=	0x620b
                           00620C  1009 _USBFRML	=	0x620c
                           00620D  1010 _USBFRMH	=	0x620d
                           00620E  1011 _USBINDEX	=	0x620e
                           00620F  1012 _USBCTRL	=	0x620f
                           006210  1013 _USBMAXI	=	0x6210
                           006211  1014 _USBCS0	=	0x6211
                           006211  1015 _USBCSIL	=	0x6211
                           006212  1016 _USBCSIH	=	0x6212
                           006213  1017 _USBMAXO	=	0x6213
                           006214  1018 _USBCSOL	=	0x6214
                           006215  1019 _USBCSOH	=	0x6215
                           006216  1020 _USBCNT0	=	0x6216
                           006216  1021 _USBCNTL	=	0x6216
                           006217  1022 _USBCNTH	=	0x6217
                           006220  1023 _USBF0	=	0x6220
                           006222  1024 _USBF1	=	0x6222
                           006224  1025 _USBF2	=	0x6224
                           006226  1026 _USBF3	=	0x6226
                           006228  1027 _USBF4	=	0x6228
                           00622A  1028 _USBF5	=	0x622a
                           007080  1029 _X_P0	=	0x7080
                           007086  1030 _X_U0CSR	=	0x7086
                           007089  1031 _X_P0IFG	=	0x7089
                           00708A  1032 _X_P1IFG	=	0x708a
                           00708B  1033 _X_P2IFG	=	0x708b
                           00708C  1034 _X_PICTL	=	0x708c
                           00708D  1035 _X_P1IEN	=	0x708d
                           00708F  1036 _X_P0INP	=	0x708f
                           007090  1037 _X_P1	=	0x7090
                           007091  1038 _X_RFIRQF1	=	0x7091
                           007093  1039 _X_MPAGE	=	0x7093
                           007093  1040 _X__XPAGE	=	0x7093
                           007094  1041 _X_T2CTRL	=	0x7094
                           007095  1042 _X_ST0	=	0x7095
                           007096  1043 _X_ST1	=	0x7096
                           007097  1044 _X_ST2	=	0x7097
                           00709C  1045 _X_T2EVTCFG	=	0x709c
                           00709D  1046 _X_SLEEPSTA	=	0x709d
                           00709E  1047 _X_CLKCONSTA	=	0x709e
                           00709F  1048 _X_FMAP	=	0x709f
                           00709F  1049 _X_PSBANK	=	0x709f
                           0070A0  1050 _X_P2	=	0x70a0
                           0070A1  1051 _X_T2IRQF	=	0x70a1
                           0070A2  1052 _X_T2M0	=	0x70a2
                           0070A3  1053 _X_T2M1	=	0x70a3
                           0070A4  1054 _X_T2MOVF0	=	0x70a4
                           0070A5  1055 _X_T2MOVF1	=	0x70a5
                           0070A6  1056 _X_T2MOVF2	=	0x70a6
                           0070A7  1057 _X_T2IRQM	=	0x70a7
                           0070AB  1058 _X_P0IEN	=	0x70ab
                           0070AC  1059 _X_P2IEN	=	0x70ac
                           0070AD  1060 _X_STLOAD	=	0x70ad
                           0070AE  1061 _X_PMUX	=	0x70ae
                           0070AF  1062 _X_T1STAT	=	0x70af
                           0070B1  1063 _X_ENCDI	=	0x70b1
                           0070B2  1064 _X_ENCDO	=	0x70b2
                           0070B3  1065 _X_ENCCS	=	0x70b3
                           0070B4  1066 _X_ADCCON1	=	0x70b4
                           0070B5  1067 _X_ADCCON2	=	0x70b5
                           0070B6  1068 _X_ADCCON3	=	0x70b6
                           0070BA  1069 _X_ADCL	=	0x70ba
                           0070BB  1070 _X_ADCH	=	0x70bb
                           0070BC  1071 _X_RNDL	=	0x70bc
                           0070BD  1072 _X_RNDH	=	0x70bd
                           0070BE  1073 _X_SLEEPCMD	=	0x70be
                           0070BF  1074 _X_RFERRF	=	0x70bf
                           0070C1  1075 _X_U0DBUF	=	0x70c1
                           0070C2  1076 _X_U0BAUD	=	0x70c2
                           0070C3  1077 _X_T2MSEL	=	0x70c3
                           0070C4  1078 _X_U0UCR	=	0x70c4
                           0070C5  1079 _X_U0GCR	=	0x70c5
                           0070C6  1080 _X_CLKCONCMD	=	0x70c6
                           0070C7  1081 _X_MEMCTR	=	0x70c7
                           0070C9  1082 _X_WDCTL	=	0x70c9
                           0070CA  1083 _X_T3CNT	=	0x70ca
                           0070CB  1084 _X_T3CTL	=	0x70cb
                           0070CC  1085 _X_T3CCTL0	=	0x70cc
                           0070CD  1086 _X_T3CC0	=	0x70cd
                           0070CE  1087 _X_T3CCTL1	=	0x70ce
                           0070CF  1088 _X_T3CC1	=	0x70cf
                           0070D1  1089 _X_DMAIRQ	=	0x70d1
                           0070D2  1090 _X_DMA1CFGL	=	0x70d2
                           0070D3  1091 _X_DMA1CFGH	=	0x70d3
                           0070D4  1092 _X_DMA0CFGL	=	0x70d4
                           0070D5  1093 _X_DMA0CFGH	=	0x70d5
                           0070D6  1094 _X_DMAARM	=	0x70d6
                           0070D7  1095 _X_DMAREQ	=	0x70d7
                           0070D8  1096 _X_TIMIF	=	0x70d8
                           0070D9  1097 _X_RFD	=	0x70d9
                           0070DA  1098 _X_T1CC0L	=	0x70da
                           0070DB  1099 _X_T1CC0H	=	0x70db
                           0070DC  1100 _X_T1CC1L	=	0x70dc
                           0070DD  1101 _X_T1CC1H	=	0x70dd
                           0070DE  1102 _X_T1CC2L	=	0x70de
                           0070DF  1103 _X_T1CC2H	=	0x70df
                           0070E1  1104 _X_RFST	=	0x70e1
                           0070E2  1105 _X_T1CNTL	=	0x70e2
                           0070E3  1106 _X_T1CNTH	=	0x70e3
                           0070E4  1107 _X_T1CTL	=	0x70e4
                           0070E5  1108 _X_T1CCTL0	=	0x70e5
                           0070E6  1109 _X_T1CCTL1	=	0x70e6
                           0070E7  1110 _X_T1CCTL2	=	0x70e7
                           0070E9  1111 _X_RFIRQF0	=	0x70e9
                           0070EA  1112 _X_T4CNT	=	0x70ea
                           0070EB  1113 _X_T4CTL	=	0x70eb
                           0070EC  1114 _X_T4CCTL0	=	0x70ec
                           0070ED  1115 _X_T4CC0	=	0x70ed
                           0070EE  1116 _X_T4CCTL1	=	0x70ee
                           0070EF  1117 _X_T4CC1	=	0x70ef
                           0070F1  1118 _X_PERCFG	=	0x70f1
                           0070F2  1119 _X_APCFG	=	0x70f2
                           0070F3  1120 _X_P0SEL	=	0x70f3
                           0070F4  1121 _X_P1SEL	=	0x70f4
                           0070F5  1122 _X_P2SEL	=	0x70f5
                           0070F6  1123 _X_P1INP	=	0x70f6
                           0070F7  1124 _X_P2INP	=	0x70f7
                           0070F8  1125 _X_U1CSR	=	0x70f8
                           0070F9  1126 _X_U1DBUF	=	0x70f9
                           0070FA  1127 _X_U1BAUD	=	0x70fa
                           0070FB  1128 _X_U1UCR	=	0x70fb
                           0070FC  1129 _X_U1GCR	=	0x70fc
                           0070FD  1130 _X_P0DIR	=	0x70fd
                           0070FE  1131 _X_P1DIR	=	0x70fe
                           0070FF  1132 _X_P2DIR	=	0x70ff
                           007800  1133 _X_INFOPAGE	=	0x7800
                           00780C  1134 _X_IEEE_ADDR	=	0x780c
      000000                       1135 _rime_ptr:
      000000                       1136 	.ds 3
      000003                       1137 _rime_hdr_len:
      000003                       1138 	.ds 1
      000004                       1139 _rime_payload_len:
      000004                       1140 	.ds 1
      000005                       1141 _uncomp_hdr_len:
      000005                       1142 	.ds 1
      000006                       1143 _last_tx_status:
      000006                       1144 	.ds 2
      000008                       1145 _addr_contexts:
      000008                       1146 	.ds 10
      000012                       1147 _context:
      000012                       1148 	.ds 3
      000015                       1149 _hc06_ptr:
      000015                       1150 	.ds 3
      000018                       1151 _output_dest_65536_561:
      000018                       1152 	.ds 8
                                   1153 ;--------------------------------------------------------
                                   1154 ; absolute external ram data
                                   1155 ;--------------------------------------------------------
                                   1156 	.area XABS    (ABS,XDATA)
                                   1157 ;--------------------------------------------------------
                                   1158 ; external initialized ram data
                                   1159 ;--------------------------------------------------------
                                   1160 	.area XISEG   (XDATA)
      000000                       1161 _callback:
      000000                       1162 	.ds 3
                                   1163 	.area HOME    (CODE)
                                   1164 	.area GSINIT0 (CODE)
                                   1165 	.area GSINIT1 (CODE)
                                   1166 	.area GSINIT2 (CODE)
                                   1167 	.area GSINIT3 (CODE)
                                   1168 	.area GSINIT4 (CODE)
                                   1169 	.area GSINIT5 (CODE)
                                   1170 	.area GSINIT  (CODE)
                                   1171 	.area GSFINAL (CODE)
                                   1172 	.area CSEG    (CODE)
                                   1173 ;--------------------------------------------------------
                                   1174 ; global & static initialisations
                                   1175 ;--------------------------------------------------------
                                   1176 	.area HOME    (CODE)
                                   1177 	.area GSINIT  (CODE)
                                   1178 	.area GSFINAL (CODE)
                                   1179 	.area GSINIT  (CODE)
                                   1180 ;--------------------------------------------------------
                                   1181 ; Home
                                   1182 ;--------------------------------------------------------
                                   1183 	.area HOME    (CODE)
                                   1184 	.area HOME    (CODE)
                                   1185 ;--------------------------------------------------------
                                   1186 ; code
                                   1187 ;--------------------------------------------------------
                                   1188 	.area BANK1   (CODE)
                                   1189 ;------------------------------------------------------------
                                   1190 ;Allocation info for local variables in function 'rime_sniffer_add'
                                   1191 ;------------------------------------------------------------
                                   1192 ;s                         Allocated to registers 
                                   1193 ;------------------------------------------------------------
                                   1194 ;	../../../core/net/sicslowpan.c:269: rime_sniffer_add(struct rime_sniffer *s)
                                   1195 ;	-----------------------------------------
                                   1196 ;	 function rime_sniffer_add
                                   1197 ;	-----------------------------------------
      000000                       1198 _rime_sniffer_add:
                           000007  1199 	ar7 = 0x07
                           000006  1200 	ar6 = 0x06
                           000005  1201 	ar5 = 0x05
                           000004  1202 	ar4 = 0x04
                           000003  1203 	ar3 = 0x03
                           000002  1204 	ar2 = 0x02
                           000001  1205 	ar1 = 0x01
                           000000  1206 	ar0 = 0x00
      000000 AF F0            [24] 1207 	mov	r7,b
      000002 AE 83            [24] 1208 	mov	r6,dph
      000004 E5 82            [12] 1209 	mov	a,dpl
      000006 90r00r00         [24] 1210 	mov	dptr,#_callback
      000009 F0               [24] 1211 	movx	@dptr,a
      00000A EE               [12] 1212 	mov	a,r6
      00000B A3               [24] 1213 	inc	dptr
      00000C F0               [24] 1214 	movx	@dptr,a
      00000D EF               [12] 1215 	mov	a,r7
      00000E A3               [24] 1216 	inc	dptr
      00000F F0               [24] 1217 	movx	@dptr,a
                                   1218 ;	../../../core/net/sicslowpan.c:271: callback = s;
                                   1219 ;	../../../core/net/sicslowpan.c:272: }
      000010 02r00r00         [24] 1220 	ljmp	__sdcc_banked_ret
                                   1221 ;------------------------------------------------------------
                                   1222 ;Allocation info for local variables in function 'rime_sniffer_remove'
                                   1223 ;------------------------------------------------------------
                                   1224 ;s                         Allocated to registers 
                                   1225 ;------------------------------------------------------------
                                   1226 ;	../../../core/net/sicslowpan.c:275: rime_sniffer_remove(struct rime_sniffer *s)
                                   1227 ;	-----------------------------------------
                                   1228 ;	 function rime_sniffer_remove
                                   1229 ;	-----------------------------------------
      000013                       1230 _rime_sniffer_remove:
                                   1231 ;	../../../core/net/sicslowpan.c:277: callback = NULL;
      000013 90r00r00         [24] 1232 	mov	dptr,#_callback
      000016 E4               [12] 1233 	clr	a
      000017 F0               [24] 1234 	movx	@dptr,a
      000018 A3               [24] 1235 	inc	dptr
      000019 F0               [24] 1236 	movx	@dptr,a
      00001A A3               [24] 1237 	inc	dptr
      00001B F0               [24] 1238 	movx	@dptr,a
                                   1239 ;	../../../core/net/sicslowpan.c:278: }
      00001C 02r00r00         [24] 1240 	ljmp	__sdcc_banked_ret
                                   1241 ;------------------------------------------------------------
                                   1242 ;Allocation info for local variables in function 'set_packet_attrs'
                                   1243 ;------------------------------------------------------------
                                   1244 ;c                         Allocated to registers r6 r7 
                                   1245 ;------------------------------------------------------------
                                   1246 ;	../../../core/net/sicslowpan.c:281: set_packet_attrs()
                                   1247 ;	-----------------------------------------
                                   1248 ;	 function set_packet_attrs
                                   1249 ;	-----------------------------------------
      00001F                       1250 _set_packet_attrs:
                                   1251 ;	../../../core/net/sicslowpan.c:283: int c = 0;
      00001F 7E 00            [12] 1252 	mov	r6,#0x00
      000021 7F 00            [12] 1253 	mov	r7,#0x00
                                   1254 ;	../../../core/net/sicslowpan.c:285: packetbuf_set_attr(PACKETBUF_ATTR_NETWORK_ID, UIP_IP_BUF->proto);
      000023 90r00r06         [24] 1255 	mov	dptr,#(_uip_aligned_buf + 0x0006)
      000026 E0               [24] 1256 	movx	a,@dptr
      000027 FD               [12] 1257 	mov	r5,a
      000028 7C 00            [12] 1258 	mov	r4,#0x00
      00002A C0 07            [24] 1259 	push	ar7
      00002C C0 06            [24] 1260 	push	ar6
      00002E C0 05            [24] 1261 	push	ar5
      000030 C0 04            [24] 1262 	push	ar4
      000032 75 82 02         [24] 1263 	mov	dpl,#0x02
      000035 78r00            [12] 1264 	mov	r0,#_packetbuf_set_attr
      000037 79s00            [12] 1265 	mov	r1,#(_packetbuf_set_attr >> 8)
      000039 7As00            [12] 1266 	mov	r2,#(_packetbuf_set_attr >> 16)
      00003B 12r00r00         [24] 1267 	lcall	__sdcc_banked_call
      00003E 15 81            [12] 1268 	dec	sp
      000040 15 81            [12] 1269 	dec	sp
      000042 D0 06            [24] 1270 	pop	ar6
      000044 D0 07            [24] 1271 	pop	ar7
                                   1272 ;	../../../core/net/sicslowpan.c:288: if(UIP_IP_BUF->proto == UIP_PROTO_UDP) {
      000046 90r00r06         [24] 1273 	mov	dptr,#(_uip_aligned_buf + 0x0006)
      000049 E0               [24] 1274 	movx	a,@dptr
      00004A FD               [12] 1275 	mov	r5,a
      00004B BD 11 2D         [24] 1276 	cjne	r5,#0x11,00111$
                                   1277 ;	../../../core/net/sicslowpan.c:289: c = UIP_UDP_BUF->srcport;
      00004E 90r00r28         [24] 1278 	mov	dptr,#(_uip_aligned_buf + 0x0028)
      000051 E0               [24] 1279 	movx	a,@dptr
      000052 FC               [12] 1280 	mov	r4,a
      000053 A3               [24] 1281 	inc	dptr
      000054 E0               [24] 1282 	movx	a,@dptr
      000055 FD               [12] 1283 	mov	r5,a
      000056 8C 06            [24] 1284 	mov	ar6,r4
      000058 8D 07            [24] 1285 	mov	ar7,r5
                                   1286 ;	../../../core/net/sicslowpan.c:290: if(UIP_UDP_BUF->destport < c) {
      00005A 90r00r2A         [24] 1287 	mov	dptr,#(_uip_aligned_buf + 0x002a)
      00005D E0               [24] 1288 	movx	a,@dptr
      00005E FC               [12] 1289 	mov	r4,a
      00005F A3               [24] 1290 	inc	dptr
      000060 E0               [24] 1291 	movx	a,@dptr
      000061 FD               [12] 1292 	mov	r5,a
      000062 8E 02            [24] 1293 	mov	ar2,r6
      000064 8F 03            [24] 1294 	mov	ar3,r7
      000066 C3               [12] 1295 	clr	c
      000067 EC               [12] 1296 	mov	a,r4
      000068 9A               [12] 1297 	subb	a,r2
      000069 ED               [12] 1298 	mov	a,r5
      00006A 9B               [12] 1299 	subb	a,r3
      00006B 50 62            [24] 1300 	jnc	00112$
                                   1301 ;	../../../core/net/sicslowpan.c:291: c = UIP_UDP_BUF->destport;
      00006D 90r00r2A         [24] 1302 	mov	dptr,#(_uip_aligned_buf + 0x002a)
      000070 E0               [24] 1303 	movx	a,@dptr
      000071 FC               [12] 1304 	mov	r4,a
      000072 A3               [24] 1305 	inc	dptr
      000073 E0               [24] 1306 	movx	a,@dptr
      000074 FD               [12] 1307 	mov	r5,a
      000075 8C 06            [24] 1308 	mov	ar6,r4
      000077 8D 07            [24] 1309 	mov	ar7,r5
      000079 80 54            [24] 1310 	sjmp	00112$
      00007B                       1311 00111$:
                                   1312 ;	../../../core/net/sicslowpan.c:293: } else if(UIP_IP_BUF->proto == UIP_PROTO_TCP) {
      00007B 90r00r06         [24] 1313 	mov	dptr,#(_uip_aligned_buf + 0x0006)
      00007E E0               [24] 1314 	movx	a,@dptr
      00007F FD               [12] 1315 	mov	r5,a
      000080 BD 06 2D         [24] 1316 	cjne	r5,#0x06,00108$
                                   1317 ;	../../../core/net/sicslowpan.c:294: c = UIP_TCP_BUF->srcport;
      000083 90r00r28         [24] 1318 	mov	dptr,#(_uip_aligned_buf + 0x0028)
      000086 E0               [24] 1319 	movx	a,@dptr
      000087 FC               [12] 1320 	mov	r4,a
      000088 A3               [24] 1321 	inc	dptr
      000089 E0               [24] 1322 	movx	a,@dptr
      00008A FD               [12] 1323 	mov	r5,a
      00008B 8C 06            [24] 1324 	mov	ar6,r4
      00008D 8D 07            [24] 1325 	mov	ar7,r5
                                   1326 ;	../../../core/net/sicslowpan.c:295: if(UIP_TCP_BUF->destport < c) {
      00008F 90r00r2A         [24] 1327 	mov	dptr,#(_uip_aligned_buf + 0x002a)
      000092 E0               [24] 1328 	movx	a,@dptr
      000093 FC               [12] 1329 	mov	r4,a
      000094 A3               [24] 1330 	inc	dptr
      000095 E0               [24] 1331 	movx	a,@dptr
      000096 FD               [12] 1332 	mov	r5,a
      000097 8E 02            [24] 1333 	mov	ar2,r6
      000099 8F 03            [24] 1334 	mov	ar3,r7
      00009B C3               [12] 1335 	clr	c
      00009C EC               [12] 1336 	mov	a,r4
      00009D 9A               [12] 1337 	subb	a,r2
      00009E ED               [12] 1338 	mov	a,r5
      00009F 9B               [12] 1339 	subb	a,r3
      0000A0 50 2D            [24] 1340 	jnc	00112$
                                   1341 ;	../../../core/net/sicslowpan.c:296: c = UIP_TCP_BUF->destport;
      0000A2 90r00r2A         [24] 1342 	mov	dptr,#(_uip_aligned_buf + 0x002a)
      0000A5 E0               [24] 1343 	movx	a,@dptr
      0000A6 FC               [12] 1344 	mov	r4,a
      0000A7 A3               [24] 1345 	inc	dptr
      0000A8 E0               [24] 1346 	movx	a,@dptr
      0000A9 FD               [12] 1347 	mov	r5,a
      0000AA 8C 06            [24] 1348 	mov	ar6,r4
      0000AC 8D 07            [24] 1349 	mov	ar7,r5
      0000AE 80 1F            [24] 1350 	sjmp	00112$
      0000B0                       1351 00108$:
                                   1352 ;	../../../core/net/sicslowpan.c:298: } else if(UIP_IP_BUF->proto == UIP_PROTO_ICMP6) {
      0000B0 90r00r06         [24] 1353 	mov	dptr,#(_uip_aligned_buf + 0x0006)
      0000B3 E0               [24] 1354 	movx	a,@dptr
      0000B4 FD               [12] 1355 	mov	r5,a
      0000B5 BD 3A 17         [24] 1356 	cjne	r5,#0x3a,00112$
                                   1357 ;	../../../core/net/sicslowpan.c:299: c = UIP_ICMP_BUF->type << 8 | UIP_ICMP_BUF->icode;
      0000B8 90r00r28         [24] 1358 	mov	dptr,#(_uip_aligned_buf + 0x0028)
      0000BB E0               [24] 1359 	movx	a,@dptr
      0000BC FC               [12] 1360 	mov	r4,a
      0000BD 7D 00            [12] 1361 	mov	r5,#0x00
      0000BF 90r00r29         [24] 1362 	mov	dptr,#(_uip_aligned_buf + 0x0029)
      0000C2 E0               [24] 1363 	movx	a,@dptr
      0000C3 FB               [12] 1364 	mov	r3,a
      0000C4 7A 00            [12] 1365 	mov	r2,#0x00
      0000C6 42 05            [12] 1366 	orl	ar5,a
      0000C8 EA               [12] 1367 	mov	a,r2
      0000C9 42 04            [12] 1368 	orl	ar4,a
      0000CB 8D 06            [24] 1369 	mov	ar6,r5
      0000CD 8C 07            [24] 1370 	mov	ar7,r4
      0000CF                       1371 00112$:
                                   1372 ;	../../../core/net/sicslowpan.c:302: packetbuf_set_attr(PACKETBUF_ATTR_CHANNEL, c);
      0000CF C0 06            [24] 1373 	push	ar6
      0000D1 C0 07            [24] 1374 	push	ar7
      0000D3 75 82 01         [24] 1375 	mov	dpl,#0x01
      0000D6 78r00            [12] 1376 	mov	r0,#_packetbuf_set_attr
      0000D8 79s00            [12] 1377 	mov	r1,#(_packetbuf_set_attr >> 8)
      0000DA 7As00            [12] 1378 	mov	r2,#(_packetbuf_set_attr >> 16)
      0000DC 12r00r00         [24] 1379 	lcall	__sdcc_banked_call
      0000DF 15 81            [12] 1380 	dec	sp
      0000E1 15 81            [12] 1381 	dec	sp
                                   1382 ;	../../../core/net/sicslowpan.c:308: }
      0000E3 02r00r00         [24] 1383 	ljmp	__sdcc_banked_ret
                                   1384 ;------------------------------------------------------------
                                   1385 ;Allocation info for local variables in function 'addr_context_lookup_by_prefix'
                                   1386 ;------------------------------------------------------------
                                   1387 ;ipaddr                    Allocated to stack - sp -9
                                   1388 ;i                         Allocated to registers r3 r4 
                                   1389 ;sloc0                     Allocated to stack - sp -6
                                   1390 ;sloc1                     Allocated to stack - sp -2
                                   1391 ;sloc2                     Allocated to stack - sp -4
                                   1392 ;sloc3                     Allocated to stack - sp -1
                                   1393 ;------------------------------------------------------------
                                   1394 ;	../../../core/net/sicslowpan.c:373: addr_context_lookup_by_prefix(uip_ipaddr_t *ipaddr)
                                   1395 ;	-----------------------------------------
                                   1396 ;	 function addr_context_lookup_by_prefix
                                   1397 ;	-----------------------------------------
      0000E6                       1398 _addr_context_lookup_by_prefix:
      0000E6 C0 82            [24] 1399 	push	dpl
      0000E8 C0 83            [24] 1400 	push	dph
      0000EA C0 F0            [24] 1401 	push	b
      0000EC E5 81            [12] 1402 	mov	a,sp
      0000EE 24 07            [12] 1403 	add	a,#0x07
      0000F0 F5 81            [12] 1404 	mov	sp,a
                                   1405 ;	../../../core/net/sicslowpan.c:378: for(i = 0; i < SICSLOWPAN_CONF_MAX_ADDR_CONTEXTS; i++) {
      0000F2 E4               [12] 1406 	clr	a
      0000F3 FB               [12] 1407 	mov	r3,a
      0000F4 FC               [12] 1408 	mov	r4,a
      0000F5 E5 81            [12] 1409 	mov	a,sp
      0000F7 24 FA            [12] 1410 	add	a,#0xfa
      0000F9 F8               [12] 1411 	mov	r0,a
      0000FA E4               [12] 1412 	clr	a
      0000FB F6               [12] 1413 	mov	@r0,a
      0000FC 08               [12] 1414 	inc	r0
      0000FD F6               [12] 1415 	mov	@r0,a
      0000FE                       1416 00105$:
                                   1417 ;	../../../core/net/sicslowpan.c:379: if((addr_contexts[i].used == 1) &&
      0000FE E5 81            [12] 1418 	mov	a,sp
      000100 24 FA            [12] 1419 	add	a,#0xfa
      000102 F8               [12] 1420 	mov	r0,a
      000103 E6               [12] 1421 	mov	a,@r0
      000104 24r08            [12] 1422 	add	a,#_addr_contexts
      000106 F5 82            [12] 1423 	mov	dpl,a
      000108 08               [12] 1424 	inc	r0
      000109 E6               [12] 1425 	mov	a,@r0
      00010A 34s00            [12] 1426 	addc	a,#(_addr_contexts >> 8)
      00010C F5 83            [12] 1427 	mov	dph,a
      00010E E0               [24] 1428 	movx	a,@dptr
      00010F FF               [12] 1429 	mov	r7,a
      000110 BF 01 02         [24] 1430 	cjne	r7,#0x01,00125$
      000113 80 03            [24] 1431 	sjmp	00126$
      000115                       1432 00125$:
      000115 02r01rA5         [24] 1433 	ljmp	00106$
      000118                       1434 00126$:
                                   1435 ;	../../../core/net/sicslowpan.c:380: uip_ipaddr_prefixcmp(&addr_contexts[i].prefix, ipaddr, 64)) {
      000118 C0 03            [24] 1436 	push	ar3
      00011A C0 04            [24] 1437 	push	ar4
      00011C E5 81            [12] 1438 	mov	a,sp
      00011E 24 F5            [12] 1439 	add	a,#0xf5
      000120 F8               [12] 1440 	mov	r0,a
      000121 E5 81            [12] 1441 	mov	a,sp
      000123 24 FA            [12] 1442 	add	a,#0xfa
      000125 F9               [12] 1443 	mov	r1,a
      000126 E6               [12] 1444 	mov	a,@r0
      000127 F7               [12] 1445 	mov	@r1,a
      000128 08               [12] 1446 	inc	r0
      000129 09               [12] 1447 	inc	r1
      00012A E6               [12] 1448 	mov	a,@r0
      00012B F7               [12] 1449 	mov	@r1,a
      00012C 08               [12] 1450 	inc	r0
      00012D 09               [12] 1451 	inc	r1
      00012E E6               [12] 1452 	mov	a,@r0
      00012F F7               [12] 1453 	mov	@r1,a
      000130 E5 81            [12] 1454 	mov	a,sp
      000132 24 F8            [12] 1455 	add	a,#0xf8
      000134 F8               [12] 1456 	mov	r0,a
      000135 E5 81            [12] 1457 	mov	a,sp
      000137 24 FD            [12] 1458 	add	a,#0xfd
      000139 F9               [12] 1459 	mov	r1,a
      00013A E6               [12] 1460 	mov	a,@r0
      00013B 24r08            [12] 1461 	add	a,#_addr_contexts
      00013D F7               [12] 1462 	mov	@r1,a
      00013E 08               [12] 1463 	inc	r0
      00013F E6               [12] 1464 	mov	a,@r0
      000140 34s00            [12] 1465 	addc	a,#(_addr_contexts >> 8)
      000142 09               [12] 1466 	inc	r1
      000143 F7               [12] 1467 	mov	@r1,a
      000144 E5 81            [12] 1468 	mov	a,sp
      000146 24 FD            [12] 1469 	add	a,#0xfd
      000148 F8               [12] 1470 	mov	r0,a
      000149 74 02            [12] 1471 	mov	a,#0x02
      00014B 26               [12] 1472 	add	a,@r0
      00014C FA               [12] 1473 	mov	r2,a
      00014D E4               [12] 1474 	clr	a
      00014E 08               [12] 1475 	inc	r0
      00014F 36               [12] 1476 	addc	a,@r0
      000150 FF               [12] 1477 	mov	r7,a
      000151 7E 00            [12] 1478 	mov	r6,#0x00
      000153 C0 04            [24] 1479 	push	ar4
      000155 C0 03            [24] 1480 	push	ar3
      000157 74 08            [12] 1481 	mov	a,#0x08
      000159 C0 E0            [24] 1482 	push	acc
      00015B E4               [12] 1483 	clr	a
      00015C C0 E0            [24] 1484 	push	acc
      00015E E5 81            [12] 1485 	mov	a,sp
      000160 24 F6            [12] 1486 	add	a,#0xf6
      000162 F8               [12] 1487 	mov	r0,a
      000163 E6               [12] 1488 	mov	a,@r0
      000164 C0 E0            [24] 1489 	push	acc
      000166 08               [12] 1490 	inc	r0
      000167 E6               [12] 1491 	mov	a,@r0
      000168 C0 E0            [24] 1492 	push	acc
      00016A 08               [12] 1493 	inc	r0
      00016B E6               [12] 1494 	mov	a,@r0
      00016C C0 E0            [24] 1495 	push	acc
      00016E 8A 82            [24] 1496 	mov	dpl,r2
      000170 8F 83            [24] 1497 	mov	dph,r7
      000172 8E F0            [24] 1498 	mov	b,r6
      000174 78r00            [12] 1499 	mov	r0,#_memcmp
      000176 79s00            [12] 1500 	mov	r1,#(_memcmp >> 8)
      000178 7As00            [12] 1501 	mov	r2,#(_memcmp >> 16)
      00017A 12r00r00         [24] 1502 	lcall	__sdcc_banked_call
      00017D AE 82            [24] 1503 	mov	r6,dpl
      00017F AF 83            [24] 1504 	mov	r7,dph
      000181 E5 81            [12] 1505 	mov	a,sp
      000183 24 FB            [12] 1506 	add	a,#0xfb
      000185 F5 81            [12] 1507 	mov	sp,a
      000187 D0 03            [24] 1508 	pop	ar3
      000189 D0 04            [24] 1509 	pop	ar4
      00018B D0 04            [24] 1510 	pop	ar4
      00018D D0 03            [24] 1511 	pop	ar3
      00018F EE               [12] 1512 	mov	a,r6
      000190 4F               [12] 1513 	orl	a,r7
      000191 70 12            [24] 1514 	jnz	00106$
                                   1515 ;	../../../core/net/sicslowpan.c:381: return &addr_contexts[i];
      000193 A8 81            [24] 1516 	mov	r0,sp
      000195 18               [12] 1517 	dec	r0
      000196 86 06            [24] 1518 	mov	ar6,@r0
      000198 08               [12] 1519 	inc	r0
      000199 86 07            [24] 1520 	mov	ar7,@r0
      00019B 7D 00            [12] 1521 	mov	r5,#0x00
      00019D 8E 82            [24] 1522 	mov	dpl,r6
      00019F 8F 83            [24] 1523 	mov	dph,r7
      0001A1 8D F0            [24] 1524 	mov	b,r5
      0001A3 80 26            [24] 1525 	sjmp	00107$
      0001A5                       1526 00106$:
                                   1527 ;	../../../core/net/sicslowpan.c:378: for(i = 0; i < SICSLOWPAN_CONF_MAX_ADDR_CONTEXTS; i++) {
      0001A5 E5 81            [12] 1528 	mov	a,sp
      0001A7 24 FA            [12] 1529 	add	a,#0xfa
      0001A9 F8               [12] 1530 	mov	r0,a
      0001AA 74 0A            [12] 1531 	mov	a,#0x0a
      0001AC 26               [12] 1532 	add	a,@r0
      0001AD F6               [12] 1533 	mov	@r0,a
      0001AE E4               [12] 1534 	clr	a
      0001AF 08               [12] 1535 	inc	r0
      0001B0 36               [12] 1536 	addc	a,@r0
      0001B1 F6               [12] 1537 	mov	@r0,a
      0001B2 0B               [12] 1538 	inc	r3
      0001B3 BB 00 01         [24] 1539 	cjne	r3,#0x00,00128$
      0001B6 0C               [12] 1540 	inc	r4
      0001B7                       1541 00128$:
      0001B7 C3               [12] 1542 	clr	c
      0001B8 EB               [12] 1543 	mov	a,r3
      0001B9 94 01            [12] 1544 	subb	a,#0x01
      0001BB EC               [12] 1545 	mov	a,r4
      0001BC 64 80            [12] 1546 	xrl	a,#0x80
      0001BE 94 80            [12] 1547 	subb	a,#0x80
      0001C0 50 03            [24] 1548 	jnc	00129$
      0001C2 02r00rFE         [24] 1549 	ljmp	00105$
      0001C5                       1550 00129$:
                                   1551 ;	../../../core/net/sicslowpan.c:385: return NULL;
      0001C5 90 00 00         [24] 1552 	mov	dptr,#0x0000
      0001C8 75 F0 00         [24] 1553 	mov	b,#0x00
      0001CB                       1554 00107$:
                                   1555 ;	../../../core/net/sicslowpan.c:386: }
      0001CB C8               [12] 1556 	xch	a,r0
      0001CC E5 81            [12] 1557 	mov	a,sp
      0001CE 24 F6            [12] 1558 	add	a,#0xf6
      0001D0 F5 81            [12] 1559 	mov	sp,a
      0001D2 C8               [12] 1560 	xch	a,r0
      0001D3 02r00r00         [24] 1561 	ljmp	__sdcc_banked_ret
                                   1562 ;------------------------------------------------------------
                                   1563 ;Allocation info for local variables in function 'addr_context_lookup_by_number'
                                   1564 ;------------------------------------------------------------
                                   1565 ;number                    Allocated to registers r7 
                                   1566 ;i                         Allocated to registers r5 r6 
                                   1567 ;------------------------------------------------------------
                                   1568 ;	../../../core/net/sicslowpan.c:390: addr_context_lookup_by_number(uint8_t number)
                                   1569 ;	-----------------------------------------
                                   1570 ;	 function addr_context_lookup_by_number
                                   1571 ;	-----------------------------------------
      0001D6                       1572 _addr_context_lookup_by_number:
      0001D6 AF 82            [24] 1573 	mov	r7,dpl
                                   1574 ;	../../../core/net/sicslowpan.c:395: for(i = 0; i < SICSLOWPAN_CONF_MAX_ADDR_CONTEXTS; i++) {
      0001D8 7D 00            [12] 1575 	mov	r5,#0x00
      0001DA 7E 00            [12] 1576 	mov	r6,#0x00
      0001DC 7B 00            [12] 1577 	mov	r3,#0x00
      0001DE 7C 00            [12] 1578 	mov	r4,#0x00
      0001E0                       1579 00105$:
                                   1580 ;	../../../core/net/sicslowpan.c:396: if((addr_contexts[i].used == 1) &&
      0001E0 EB               [12] 1581 	mov	a,r3
      0001E1 24r08            [12] 1582 	add	a,#_addr_contexts
      0001E3 F5 82            [12] 1583 	mov	dpl,a
      0001E5 EC               [12] 1584 	mov	a,r4
      0001E6 34s00            [12] 1585 	addc	a,#(_addr_contexts >> 8)
      0001E8 F5 83            [12] 1586 	mov	dph,a
      0001EA E0               [24] 1587 	movx	a,@dptr
      0001EB FA               [12] 1588 	mov	r2,a
      0001EC BA 01 1E         [24] 1589 	cjne	r2,#0x01,00106$
                                   1590 ;	../../../core/net/sicslowpan.c:397: addr_contexts[i].number == number) {
      0001EF EB               [12] 1591 	mov	a,r3
      0001F0 24r08            [12] 1592 	add	a,#_addr_contexts
      0001F2 F9               [12] 1593 	mov	r1,a
      0001F3 EC               [12] 1594 	mov	a,r4
      0001F4 34s00            [12] 1595 	addc	a,#(_addr_contexts >> 8)
      0001F6 FA               [12] 1596 	mov	r2,a
      0001F7 89 82            [24] 1597 	mov	dpl,r1
      0001F9 8A 83            [24] 1598 	mov	dph,r2
      0001FB A3               [24] 1599 	inc	dptr
      0001FC E0               [24] 1600 	movx	a,@dptr
      0001FD F8               [12] 1601 	mov	r0,a
      0001FE B5 07 0C         [24] 1602 	cjne	a,ar7,00106$
                                   1603 ;	../../../core/net/sicslowpan.c:398: return &addr_contexts[i];
      000201 8A 00            [24] 1604 	mov	ar0,r2
      000203 7A 00            [12] 1605 	mov	r2,#0x00
      000205 89 82            [24] 1606 	mov	dpl,r1
      000207 88 83            [24] 1607 	mov	dph,r0
      000209 8A F0            [24] 1608 	mov	b,r2
      00020B 80 1D            [24] 1609 	sjmp	00107$
      00020D                       1610 00106$:
                                   1611 ;	../../../core/net/sicslowpan.c:395: for(i = 0; i < SICSLOWPAN_CONF_MAX_ADDR_CONTEXTS; i++) {
      00020D 74 0A            [12] 1612 	mov	a,#0x0a
      00020F 2B               [12] 1613 	add	a,r3
      000210 FB               [12] 1614 	mov	r3,a
      000211 E4               [12] 1615 	clr	a
      000212 3C               [12] 1616 	addc	a,r4
      000213 FC               [12] 1617 	mov	r4,a
      000214 0D               [12] 1618 	inc	r5
      000215 BD 00 01         [24] 1619 	cjne	r5,#0x00,00129$
      000218 0E               [12] 1620 	inc	r6
      000219                       1621 00129$:
      000219 C3               [12] 1622 	clr	c
      00021A ED               [12] 1623 	mov	a,r5
      00021B 94 01            [12] 1624 	subb	a,#0x01
      00021D EE               [12] 1625 	mov	a,r6
      00021E 64 80            [12] 1626 	xrl	a,#0x80
      000220 94 80            [12] 1627 	subb	a,#0x80
      000222 40 BC            [24] 1628 	jc	00105$
                                   1629 ;	../../../core/net/sicslowpan.c:402: return NULL;
      000224 90 00 00         [24] 1630 	mov	dptr,#0x0000
      000227 75 F0 00         [24] 1631 	mov	b,#0x00
      00022A                       1632 00107$:
                                   1633 ;	../../../core/net/sicslowpan.c:403: }
      00022A 02r00r00         [24] 1634 	ljmp	__sdcc_banked_ret
                                   1635 ;------------------------------------------------------------
                                   1636 ;Allocation info for local variables in function 'compress_addr_64'
                                   1637 ;------------------------------------------------------------
                                   1638 ;ipaddr                    Allocated to stack - sp -14
                                   1639 ;lladdr                    Allocated to stack - sp -17
                                   1640 ;bitpos                    Allocated to stack - sp -8
                                   1641 ;sloc0                     Allocated to stack - sp -7
                                   1642 ;sloc1                     Allocated to stack - sp -4
                                   1643 ;sloc2                     Allocated to stack - sp -1
                                   1644 ;------------------------------------------------------------
                                   1645 ;	../../../core/net/sicslowpan.c:406: compress_addr_64(uint8_t bitpos, uip_ipaddr_t *ipaddr, uip_lladdr_t *lladdr)
                                   1646 ;	-----------------------------------------
                                   1647 ;	 function compress_addr_64
                                   1648 ;	-----------------------------------------
      00022D                       1649 _compress_addr_64:
      00022D C0 82            [24] 1650 	push	dpl
      00022F E5 81            [12] 1651 	mov	a,sp
      000231 24 08            [12] 1652 	add	a,#0x08
                                   1653 ;	../../../core/net/sicslowpan.c:408: if(uip_is_addr_mac_addr_based(ipaddr, lladdr)) {
      000233 F5 81            [12] 1654 	mov	sp,a
      000235 24 F2            [12] 1655 	add	a,#0xf2
      000237 F8               [12] 1656 	mov	r0,a
      000238 86 04            [24] 1657 	mov	ar4,@r0
      00023A 08               [12] 1658 	inc	r0
      00023B 86 05            [24] 1659 	mov	ar5,@r0
      00023D 08               [12] 1660 	inc	r0
      00023E 86 06            [24] 1661 	mov	ar6,@r0
      000240 E5 81            [12] 1662 	mov	a,sp
      000242 24 FC            [12] 1663 	add	a,#0xfc
      000244 F8               [12] 1664 	mov	r0,a
      000245 74 08            [12] 1665 	mov	a,#0x08
      000247 2C               [12] 1666 	add	a,r4
      000248 F6               [12] 1667 	mov	@r0,a
      000249 E4               [12] 1668 	clr	a
      00024A 3D               [12] 1669 	addc	a,r5
      00024B 08               [12] 1670 	inc	r0
      00024C F6               [12] 1671 	mov	@r0,a
      00024D 08               [12] 1672 	inc	r0
      00024E A6 06            [24] 1673 	mov	@r0,ar6
      000250 E5 81            [12] 1674 	mov	a,sp
      000252 24 EF            [12] 1675 	add	a,#0xef
      000254 F8               [12] 1676 	mov	r0,a
      000255 E5 81            [12] 1677 	mov	a,sp
      000257 24 F9            [12] 1678 	add	a,#0xf9
      000259 F9               [12] 1679 	mov	r1,a
      00025A E6               [12] 1680 	mov	a,@r0
      00025B F7               [12] 1681 	mov	@r1,a
      00025C 08               [12] 1682 	inc	r0
      00025D 09               [12] 1683 	inc	r1
      00025E E6               [12] 1684 	mov	a,@r0
      00025F F7               [12] 1685 	mov	@r1,a
      000260 08               [12] 1686 	inc	r0
      000261 09               [12] 1687 	inc	r1
      000262 E6               [12] 1688 	mov	a,@r0
      000263 F7               [12] 1689 	mov	@r1,a
      000264 E5 81            [12] 1690 	mov	a,sp
      000266 24 F9            [12] 1691 	add	a,#0xf9
      000268 F8               [12] 1692 	mov	r0,a
      000269 86 82            [24] 1693 	mov	dpl,@r0
      00026B 08               [12] 1694 	inc	r0
      00026C 86 83            [24] 1695 	mov	dph,@r0
      00026E 08               [12] 1696 	inc	r0
      00026F 86 F0            [24] 1697 	mov	b,@r0
      000271 12r00r00         [24] 1698 	lcall	__gptrget
      000274 FF               [12] 1699 	mov	r7,a
      000275 7B 00            [12] 1700 	mov	r3,#0x00
      000277 A8 81            [24] 1701 	mov	r0,sp
      000279 18               [12] 1702 	dec	r0
      00027A 74 02            [12] 1703 	mov	a,#0x02
      00027C 6F               [12] 1704 	xrl	a,r7
      00027D F6               [12] 1705 	mov	@r0,a
      00027E 08               [12] 1706 	inc	r0
      00027F A6 03            [24] 1707 	mov	@r0,ar3
      000281 E5 81            [12] 1708 	mov	a,sp
      000283 24 FC            [12] 1709 	add	a,#0xfc
      000285 F8               [12] 1710 	mov	r0,a
      000286 86 82            [24] 1711 	mov	dpl,@r0
      000288 08               [12] 1712 	inc	r0
      000289 86 83            [24] 1713 	mov	dph,@r0
      00028B 08               [12] 1714 	inc	r0
      00028C 86 F0            [24] 1715 	mov	b,@r0
      00028E 12r00r00         [24] 1716 	lcall	__gptrget
      000291 FA               [12] 1717 	mov	r2,a
      000292 7F 00            [12] 1718 	mov	r7,#0x00
      000294 A8 81            [24] 1719 	mov	r0,sp
      000296 18               [12] 1720 	dec	r0
      000297 E6               [12] 1721 	mov	a,@r0
      000298 B5 02 07         [24] 1722 	cjne	a,ar2,00172$
      00029B 08               [12] 1723 	inc	r0
      00029C E6               [12] 1724 	mov	a,@r0
      00029D B5 07 02         [24] 1725 	cjne	a,ar7,00172$
      0002A0 80 03            [24] 1726 	sjmp	00173$
      0002A2                       1727 00172$:
      0002A2 02r04rB5         [24] 1728 	ljmp	00109$
      0002A5                       1729 00173$:
      0002A5 74 09            [12] 1730 	mov	a,#0x09
      0002A7 2C               [12] 1731 	add	a,r4
      0002A8 FA               [12] 1732 	mov	r2,a
      0002A9 E4               [12] 1733 	clr	a
      0002AA 3D               [12] 1734 	addc	a,r5
      0002AB FB               [12] 1735 	mov	r3,a
      0002AC 8E 07            [24] 1736 	mov	ar7,r6
      0002AE C0 04            [24] 1737 	push	ar4
      0002B0 C0 05            [24] 1738 	push	ar5
      0002B2 C0 06            [24] 1739 	push	ar6
      0002B4 E5 81            [12] 1740 	mov	a,sp
      0002B6 24 F6            [12] 1741 	add	a,#0xf6
      0002B8 F8               [12] 1742 	mov	r0,a
      0002B9 74 01            [12] 1743 	mov	a,#0x01
      0002BB 26               [12] 1744 	add	a,@r0
      0002BC FC               [12] 1745 	mov	r4,a
      0002BD E4               [12] 1746 	clr	a
      0002BE 08               [12] 1747 	inc	r0
      0002BF 36               [12] 1748 	addc	a,@r0
      0002C0 FD               [12] 1749 	mov	r5,a
      0002C1 08               [12] 1750 	inc	r0
      0002C2 86 06            [24] 1751 	mov	ar6,@r0
      0002C4 8A 82            [24] 1752 	mov	dpl,r2
      0002C6 8B 83            [24] 1753 	mov	dph,r3
      0002C8 8F F0            [24] 1754 	mov	b,r7
      0002CA 12r00r00         [24] 1755 	lcall	__gptrget
      0002CD FA               [12] 1756 	mov	r2,a
      0002CE 8C 82            [24] 1757 	mov	dpl,r4
      0002D0 8D 83            [24] 1758 	mov	dph,r5
      0002D2 8E F0            [24] 1759 	mov	b,r6
      0002D4 12r00r00         [24] 1760 	lcall	__gptrget
      0002D7 FC               [12] 1761 	mov	r4,a
      0002D8 EA               [12] 1762 	mov	a,r2
      0002D9 B5 04 02         [24] 1763 	cjne	a,ar4,00174$
      0002DC 80 09            [24] 1764 	sjmp	00175$
      0002DE                       1765 00174$:
      0002DE D0 06            [24] 1766 	pop	ar6
      0002E0 D0 05            [24] 1767 	pop	ar5
      0002E2 D0 04            [24] 1768 	pop	ar4
      0002E4 02r04rB5         [24] 1769 	ljmp	00109$
      0002E7                       1770 00175$:
      0002E7 D0 06            [24] 1771 	pop	ar6
      0002E9 D0 05            [24] 1772 	pop	ar5
      0002EB D0 04            [24] 1773 	pop	ar4
      0002ED 74 0A            [12] 1774 	mov	a,#0x0a
      0002EF 2C               [12] 1775 	add	a,r4
      0002F0 FA               [12] 1776 	mov	r2,a
      0002F1 E4               [12] 1777 	clr	a
      0002F2 3D               [12] 1778 	addc	a,r5
      0002F3 FB               [12] 1779 	mov	r3,a
      0002F4 8E 07            [24] 1780 	mov	ar7,r6
      0002F6 C0 04            [24] 1781 	push	ar4
      0002F8 C0 05            [24] 1782 	push	ar5
      0002FA C0 06            [24] 1783 	push	ar6
      0002FC E5 81            [12] 1784 	mov	a,sp
      0002FE 24 F6            [12] 1785 	add	a,#0xf6
      000300 F8               [12] 1786 	mov	r0,a
      000301 74 02            [12] 1787 	mov	a,#0x02
      000303 26               [12] 1788 	add	a,@r0
      000304 FC               [12] 1789 	mov	r4,a
      000305 E4               [12] 1790 	clr	a
      000306 08               [12] 1791 	inc	r0
      000307 36               [12] 1792 	addc	a,@r0
      000308 FD               [12] 1793 	mov	r5,a
      000309 08               [12] 1794 	inc	r0
      00030A 86 06            [24] 1795 	mov	ar6,@r0
      00030C 8A 82            [24] 1796 	mov	dpl,r2
      00030E 8B 83            [24] 1797 	mov	dph,r3
      000310 8F F0            [24] 1798 	mov	b,r7
      000312 12r00r00         [24] 1799 	lcall	__gptrget
      000315 FA               [12] 1800 	mov	r2,a
      000316 8C 82            [24] 1801 	mov	dpl,r4
      000318 8D 83            [24] 1802 	mov	dph,r5
      00031A 8E F0            [24] 1803 	mov	b,r6
      00031C 12r00r00         [24] 1804 	lcall	__gptrget
      00031F FC               [12] 1805 	mov	r4,a
      000320 EA               [12] 1806 	mov	a,r2
      000321 B5 04 02         [24] 1807 	cjne	a,ar4,00176$
      000324 80 09            [24] 1808 	sjmp	00177$
      000326                       1809 00176$:
      000326 D0 06            [24] 1810 	pop	ar6
      000328 D0 05            [24] 1811 	pop	ar5
      00032A D0 04            [24] 1812 	pop	ar4
      00032C 02r04rB5         [24] 1813 	ljmp	00109$
      00032F                       1814 00177$:
      00032F D0 06            [24] 1815 	pop	ar6
      000331 D0 05            [24] 1816 	pop	ar5
      000333 D0 04            [24] 1817 	pop	ar4
      000335 74 0B            [12] 1818 	mov	a,#0x0b
      000337 2C               [12] 1819 	add	a,r4
      000338 FA               [12] 1820 	mov	r2,a
      000339 E4               [12] 1821 	clr	a
      00033A 3D               [12] 1822 	addc	a,r5
      00033B FB               [12] 1823 	mov	r3,a
      00033C 8E 07            [24] 1824 	mov	ar7,r6
      00033E C0 04            [24] 1825 	push	ar4
      000340 C0 05            [24] 1826 	push	ar5
      000342 C0 06            [24] 1827 	push	ar6
      000344 E5 81            [12] 1828 	mov	a,sp
      000346 24 F6            [12] 1829 	add	a,#0xf6
      000348 F8               [12] 1830 	mov	r0,a
      000349 74 03            [12] 1831 	mov	a,#0x03
      00034B 26               [12] 1832 	add	a,@r0
      00034C FC               [12] 1833 	mov	r4,a
      00034D E4               [12] 1834 	clr	a
      00034E 08               [12] 1835 	inc	r0
      00034F 36               [12] 1836 	addc	a,@r0
      000350 FD               [12] 1837 	mov	r5,a
      000351 08               [12] 1838 	inc	r0
      000352 86 06            [24] 1839 	mov	ar6,@r0
      000354 8A 82            [24] 1840 	mov	dpl,r2
      000356 8B 83            [24] 1841 	mov	dph,r3
      000358 8F F0            [24] 1842 	mov	b,r7
      00035A 12r00r00         [24] 1843 	lcall	__gptrget
      00035D FA               [12] 1844 	mov	r2,a
      00035E 8C 82            [24] 1845 	mov	dpl,r4
      000360 8D 83            [24] 1846 	mov	dph,r5
      000362 8E F0            [24] 1847 	mov	b,r6
      000364 12r00r00         [24] 1848 	lcall	__gptrget
      000367 FC               [12] 1849 	mov	r4,a
      000368 EA               [12] 1850 	mov	a,r2
      000369 B5 04 02         [24] 1851 	cjne	a,ar4,00178$
      00036C 80 09            [24] 1852 	sjmp	00179$
      00036E                       1853 00178$:
      00036E D0 06            [24] 1854 	pop	ar6
      000370 D0 05            [24] 1855 	pop	ar5
      000372 D0 04            [24] 1856 	pop	ar4
      000374 02r04rB5         [24] 1857 	ljmp	00109$
      000377                       1858 00179$:
      000377 D0 06            [24] 1859 	pop	ar6
      000379 D0 05            [24] 1860 	pop	ar5
      00037B D0 04            [24] 1861 	pop	ar4
      00037D 74 0C            [12] 1862 	mov	a,#0x0c
      00037F 2C               [12] 1863 	add	a,r4
      000380 FA               [12] 1864 	mov	r2,a
      000381 E4               [12] 1865 	clr	a
      000382 3D               [12] 1866 	addc	a,r5
      000383 FB               [12] 1867 	mov	r3,a
      000384 8E 07            [24] 1868 	mov	ar7,r6
      000386 C0 04            [24] 1869 	push	ar4
      000388 C0 05            [24] 1870 	push	ar5
      00038A C0 06            [24] 1871 	push	ar6
      00038C E5 81            [12] 1872 	mov	a,sp
      00038E 24 F6            [12] 1873 	add	a,#0xf6
      000390 F8               [12] 1874 	mov	r0,a
      000391 74 04            [12] 1875 	mov	a,#0x04
      000393 26               [12] 1876 	add	a,@r0
      000394 FC               [12] 1877 	mov	r4,a
      000395 E4               [12] 1878 	clr	a
      000396 08               [12] 1879 	inc	r0
      000397 36               [12] 1880 	addc	a,@r0
      000398 FD               [12] 1881 	mov	r5,a
      000399 08               [12] 1882 	inc	r0
      00039A 86 06            [24] 1883 	mov	ar6,@r0
      00039C 8A 82            [24] 1884 	mov	dpl,r2
      00039E 8B 83            [24] 1885 	mov	dph,r3
      0003A0 8F F0            [24] 1886 	mov	b,r7
      0003A2 12r00r00         [24] 1887 	lcall	__gptrget
      0003A5 FA               [12] 1888 	mov	r2,a
      0003A6 8C 82            [24] 1889 	mov	dpl,r4
      0003A8 8D 83            [24] 1890 	mov	dph,r5
      0003AA 8E F0            [24] 1891 	mov	b,r6
      0003AC 12r00r00         [24] 1892 	lcall	__gptrget
      0003AF FC               [12] 1893 	mov	r4,a
      0003B0 EA               [12] 1894 	mov	a,r2
      0003B1 B5 04 02         [24] 1895 	cjne	a,ar4,00180$
      0003B4 80 09            [24] 1896 	sjmp	00181$
      0003B6                       1897 00180$:
      0003B6 D0 06            [24] 1898 	pop	ar6
      0003B8 D0 05            [24] 1899 	pop	ar5
      0003BA D0 04            [24] 1900 	pop	ar4
      0003BC 02r04rB5         [24] 1901 	ljmp	00109$
      0003BF                       1902 00181$:
      0003BF D0 06            [24] 1903 	pop	ar6
      0003C1 D0 05            [24] 1904 	pop	ar5
      0003C3 D0 04            [24] 1905 	pop	ar4
      0003C5 74 0D            [12] 1906 	mov	a,#0x0d
      0003C7 2C               [12] 1907 	add	a,r4
      0003C8 FA               [12] 1908 	mov	r2,a
      0003C9 E4               [12] 1909 	clr	a
      0003CA 3D               [12] 1910 	addc	a,r5
      0003CB FB               [12] 1911 	mov	r3,a
      0003CC 8E 07            [24] 1912 	mov	ar7,r6
      0003CE C0 04            [24] 1913 	push	ar4
      0003D0 C0 05            [24] 1914 	push	ar5
      0003D2 C0 06            [24] 1915 	push	ar6
      0003D4 E5 81            [12] 1916 	mov	a,sp
      0003D6 24 F6            [12] 1917 	add	a,#0xf6
      0003D8 F8               [12] 1918 	mov	r0,a
      0003D9 74 05            [12] 1919 	mov	a,#0x05
      0003DB 26               [12] 1920 	add	a,@r0
      0003DC FC               [12] 1921 	mov	r4,a
      0003DD E4               [12] 1922 	clr	a
      0003DE 08               [12] 1923 	inc	r0
      0003DF 36               [12] 1924 	addc	a,@r0
      0003E0 FD               [12] 1925 	mov	r5,a
      0003E1 08               [12] 1926 	inc	r0
      0003E2 86 06            [24] 1927 	mov	ar6,@r0
      0003E4 8A 82            [24] 1928 	mov	dpl,r2
      0003E6 8B 83            [24] 1929 	mov	dph,r3
      0003E8 8F F0            [24] 1930 	mov	b,r7
      0003EA 12r00r00         [24] 1931 	lcall	__gptrget
      0003ED FA               [12] 1932 	mov	r2,a
      0003EE 8C 82            [24] 1933 	mov	dpl,r4
      0003F0 8D 83            [24] 1934 	mov	dph,r5
      0003F2 8E F0            [24] 1935 	mov	b,r6
      0003F4 12r00r00         [24] 1936 	lcall	__gptrget
      0003F7 FC               [12] 1937 	mov	r4,a
      0003F8 EA               [12] 1938 	mov	a,r2
      0003F9 B5 04 02         [24] 1939 	cjne	a,ar4,00182$
      0003FC 80 09            [24] 1940 	sjmp	00183$
      0003FE                       1941 00182$:
      0003FE D0 06            [24] 1942 	pop	ar6
      000400 D0 05            [24] 1943 	pop	ar5
      000402 D0 04            [24] 1944 	pop	ar4
      000404 02r04rB5         [24] 1945 	ljmp	00109$
      000407                       1946 00183$:
      000407 D0 06            [24] 1947 	pop	ar6
      000409 D0 05            [24] 1948 	pop	ar5
      00040B D0 04            [24] 1949 	pop	ar4
      00040D 74 0E            [12] 1950 	mov	a,#0x0e
      00040F 2C               [12] 1951 	add	a,r4
      000410 FA               [12] 1952 	mov	r2,a
      000411 E4               [12] 1953 	clr	a
      000412 3D               [12] 1954 	addc	a,r5
      000413 FB               [12] 1955 	mov	r3,a
      000414 8E 07            [24] 1956 	mov	ar7,r6
      000416 C0 04            [24] 1957 	push	ar4
      000418 C0 05            [24] 1958 	push	ar5
      00041A C0 06            [24] 1959 	push	ar6
      00041C E5 81            [12] 1960 	mov	a,sp
      00041E 24 F6            [12] 1961 	add	a,#0xf6
      000420 F8               [12] 1962 	mov	r0,a
      000421 74 06            [12] 1963 	mov	a,#0x06
      000423 26               [12] 1964 	add	a,@r0
      000424 FC               [12] 1965 	mov	r4,a
      000425 E4               [12] 1966 	clr	a
      000426 08               [12] 1967 	inc	r0
      000427 36               [12] 1968 	addc	a,@r0
      000428 FD               [12] 1969 	mov	r5,a
      000429 08               [12] 1970 	inc	r0
      00042A 86 06            [24] 1971 	mov	ar6,@r0
      00042C 8A 82            [24] 1972 	mov	dpl,r2
      00042E 8B 83            [24] 1973 	mov	dph,r3
      000430 8F F0            [24] 1974 	mov	b,r7
      000432 12r00r00         [24] 1975 	lcall	__gptrget
      000435 FA               [12] 1976 	mov	r2,a
      000436 8C 82            [24] 1977 	mov	dpl,r4
      000438 8D 83            [24] 1978 	mov	dph,r5
      00043A 8E F0            [24] 1979 	mov	b,r6
      00043C 12r00r00         [24] 1980 	lcall	__gptrget
      00043F FC               [12] 1981 	mov	r4,a
      000440 EA               [12] 1982 	mov	a,r2
      000441 B5 04 02         [24] 1983 	cjne	a,ar4,00184$
      000444 80 08            [24] 1984 	sjmp	00185$
      000446                       1985 00184$:
      000446 D0 06            [24] 1986 	pop	ar6
      000448 D0 05            [24] 1987 	pop	ar5
      00044A D0 04            [24] 1988 	pop	ar4
      00044C 80 67            [24] 1989 	sjmp	00109$
      00044E                       1990 00185$:
      00044E D0 06            [24] 1991 	pop	ar6
      000450 D0 05            [24] 1992 	pop	ar5
      000452 D0 04            [24] 1993 	pop	ar4
      000454 74 0F            [12] 1994 	mov	a,#0x0f
      000456 2C               [12] 1995 	add	a,r4
      000457 FA               [12] 1996 	mov	r2,a
      000458 E4               [12] 1997 	clr	a
      000459 3D               [12] 1998 	addc	a,r5
      00045A FB               [12] 1999 	mov	r3,a
      00045B 8E 07            [24] 2000 	mov	ar7,r6
      00045D C0 04            [24] 2001 	push	ar4
      00045F C0 05            [24] 2002 	push	ar5
      000461 C0 06            [24] 2003 	push	ar6
      000463 E5 81            [12] 2004 	mov	a,sp
      000465 24 F6            [12] 2005 	add	a,#0xf6
      000467 F8               [12] 2006 	mov	r0,a
      000468 74 07            [12] 2007 	mov	a,#0x07
      00046A 26               [12] 2008 	add	a,@r0
      00046B FC               [12] 2009 	mov	r4,a
      00046C E4               [12] 2010 	clr	a
      00046D 08               [12] 2011 	inc	r0
      00046E 36               [12] 2012 	addc	a,@r0
      00046F FD               [12] 2013 	mov	r5,a
      000470 08               [12] 2014 	inc	r0
      000471 86 06            [24] 2015 	mov	ar6,@r0
      000473 8A 82            [24] 2016 	mov	dpl,r2
      000475 8B 83            [24] 2017 	mov	dph,r3
      000477 8F F0            [24] 2018 	mov	b,r7
      000479 12r00r00         [24] 2019 	lcall	__gptrget
      00047C FA               [12] 2020 	mov	r2,a
      00047D 8C 82            [24] 2021 	mov	dpl,r4
      00047F 8D 83            [24] 2022 	mov	dph,r5
      000481 8E F0            [24] 2023 	mov	b,r6
      000483 12r00r00         [24] 2024 	lcall	__gptrget
      000486 FC               [12] 2025 	mov	r4,a
      000487 EA               [12] 2026 	mov	a,r2
      000488 B5 04 02         [24] 2027 	cjne	a,ar4,00186$
      00048B 80 08            [24] 2028 	sjmp	00187$
      00048D                       2029 00186$:
      00048D D0 06            [24] 2030 	pop	ar6
      00048F D0 05            [24] 2031 	pop	ar5
      000491 D0 04            [24] 2032 	pop	ar4
      000493 80 20            [24] 2033 	sjmp	00109$
      000495                       2034 00187$:
      000495 D0 06            [24] 2035 	pop	ar6
      000497 D0 05            [24] 2036 	pop	ar5
      000499 D0 04            [24] 2037 	pop	ar4
                                   2038 ;	../../../core/net/sicslowpan.c:409: return 3 << bitpos; /* 0-bits */
      00049B E5 81            [12] 2039 	mov	a,sp
      00049D 24 F8            [12] 2040 	add	a,#0xf8
      00049F F8               [12] 2041 	mov	r0,a
      0004A0 86 07            [24] 2042 	mov	ar7,@r0
      0004A2 8F F0            [24] 2043 	mov	b,r7
      0004A4 05 F0            [12] 2044 	inc	b
      0004A6 74 03            [12] 2045 	mov	a,#0x03
      0004A8 80 02            [24] 2046 	sjmp	00190$
      0004AA                       2047 00188$:
      0004AA 25 E0            [12] 2048 	add	a,acc
      0004AC                       2049 00190$:
      0004AC D5 F0 FB         [24] 2050 	djnz	b,00188$
      0004AF FF               [12] 2051 	mov	r7,a
      0004B0 F5 82            [12] 2052 	mov	dpl,a
      0004B2 02r06r12         [24] 2053 	ljmp	00118$
      0004B5                       2054 00109$:
                                   2055 ;	../../../core/net/sicslowpan.c:410: } else if(sicslowpan_is_iid_16_bit_compressable(ipaddr)) {
      0004B5 E5 81            [12] 2056 	mov	a,sp
      0004B7 24 FC            [12] 2057 	add	a,#0xfc
      0004B9 F8               [12] 2058 	mov	r0,a
      0004BA 74 08            [12] 2059 	mov	a,#0x08
      0004BC 2C               [12] 2060 	add	a,r4
      0004BD F6               [12] 2061 	mov	@r0,a
      0004BE E4               [12] 2062 	clr	a
      0004BF 3D               [12] 2063 	addc	a,r5
      0004C0 08               [12] 2064 	inc	r0
      0004C1 F6               [12] 2065 	mov	@r0,a
      0004C2 08               [12] 2066 	inc	r0
      0004C3 A6 06            [24] 2067 	mov	@r0,ar6
      0004C5 E5 81            [12] 2068 	mov	a,sp
      0004C7 24 FC            [12] 2069 	add	a,#0xfc
      0004C9 F8               [12] 2070 	mov	r0,a
      0004CA 86 82            [24] 2071 	mov	dpl,@r0
      0004CC 08               [12] 2072 	inc	r0
      0004CD 86 83            [24] 2073 	mov	dph,@r0
      0004CF 08               [12] 2074 	inc	r0
      0004D0 86 F0            [24] 2075 	mov	b,@r0
      0004D2 12r00r00         [24] 2076 	lcall	__gptrget
      0004D5 FB               [12] 2077 	mov	r3,a
      0004D6 A3               [24] 2078 	inc	dptr
      0004D7 12r00r00         [24] 2079 	lcall	__gptrget
      0004DA FF               [12] 2080 	mov	r7,a
      0004DB 4B               [12] 2081 	orl	a,r3
      0004DC 60 03            [24] 2082 	jz	00191$
      0004DE 02r05rA8         [24] 2083 	ljmp	00102$
      0004E1                       2084 00191$:
      0004E1 74 0A            [12] 2085 	mov	a,#0x0a
      0004E3 2C               [12] 2086 	add	a,r4
      0004E4 FA               [12] 2087 	mov	r2,a
      0004E5 E4               [12] 2088 	clr	a
      0004E6 3D               [12] 2089 	addc	a,r5
      0004E7 FB               [12] 2090 	mov	r3,a
      0004E8 8E 07            [24] 2091 	mov	ar7,r6
      0004EA 8A 82            [24] 2092 	mov	dpl,r2
      0004EC 8B 83            [24] 2093 	mov	dph,r3
      0004EE 8F F0            [24] 2094 	mov	b,r7
      0004F0 12r00r00         [24] 2095 	lcall	__gptrget
      0004F3 60 03            [24] 2096 	jz	00192$
      0004F5 02r05rA8         [24] 2097 	ljmp	00102$
      0004F8                       2098 00192$:
      0004F8 74 0B            [12] 2099 	mov	a,#0x0b
      0004FA 2C               [12] 2100 	add	a,r4
      0004FB FA               [12] 2101 	mov	r2,a
      0004FC E4               [12] 2102 	clr	a
      0004FD 3D               [12] 2103 	addc	a,r5
      0004FE FB               [12] 2104 	mov	r3,a
      0004FF 8E 07            [24] 2105 	mov	ar7,r6
      000501 8A 82            [24] 2106 	mov	dpl,r2
      000503 8B 83            [24] 2107 	mov	dph,r3
      000505 8F F0            [24] 2108 	mov	b,r7
      000507 12r00r00         [24] 2109 	lcall	__gptrget
      00050A FA               [12] 2110 	mov	r2,a
      00050B BA FF 02         [24] 2111 	cjne	r2,#0xff,00193$
      00050E 80 03            [24] 2112 	sjmp	00194$
      000510                       2113 00193$:
      000510 02r05rA8         [24] 2114 	ljmp	00102$
      000513                       2115 00194$:
      000513 74 0C            [12] 2116 	mov	a,#0x0c
      000515 2C               [12] 2117 	add	a,r4
      000516 FA               [12] 2118 	mov	r2,a
      000517 E4               [12] 2119 	clr	a
      000518 3D               [12] 2120 	addc	a,r5
      000519 FB               [12] 2121 	mov	r3,a
      00051A 8E 07            [24] 2122 	mov	ar7,r6
      00051C 8A 82            [24] 2123 	mov	dpl,r2
      00051E 8B 83            [24] 2124 	mov	dph,r3
      000520 8F F0            [24] 2125 	mov	b,r7
      000522 12r00r00         [24] 2126 	lcall	__gptrget
      000525 FA               [12] 2127 	mov	r2,a
      000526 BA FE 02         [24] 2128 	cjne	r2,#0xfe,00195$
      000529 80 03            [24] 2129 	sjmp	00196$
      00052B                       2130 00195$:
      00052B 02r05rA8         [24] 2131 	ljmp	00102$
      00052E                       2132 00196$:
      00052E 74 0D            [12] 2133 	mov	a,#0x0d
      000530 2C               [12] 2134 	add	a,r4
      000531 FA               [12] 2135 	mov	r2,a
      000532 E4               [12] 2136 	clr	a
      000533 3D               [12] 2137 	addc	a,r5
      000534 FB               [12] 2138 	mov	r3,a
      000535 8E 07            [24] 2139 	mov	ar7,r6
      000537 8A 82            [24] 2140 	mov	dpl,r2
      000539 8B 83            [24] 2141 	mov	dph,r3
      00053B 8F F0            [24] 2142 	mov	b,r7
      00053D 12r00r00         [24] 2143 	lcall	__gptrget
      000540 70 66            [24] 2144 	jnz	00102$
                                   2145 ;	../../../core/net/sicslowpan.c:412: memcpy(hc06_ptr, &ipaddr->u16[7], 2);
      000542 74 0E            [12] 2146 	mov	a,#0x0e
      000544 2C               [12] 2147 	add	a,r4
      000545 FC               [12] 2148 	mov	r4,a
      000546 E4               [12] 2149 	clr	a
      000547 3D               [12] 2150 	addc	a,r5
      000548 FD               [12] 2151 	mov	r5,a
      000549 90r00r15         [24] 2152 	mov	dptr,#_hc06_ptr
      00054C E0               [24] 2153 	movx	a,@dptr
      00054D FA               [12] 2154 	mov	r2,a
      00054E A3               [24] 2155 	inc	dptr
      00054F E0               [24] 2156 	movx	a,@dptr
      000550 FB               [12] 2157 	mov	r3,a
      000551 A3               [24] 2158 	inc	dptr
      000552 E0               [24] 2159 	movx	a,@dptr
      000553 FF               [12] 2160 	mov	r7,a
      000554 74 02            [12] 2161 	mov	a,#0x02
      000556 C0 E0            [24] 2162 	push	acc
      000558 E4               [12] 2163 	clr	a
      000559 C0 E0            [24] 2164 	push	acc
      00055B C0 04            [24] 2165 	push	ar4
      00055D C0 05            [24] 2166 	push	ar5
      00055F C0 06            [24] 2167 	push	ar6
      000561 8A 82            [24] 2168 	mov	dpl,r2
      000563 8B 83            [24] 2169 	mov	dph,r3
      000565 8F F0            [24] 2170 	mov	b,r7
      000567 78r00            [12] 2171 	mov	r0,#___memcpy
      000569 79s00            [12] 2172 	mov	r1,#(___memcpy >> 8)
      00056B 7As00            [12] 2173 	mov	r2,#(___memcpy >> 16)
      00056D 12r00r00         [24] 2174 	lcall	__sdcc_banked_call
      000570 E5 81            [12] 2175 	mov	a,sp
      000572 24 FB            [12] 2176 	add	a,#0xfb
      000574 F5 81            [12] 2177 	mov	sp,a
                                   2178 ;	../../../core/net/sicslowpan.c:413: hc06_ptr += 2;
      000576 90r00r15         [24] 2179 	mov	dptr,#_hc06_ptr
      000579 E0               [24] 2180 	movx	a,@dptr
      00057A FD               [12] 2181 	mov	r5,a
      00057B A3               [24] 2182 	inc	dptr
      00057C E0               [24] 2183 	movx	a,@dptr
      00057D FE               [12] 2184 	mov	r6,a
      00057E A3               [24] 2185 	inc	dptr
      00057F E0               [24] 2186 	movx	a,@dptr
      000580 FF               [12] 2187 	mov	r7,a
      000581 90r00r15         [24] 2188 	mov	dptr,#_hc06_ptr
      000584 74 02            [12] 2189 	mov	a,#0x02
      000586 2D               [12] 2190 	add	a,r5
      000587 F0               [24] 2191 	movx	@dptr,a
      000588 E4               [12] 2192 	clr	a
      000589 3E               [12] 2193 	addc	a,r6
      00058A A3               [24] 2194 	inc	dptr
      00058B F0               [24] 2195 	movx	@dptr,a
      00058C EF               [12] 2196 	mov	a,r7
      00058D A3               [24] 2197 	inc	dptr
      00058E F0               [24] 2198 	movx	@dptr,a
                                   2199 ;	../../../core/net/sicslowpan.c:414: return 2 << bitpos; /* 16-bits */
      00058F E5 81            [12] 2200 	mov	a,sp
      000591 24 F8            [12] 2201 	add	a,#0xf8
      000593 F8               [12] 2202 	mov	r0,a
      000594 86 07            [24] 2203 	mov	ar7,@r0
      000596 8F F0            [24] 2204 	mov	b,r7
      000598 05 F0            [12] 2205 	inc	b
      00059A 74 02            [12] 2206 	mov	a,#0x02
      00059C 80 02            [24] 2207 	sjmp	00200$
      00059E                       2208 00198$:
      00059E 25 E0            [12] 2209 	add	a,acc
      0005A0                       2210 00200$:
      0005A0 D5 F0 FB         [24] 2211 	djnz	b,00198$
      0005A3 FF               [12] 2212 	mov	r7,a
      0005A4 F5 82            [12] 2213 	mov	dpl,a
      0005A6 80 6A            [24] 2214 	sjmp	00118$
      0005A8                       2215 00102$:
                                   2216 ;	../../../core/net/sicslowpan.c:417: memcpy(hc06_ptr, &ipaddr->u16[4], 8);
      0005A8 E5 81            [12] 2217 	mov	a,sp
      0005AA 24 FC            [12] 2218 	add	a,#0xfc
      0005AC F8               [12] 2219 	mov	r0,a
      0005AD 86 05            [24] 2220 	mov	ar5,@r0
      0005AF 08               [12] 2221 	inc	r0
      0005B0 86 06            [24] 2222 	mov	ar6,@r0
      0005B2 08               [12] 2223 	inc	r0
      0005B3 86 07            [24] 2224 	mov	ar7,@r0
      0005B5 90r00r15         [24] 2225 	mov	dptr,#_hc06_ptr
      0005B8 E0               [24] 2226 	movx	a,@dptr
      0005B9 FA               [12] 2227 	mov	r2,a
      0005BA A3               [24] 2228 	inc	dptr
      0005BB E0               [24] 2229 	movx	a,@dptr
      0005BC FB               [12] 2230 	mov	r3,a
      0005BD A3               [24] 2231 	inc	dptr
      0005BE E0               [24] 2232 	movx	a,@dptr
      0005BF FC               [12] 2233 	mov	r4,a
      0005C0 74 08            [12] 2234 	mov	a,#0x08
      0005C2 C0 E0            [24] 2235 	push	acc
      0005C4 E4               [12] 2236 	clr	a
      0005C5 C0 E0            [24] 2237 	push	acc
      0005C7 C0 05            [24] 2238 	push	ar5
      0005C9 C0 06            [24] 2239 	push	ar6
      0005CB C0 07            [24] 2240 	push	ar7
      0005CD 8A 82            [24] 2241 	mov	dpl,r2
      0005CF 8B 83            [24] 2242 	mov	dph,r3
      0005D1 8C F0            [24] 2243 	mov	b,r4
      0005D3 78r00            [12] 2244 	mov	r0,#___memcpy
      0005D5 79s00            [12] 2245 	mov	r1,#(___memcpy >> 8)
      0005D7 7As00            [12] 2246 	mov	r2,#(___memcpy >> 16)
      0005D9 12r00r00         [24] 2247 	lcall	__sdcc_banked_call
      0005DC E5 81            [12] 2248 	mov	a,sp
      0005DE 24 FB            [12] 2249 	add	a,#0xfb
      0005E0 F5 81            [12] 2250 	mov	sp,a
                                   2251 ;	../../../core/net/sicslowpan.c:418: hc06_ptr += 8;
      0005E2 90r00r15         [24] 2252 	mov	dptr,#_hc06_ptr
      0005E5 E0               [24] 2253 	movx	a,@dptr
      0005E6 FD               [12] 2254 	mov	r5,a
      0005E7 A3               [24] 2255 	inc	dptr
      0005E8 E0               [24] 2256 	movx	a,@dptr
      0005E9 FE               [12] 2257 	mov	r6,a
      0005EA A3               [24] 2258 	inc	dptr
      0005EB E0               [24] 2259 	movx	a,@dptr
      0005EC FF               [12] 2260 	mov	r7,a
      0005ED 90r00r15         [24] 2261 	mov	dptr,#_hc06_ptr
      0005F0 74 08            [12] 2262 	mov	a,#0x08
      0005F2 2D               [12] 2263 	add	a,r5
      0005F3 F0               [24] 2264 	movx	@dptr,a
      0005F4 E4               [12] 2265 	clr	a
      0005F5 3E               [12] 2266 	addc	a,r6
      0005F6 A3               [24] 2267 	inc	dptr
      0005F7 F0               [24] 2268 	movx	@dptr,a
      0005F8 EF               [12] 2269 	mov	a,r7
      0005F9 A3               [24] 2270 	inc	dptr
      0005FA F0               [24] 2271 	movx	@dptr,a
                                   2272 ;	../../../core/net/sicslowpan.c:419: return 1 << bitpos; /* 64-bits */
      0005FB E5 81            [12] 2273 	mov	a,sp
      0005FD 24 F8            [12] 2274 	add	a,#0xf8
      0005FF F8               [12] 2275 	mov	r0,a
      000600 86 07            [24] 2276 	mov	ar7,@r0
      000602 8F F0            [24] 2277 	mov	b,r7
      000604 05 F0            [12] 2278 	inc	b
      000606 74 01            [12] 2279 	mov	a,#0x01
      000608 80 02            [24] 2280 	sjmp	00203$
      00060A                       2281 00201$:
      00060A 25 E0            [12] 2282 	add	a,acc
      00060C                       2283 00203$:
      00060C D5 F0 FB         [24] 2284 	djnz	b,00201$
      00060F FF               [12] 2285 	mov	r7,a
      000610 F5 82            [12] 2286 	mov	dpl,a
      000612                       2287 00118$:
                                   2288 ;	../../../core/net/sicslowpan.c:421: }
      000612 E5 81            [12] 2289 	mov	a,sp
      000614 24 F7            [12] 2290 	add	a,#0xf7
      000616 F5 81            [12] 2291 	mov	sp,a
      000618 02r00r00         [24] 2292 	ljmp	__sdcc_banked_ret
                                   2293 ;------------------------------------------------------------
                                   2294 ;Allocation info for local variables in function 'uncompress_addr'
                                   2295 ;------------------------------------------------------------
                                   2296 ;prefix                    Allocated to stack - sp -12
                                   2297 ;pref_post_count           Allocated to stack - sp -13
                                   2298 ;lladdr                    Allocated to stack - sp -16
                                   2299 ;ipaddr                    Allocated to stack - sp -6
                                   2300 ;prefcount                 Allocated to stack - sp +0
                                   2301 ;postcount                 Allocated to stack - sp -1
                                   2302 ;sloc0                     Allocated to stack - sp -3
                                   2303 ;------------------------------------------------------------
                                   2304 ;	../../../core/net/sicslowpan.c:431: uncompress_addr(uip_ipaddr_t *ipaddr, uint8_t const prefix[],
                                   2305 ;	-----------------------------------------
                                   2306 ;	 function uncompress_addr
                                   2307 ;	-----------------------------------------
      00061B                       2308 _uncompress_addr:
      00061B C0 82            [24] 2309 	push	dpl
      00061D C0 83            [24] 2310 	push	dph
      00061F C0 F0            [24] 2311 	push	b
      000621 E5 81            [12] 2312 	mov	a,sp
      000623 24 04            [12] 2313 	add	a,#0x04
                                   2314 ;	../../../core/net/sicslowpan.c:434: uint8_t prefcount = pref_post_count >> 4;
      000625 F5 81            [12] 2315 	mov	sp,a
      000627 24 F3            [12] 2316 	add	a,#0xf3
      000629 F8               [12] 2317 	mov	r0,a
      00062A E6               [12] 2318 	mov	a,@r0
      00062B C4               [12] 2319 	swap	a
      00062C 54 0F            [12] 2320 	anl	a,#0x0f
      00062E FC               [12] 2321 	mov	r4,a
                                   2322 ;	../../../core/net/sicslowpan.c:435: uint8_t postcount = pref_post_count & 0x0f;
      00062F E5 81            [12] 2323 	mov	a,sp
      000631 24 F3            [12] 2324 	add	a,#0xf3
      000633 F8               [12] 2325 	mov	r0,a
      000634 86 03            [24] 2326 	mov	ar3,@r0
      000636 53 03 0F         [24] 2327 	anl	ar3,#0x0f
                                   2328 ;	../../../core/net/sicslowpan.c:437: prefcount = prefcount == 15 ? 16 : prefcount;
      000639 BC 0F 06         [24] 2329 	cjne	r4,#0x0f,00115$
      00063C 7F 10            [12] 2330 	mov	r7,#0x10
      00063E 7E 00            [12] 2331 	mov	r6,#0x00
      000640 80 04            [24] 2332 	sjmp	00116$
      000642                       2333 00115$:
      000642 8C 07            [24] 2334 	mov	ar7,r4
      000644 7E 00            [12] 2335 	mov	r6,#0x00
      000646                       2336 00116$:
      000646 A8 81            [24] 2337 	mov	r0,sp
      000648 A6 07            [24] 2338 	mov	@r0,ar7
                                   2339 ;	../../../core/net/sicslowpan.c:438: postcount = postcount == 15 ? 16 : postcount;
      00064A BB 0F 06         [24] 2340 	cjne	r3,#0x0f,00117$
      00064D 7A 10            [12] 2341 	mov	r2,#0x10
      00064F 7C 00            [12] 2342 	mov	r4,#0x00
      000651 80 04            [24] 2343 	sjmp	00118$
      000653                       2344 00117$:
      000653 8B 02            [24] 2345 	mov	ar2,r3
      000655 7C 00            [12] 2346 	mov	r4,#0x00
      000657                       2347 00118$:
      000657 A8 81            [24] 2348 	mov	r0,sp
      000659 18               [12] 2349 	dec	r0
      00065A A6 02            [24] 2350 	mov	@r0,ar2
                                   2351 ;	../../../core/net/sicslowpan.c:442: if(prefcount > 0) {
      00065C A8 81            [24] 2352 	mov	r0,sp
      00065E E6               [12] 2353 	mov	a,@r0
      00065F 60 4C            [24] 2354 	jz	00102$
                                   2355 ;	../../../core/net/sicslowpan.c:443: memcpy(ipaddr, prefix, prefcount);
      000661 E5 81            [12] 2356 	mov	a,sp
      000663 F8               [12] 2357 	mov	r0,a
      000664 24 FD            [12] 2358 	add	a,#0xfd
      000666 F9               [12] 2359 	mov	r1,a
      000667 E6               [12] 2360 	mov	a,@r0
      000668 F7               [12] 2361 	mov	@r1,a
      000669 09               [12] 2362 	inc	r1
      00066A 77 00            [12] 2363 	mov	@r1,#0x00
      00066C E5 81            [12] 2364 	mov	a,sp
      00066E 24 F4            [12] 2365 	add	a,#0xf4
      000670 F8               [12] 2366 	mov	r0,a
      000671 86 02            [24] 2367 	mov	ar2,@r0
      000673 08               [12] 2368 	inc	r0
      000674 86 06            [24] 2369 	mov	ar6,@r0
      000676 08               [12] 2370 	inc	r0
      000677 86 07            [24] 2371 	mov	ar7,@r0
      000679 E5 81            [12] 2372 	mov	a,sp
      00067B 24 FA            [12] 2373 	add	a,#0xfa
      00067D F8               [12] 2374 	mov	r0,a
      00067E 86 03            [24] 2375 	mov	ar3,@r0
      000680 08               [12] 2376 	inc	r0
      000681 86 04            [24] 2377 	mov	ar4,@r0
      000683 08               [12] 2378 	inc	r0
      000684 86 05            [24] 2379 	mov	ar5,@r0
      000686 E5 81            [12] 2380 	mov	a,sp
      000688 24 FD            [12] 2381 	add	a,#0xfd
      00068A F8               [12] 2382 	mov	r0,a
      00068B E6               [12] 2383 	mov	a,@r0
      00068C C0 E0            [24] 2384 	push	acc
      00068E 08               [12] 2385 	inc	r0
      00068F E6               [12] 2386 	mov	a,@r0
      000690 C0 E0            [24] 2387 	push	acc
      000692 C0 02            [24] 2388 	push	ar2
      000694 C0 06            [24] 2389 	push	ar6
      000696 C0 07            [24] 2390 	push	ar7
      000698 8B 82            [24] 2391 	mov	dpl,r3
      00069A 8C 83            [24] 2392 	mov	dph,r4
      00069C 8D F0            [24] 2393 	mov	b,r5
      00069E 78r00            [12] 2394 	mov	r0,#___memcpy
      0006A0 79s00            [12] 2395 	mov	r1,#(___memcpy >> 8)
      0006A2 7As00            [12] 2396 	mov	r2,#(___memcpy >> 16)
      0006A4 12r00r00         [24] 2397 	lcall	__sdcc_banked_call
      0006A7 E5 81            [12] 2398 	mov	a,sp
      0006A9 24 FB            [12] 2399 	add	a,#0xfb
      0006AB F5 81            [12] 2400 	mov	sp,a
                                   2401 ;	../../../core/net/sicslowpan.c:458: uip_ds6_set_addr_iid(ipaddr, lladdr);
                                   2402 ;	../../../core/net/sicslowpan.c:443: memcpy(ipaddr, prefix, prefcount);
      0006AD                       2403 00102$:
                                   2404 ;	../../../core/net/sicslowpan.c:445: if(prefcount + postcount < 16) {
      0006AD A8 81            [24] 2405 	mov	r0,sp
      0006AF 86 04            [24] 2406 	mov	ar4,@r0
      0006B1 7F 00            [12] 2407 	mov	r7,#0x00
      0006B3 A8 81            [24] 2408 	mov	r0,sp
      0006B5 18               [12] 2409 	dec	r0
      0006B6 86 05            [24] 2410 	mov	ar5,@r0
      0006B8 7E 00            [12] 2411 	mov	r6,#0x00
      0006BA ED               [12] 2412 	mov	a,r5
      0006BB 2C               [12] 2413 	add	a,r4
      0006BC FA               [12] 2414 	mov	r2,a
      0006BD EE               [12] 2415 	mov	a,r6
      0006BE 3F               [12] 2416 	addc	a,r7
      0006BF FB               [12] 2417 	mov	r3,a
      0006C0 C3               [12] 2418 	clr	c
      0006C1 EA               [12] 2419 	mov	a,r2
      0006C2 94 10            [12] 2420 	subb	a,#0x10
      0006C4 EB               [12] 2421 	mov	a,r3
      0006C5 64 80            [12] 2422 	xrl	a,#0x80
      0006C7 94 80            [12] 2423 	subb	a,#0x80
      0006C9 50 3B            [24] 2424 	jnc	00104$
                                   2425 ;	../../../core/net/sicslowpan.c:446: memset(&ipaddr->u8[prefcount], 0, 16 - (prefcount + postcount));
      0006CB ED               [12] 2426 	mov	a,r5
      0006CC 2C               [12] 2427 	add	a,r4
      0006CD FC               [12] 2428 	mov	r4,a
      0006CE EE               [12] 2429 	mov	a,r6
      0006CF 3F               [12] 2430 	addc	a,r7
      0006D0 FF               [12] 2431 	mov	r7,a
      0006D1 74 10            [12] 2432 	mov	a,#0x10
      0006D3 C3               [12] 2433 	clr	c
      0006D4 9C               [12] 2434 	subb	a,r4
      0006D5 FC               [12] 2435 	mov	r4,a
      0006D6 E4               [12] 2436 	clr	a
      0006D7 9F               [12] 2437 	subb	a,r7
      0006D8 FF               [12] 2438 	mov	r7,a
      0006D9 E5 81            [12] 2439 	mov	a,sp
      0006DB 24 FA            [12] 2440 	add	a,#0xfa
      0006DD F8               [12] 2441 	mov	r0,a
      0006DE A9 81            [24] 2442 	mov	r1,sp
      0006E0 E7               [12] 2443 	mov	a,@r1
      0006E1 26               [12] 2444 	add	a,@r0
      0006E2 FB               [12] 2445 	mov	r3,a
      0006E3 E4               [12] 2446 	clr	a
      0006E4 08               [12] 2447 	inc	r0
      0006E5 36               [12] 2448 	addc	a,@r0
      0006E6 FD               [12] 2449 	mov	r5,a
      0006E7 08               [12] 2450 	inc	r0
      0006E8 86 06            [24] 2451 	mov	ar6,@r0
      0006EA C0 04            [24] 2452 	push	ar4
      0006EC C0 07            [24] 2453 	push	ar7
      0006EE E4               [12] 2454 	clr	a
      0006EF C0 E0            [24] 2455 	push	acc
      0006F1 8B 82            [24] 2456 	mov	dpl,r3
      0006F3 8D 83            [24] 2457 	mov	dph,r5
      0006F5 8E F0            [24] 2458 	mov	b,r6
      0006F7 78r00            [12] 2459 	mov	r0,#_memset
      0006F9 79s00            [12] 2460 	mov	r1,#(_memset >> 8)
      0006FB 7As00            [12] 2461 	mov	r2,#(_memset >> 16)
      0006FD 12r00r00         [24] 2462 	lcall	__sdcc_banked_call
      000700 15 81            [12] 2463 	dec	sp
      000702 15 81            [12] 2464 	dec	sp
      000704 15 81            [12] 2465 	dec	sp
      000706                       2466 00104$:
                                   2467 ;	../../../core/net/sicslowpan.c:448: if(postcount > 0) {
      000706 A8 81            [24] 2468 	mov	r0,sp
      000708 18               [12] 2469 	dec	r0
      000709 E6               [12] 2470 	mov	a,@r0
      00070A 70 03            [24] 2471 	jnz	00165$
      00070C 02r07rC7         [24] 2472 	ljmp	00111$
      00070F                       2473 00165$:
                                   2474 ;	../../../core/net/sicslowpan.c:449: memcpy(&ipaddr->u8[16 - postcount], hc06_ptr, postcount);
      00070F A8 81            [24] 2475 	mov	r0,sp
      000711 18               [12] 2476 	dec	r0
      000712 E5 81            [12] 2477 	mov	a,sp
      000714 24 FD            [12] 2478 	add	a,#0xfd
      000716 F9               [12] 2479 	mov	r1,a
      000717 E6               [12] 2480 	mov	a,@r0
      000718 F7               [12] 2481 	mov	@r1,a
      000719 09               [12] 2482 	inc	r1
      00071A 77 00            [12] 2483 	mov	@r1,#0x00
      00071C 90r00r15         [24] 2484 	mov	dptr,#_hc06_ptr
      00071F E0               [24] 2485 	movx	a,@dptr
      000720 FB               [12] 2486 	mov	r3,a
      000721 A3               [24] 2487 	inc	dptr
      000722 E0               [24] 2488 	movx	a,@dptr
      000723 FC               [12] 2489 	mov	r4,a
      000724 A3               [24] 2490 	inc	dptr
      000725 E0               [24] 2491 	movx	a,@dptr
      000726 FD               [12] 2492 	mov	r5,a
      000727 A8 81            [24] 2493 	mov	r0,sp
      000729 18               [12] 2494 	dec	r0
      00072A 86 02            [24] 2495 	mov	ar2,@r0
      00072C 74 10            [12] 2496 	mov	a,#0x10
      00072E C3               [12] 2497 	clr	c
      00072F 9A               [12] 2498 	subb	a,r2
      000730 FA               [12] 2499 	mov	r2,a
      000731 E5 81            [12] 2500 	mov	a,sp
      000733 24 FA            [12] 2501 	add	a,#0xfa
      000735 F8               [12] 2502 	mov	r0,a
      000736 EA               [12] 2503 	mov	a,r2
      000737 26               [12] 2504 	add	a,@r0
      000738 FA               [12] 2505 	mov	r2,a
      000739 E4               [12] 2506 	clr	a
      00073A 08               [12] 2507 	inc	r0
      00073B 36               [12] 2508 	addc	a,@r0
      00073C FE               [12] 2509 	mov	r6,a
      00073D 08               [12] 2510 	inc	r0
      00073E 86 07            [24] 2511 	mov	ar7,@r0
      000740 E5 81            [12] 2512 	mov	a,sp
      000742 24 FD            [12] 2513 	add	a,#0xfd
      000744 F8               [12] 2514 	mov	r0,a
      000745 E6               [12] 2515 	mov	a,@r0
      000746 C0 E0            [24] 2516 	push	acc
      000748 08               [12] 2517 	inc	r0
      000749 E6               [12] 2518 	mov	a,@r0
      00074A C0 E0            [24] 2519 	push	acc
      00074C C0 03            [24] 2520 	push	ar3
      00074E C0 04            [24] 2521 	push	ar4
      000750 C0 05            [24] 2522 	push	ar5
      000752 8A 82            [24] 2523 	mov	dpl,r2
      000754 8E 83            [24] 2524 	mov	dph,r6
      000756 8F F0            [24] 2525 	mov	b,r7
      000758 78r00            [12] 2526 	mov	r0,#___memcpy
      00075A 79s00            [12] 2527 	mov	r1,#(___memcpy >> 8)
      00075C 7As00            [12] 2528 	mov	r2,#(___memcpy >> 16)
      00075E 12r00r00         [24] 2529 	lcall	__sdcc_banked_call
      000761 E5 81            [12] 2530 	mov	a,sp
      000763 24 FB            [12] 2531 	add	a,#0xfb
      000765 F5 81            [12] 2532 	mov	sp,a
                                   2533 ;	../../../core/net/sicslowpan.c:450: if(postcount == 2 && prefcount < 11) {
      000767 A8 81            [24] 2534 	mov	r0,sp
      000769 18               [12] 2535 	dec	r0
      00076A B6 02 3D         [24] 2536 	cjne	@r0,#0x02,00106$
      00076D A8 81            [24] 2537 	mov	r0,sp
      00076F B6 0B 00         [24] 2538 	cjne	@r0,#0x0b,00168$
      000772                       2539 00168$:
      000772 50 36            [24] 2540 	jnc	00106$
                                   2541 ;	../../../core/net/sicslowpan.c:452: ipaddr->u8[11] = 0xff;
      000774 E5 81            [12] 2542 	mov	a,sp
      000776 24 FA            [12] 2543 	add	a,#0xfa
      000778 F8               [12] 2544 	mov	r0,a
      000779 74 0B            [12] 2545 	mov	a,#0x0b
      00077B 26               [12] 2546 	add	a,@r0
      00077C FD               [12] 2547 	mov	r5,a
      00077D E4               [12] 2548 	clr	a
      00077E 08               [12] 2549 	inc	r0
      00077F 36               [12] 2550 	addc	a,@r0
      000780 FE               [12] 2551 	mov	r6,a
      000781 08               [12] 2552 	inc	r0
      000782 86 07            [24] 2553 	mov	ar7,@r0
      000784 8D 82            [24] 2554 	mov	dpl,r5
      000786 8E 83            [24] 2555 	mov	dph,r6
      000788 8F F0            [24] 2556 	mov	b,r7
      00078A 74 FF            [12] 2557 	mov	a,#0xff
      00078C 12r00r00         [24] 2558 	lcall	__gptrput
                                   2559 ;	../../../core/net/sicslowpan.c:453: ipaddr->u8[12] = 0xfe;
      00078F E5 81            [12] 2560 	mov	a,sp
      000791 24 FA            [12] 2561 	add	a,#0xfa
      000793 F8               [12] 2562 	mov	r0,a
      000794 74 0C            [12] 2563 	mov	a,#0x0c
      000796 26               [12] 2564 	add	a,@r0
      000797 FD               [12] 2565 	mov	r5,a
      000798 E4               [12] 2566 	clr	a
      000799 08               [12] 2567 	inc	r0
      00079A 36               [12] 2568 	addc	a,@r0
      00079B FE               [12] 2569 	mov	r6,a
      00079C 08               [12] 2570 	inc	r0
      00079D 86 07            [24] 2571 	mov	ar7,@r0
      00079F 8D 82            [24] 2572 	mov	dpl,r5
      0007A1 8E 83            [24] 2573 	mov	dph,r6
      0007A3 8F F0            [24] 2574 	mov	b,r7
      0007A5 74 FE            [12] 2575 	mov	a,#0xfe
      0007A7 12r00r00         [24] 2576 	lcall	__gptrput
      0007AA                       2577 00106$:
                                   2578 ;	../../../core/net/sicslowpan.c:455: hc06_ptr += postcount;
      0007AA 90r00r15         [24] 2579 	mov	dptr,#_hc06_ptr
      0007AD E0               [24] 2580 	movx	a,@dptr
      0007AE FD               [12] 2581 	mov	r5,a
      0007AF A3               [24] 2582 	inc	dptr
      0007B0 E0               [24] 2583 	movx	a,@dptr
      0007B1 FE               [12] 2584 	mov	r6,a
      0007B2 A3               [24] 2585 	inc	dptr
      0007B3 E0               [24] 2586 	movx	a,@dptr
      0007B4 FF               [12] 2587 	mov	r7,a
      0007B5 A8 81            [24] 2588 	mov	r0,sp
      0007B7 18               [12] 2589 	dec	r0
      0007B8 90r00r15         [24] 2590 	mov	dptr,#_hc06_ptr
      0007BB E6               [12] 2591 	mov	a,@r0
      0007BC 2D               [12] 2592 	add	a,r5
      0007BD F0               [24] 2593 	movx	@dptr,a
      0007BE E4               [12] 2594 	clr	a
      0007BF 3E               [12] 2595 	addc	a,r6
      0007C0 A3               [24] 2596 	inc	dptr
      0007C1 F0               [24] 2597 	movx	@dptr,a
      0007C2 EF               [12] 2598 	mov	a,r7
      0007C3 A3               [24] 2599 	inc	dptr
      0007C4 F0               [24] 2600 	movx	@dptr,a
      0007C5 80 31            [24] 2601 	sjmp	00113$
      0007C7                       2602 00111$:
                                   2603 ;	../../../core/net/sicslowpan.c:456: } else if (prefcount > 0) {
      0007C7 A8 81            [24] 2604 	mov	r0,sp
      0007C9 E6               [12] 2605 	mov	a,@r0
      0007CA 60 2C            [24] 2606 	jz	00113$
                                   2607 ;	../../../core/net/sicslowpan.c:458: uip_ds6_set_addr_iid(ipaddr, lladdr);
      0007CC E5 81            [12] 2608 	mov	a,sp
      0007CE 24 F0            [12] 2609 	add	a,#0xf0
      0007D0 F8               [12] 2610 	mov	r0,a
      0007D1 E6               [12] 2611 	mov	a,@r0
      0007D2 C0 E0            [24] 2612 	push	acc
      0007D4 08               [12] 2613 	inc	r0
      0007D5 E6               [12] 2614 	mov	a,@r0
      0007D6 C0 E0            [24] 2615 	push	acc
      0007D8 08               [12] 2616 	inc	r0
      0007D9 E6               [12] 2617 	mov	a,@r0
      0007DA C0 E0            [24] 2618 	push	acc
      0007DC E5 81            [12] 2619 	mov	a,sp
      0007DE 24 F7            [12] 2620 	add	a,#0xf7
      0007E0 F8               [12] 2621 	mov	r0,a
      0007E1 86 82            [24] 2622 	mov	dpl,@r0
      0007E3 08               [12] 2623 	inc	r0
      0007E4 86 83            [24] 2624 	mov	dph,@r0
      0007E6 08               [12] 2625 	inc	r0
      0007E7 86 F0            [24] 2626 	mov	b,@r0
      0007E9 78r00            [12] 2627 	mov	r0,#_uip_ds6_set_addr_iid
      0007EB 79s00            [12] 2628 	mov	r1,#(_uip_ds6_set_addr_iid >> 8)
      0007ED 7As00            [12] 2629 	mov	r2,#(_uip_ds6_set_addr_iid >> 16)
      0007EF 12r00r00         [24] 2630 	lcall	__sdcc_banked_call
      0007F2 15 81            [12] 2631 	dec	sp
      0007F4 15 81            [12] 2632 	dec	sp
      0007F6 15 81            [12] 2633 	dec	sp
      0007F8                       2634 00113$:
                                   2635 ;	../../../core/net/sicslowpan.c:463: }
      0007F8 E5 81            [12] 2636 	mov	a,sp
      0007FA 24 F9            [12] 2637 	add	a,#0xf9
      0007FC F5 81            [12] 2638 	mov	sp,a
      0007FE 02r00r00         [24] 2639 	ljmp	__sdcc_banked_ret
                                   2640 ;------------------------------------------------------------
                                   2641 ;Allocation info for local variables in function 'compress_hdr_hc06'
                                   2642 ;------------------------------------------------------------
                                   2643 ;rime_destaddr             Allocated to stack - sp -15
                                   2644 ;tmp                       Allocated to registers r5 
                                   2645 ;iphc0                     Allocated to stack - sp -1
                                   2646 ;iphc1                     Allocated to stack - sp +0
                                   2647 ;sloc0                     Allocated to stack - sp -12
                                   2648 ;sloc1                     Allocated to stack - sp -11
                                   2649 ;sloc2                     Allocated to stack - sp -10
                                   2650 ;sloc3                     Allocated to stack - sp -7
                                   2651 ;sloc4                     Allocated to stack - sp -4
                                   2652 ;------------------------------------------------------------
                                   2653 ;	../../../core/net/sicslowpan.c:501: compress_hdr_hc06(rimeaddr_t *rime_destaddr)
                                   2654 ;	-----------------------------------------
                                   2655 ;	 function compress_hdr_hc06
                                   2656 ;	-----------------------------------------
      000801                       2657 _compress_hdr_hc06:
      000801 C0 82            [24] 2658 	push	dpl
      000803 C0 83            [24] 2659 	push	dph
      000805 C0 F0            [24] 2660 	push	b
      000807 E5 81            [12] 2661 	mov	a,sp
      000809 24 0D            [12] 2662 	add	a,#0x0d
      00080B F5 81            [12] 2663 	mov	sp,a
                                   2664 ;	../../../core/net/sicslowpan.c:515: hc06_ptr = rime_ptr + 2;
      00080D 90r00r00         [24] 2665 	mov	dptr,#_rime_ptr
      000810 E0               [24] 2666 	movx	a,@dptr
      000811 FA               [12] 2667 	mov	r2,a
      000812 A3               [24] 2668 	inc	dptr
      000813 E0               [24] 2669 	movx	a,@dptr
      000814 FB               [12] 2670 	mov	r3,a
      000815 A3               [24] 2671 	inc	dptr
      000816 E0               [24] 2672 	movx	a,@dptr
      000817 FC               [12] 2673 	mov	r4,a
      000818 90r00r15         [24] 2674 	mov	dptr,#_hc06_ptr
      00081B 74 02            [12] 2675 	mov	a,#0x02
      00081D 2A               [12] 2676 	add	a,r2
      00081E F0               [24] 2677 	movx	@dptr,a
      00081F E4               [12] 2678 	clr	a
      000820 3B               [12] 2679 	addc	a,r3
      000821 A3               [24] 2680 	inc	dptr
      000822 F0               [24] 2681 	movx	@dptr,a
      000823 EC               [12] 2682 	mov	a,r4
      000824 A3               [24] 2683 	inc	dptr
      000825 F0               [24] 2684 	movx	@dptr,a
                                   2685 ;	../../../core/net/sicslowpan.c:523: iphc0 = SICSLOWPAN_DISPATCH_IPHC;
      000826 A8 81            [24] 2686 	mov	r0,sp
      000828 18               [12] 2687 	dec	r0
      000829 76 60            [12] 2688 	mov	@r0,#0x60
                                   2689 ;	../../../core/net/sicslowpan.c:524: iphc1 = 0;
      00082B 7E 00            [12] 2690 	mov	r6,#0x00
                                   2691 ;	../../../core/net/sicslowpan.c:525: RIME_IPHC_BUF[2] = 0; /* might not be used - but needs to be cleared */
      00082D 90r00r03         [24] 2692 	mov	dptr,#_rime_hdr_len
      000830 E0               [24] 2693 	movx	a,@dptr
      000831 2A               [12] 2694 	add	a,r2
      000832 FA               [12] 2695 	mov	r2,a
      000833 E4               [12] 2696 	clr	a
      000834 3B               [12] 2697 	addc	a,r3
      000835 FB               [12] 2698 	mov	r3,a
      000836 74 02            [12] 2699 	mov	a,#0x02
      000838 2A               [12] 2700 	add	a,r2
      000839 FA               [12] 2701 	mov	r2,a
      00083A E4               [12] 2702 	clr	a
      00083B 3B               [12] 2703 	addc	a,r3
      00083C FB               [12] 2704 	mov	r3,a
      00083D 8A 82            [24] 2705 	mov	dpl,r2
      00083F 8B 83            [24] 2706 	mov	dph,r3
      000841 8C F0            [24] 2707 	mov	b,r4
      000843 E4               [12] 2708 	clr	a
      000844 12r00r00         [24] 2709 	lcall	__gptrput
                                   2710 ;	../../../core/net/sicslowpan.c:537: if(addr_context_lookup_by_prefix(&UIP_IP_BUF->destipaddr) != NULL ||
      000847 90r00r18         [24] 2711 	mov	dptr,#(_uip_aligned_buf + 0x0018)
      00084A 75 F0 00         [24] 2712 	mov	b,#0x00
      00084D C0 06            [24] 2713 	push	ar6
      00084F 78rE6            [12] 2714 	mov	r0,#_addr_context_lookup_by_prefix
      000851 79s00            [12] 2715 	mov	r1,#(_addr_context_lookup_by_prefix >> 8)
      000853 7As00            [12] 2716 	mov	r2,#(_addr_context_lookup_by_prefix >> 16)
      000855 12r00r00         [24] 2717 	lcall	__sdcc_banked_call
      000858 AB 82            [24] 2718 	mov	r3,dpl
      00085A AC 83            [24] 2719 	mov	r4,dph
      00085C AD F0            [24] 2720 	mov	r5,b
      00085E D0 06            [24] 2721 	pop	ar6
      000860 EB               [12] 2722 	mov	a,r3
      000861 4C               [12] 2723 	orl	a,r4
                                   2724 ;	../../../core/net/sicslowpan.c:538: addr_context_lookup_by_prefix(&UIP_IP_BUF->srcipaddr) != NULL) {
      000862 70 1C            [24] 2725 	jnz	00101$
      000864 90r00r08         [24] 2726 	mov	dptr,#(_uip_aligned_buf + 0x0008)
      000867 F5 F0            [12] 2727 	mov	b,a
      000869 C0 06            [24] 2728 	push	ar6
      00086B 78rE6            [12] 2729 	mov	r0,#_addr_context_lookup_by_prefix
      00086D 79s00            [12] 2730 	mov	r1,#(_addr_context_lookup_by_prefix >> 8)
      00086F 7As00            [12] 2731 	mov	r2,#(_addr_context_lookup_by_prefix >> 16)
      000871 12r00r00         [24] 2732 	lcall	__sdcc_banked_call
      000874 AB 82            [24] 2733 	mov	r3,dpl
      000876 AC 83            [24] 2734 	mov	r4,dph
      000878 AD F0            [24] 2735 	mov	r5,b
      00087A D0 06            [24] 2736 	pop	ar6
      00087C EB               [12] 2737 	mov	a,r3
      00087D 4C               [12] 2738 	orl	a,r4
      00087E 60 0E            [24] 2739 	jz	00102$
      000880                       2740 00101$:
                                   2741 ;	../../../core/net/sicslowpan.c:541: iphc1 |= SICSLOWPAN_IPHC_CID;
      000880 7E 80            [12] 2742 	mov	r6,#0x80
                                   2743 ;	../../../core/net/sicslowpan.c:542: hc06_ptr++;
      000882 90r00r15         [24] 2744 	mov	dptr,#_hc06_ptr
      000885 E0               [24] 2745 	movx	a,@dptr
      000886 24 01            [12] 2746 	add	a,#0x01
      000888 F0               [24] 2747 	movx	@dptr,a
      000889 A3               [24] 2748 	inc	dptr
      00088A E0               [24] 2749 	movx	a,@dptr
      00088B 34 00            [12] 2750 	addc	a,#0x00
      00088D F0               [24] 2751 	movx	@dptr,a
      00088E                       2752 00102$:
                                   2753 ;	../../../core/net/sicslowpan.c:553: tmp = (UIP_IP_BUF->vtc << 4) | (UIP_IP_BUF->tcflow >> 4);
      00088E 90r00r00         [24] 2754 	mov	dptr,#_uip_aligned_buf
      000891 E0               [24] 2755 	movx	a,@dptr
      000892 C4               [12] 2756 	swap	a
      000893 54 F0            [12] 2757 	anl	a,#0xf0
      000895 FD               [12] 2758 	mov	r5,a
      000896 90r00r01         [24] 2759 	mov	dptr,#(_uip_aligned_buf + 0x0001)
      000899 E0               [24] 2760 	movx	a,@dptr
      00089A C4               [12] 2761 	swap	a
      00089B 54 0F            [12] 2762 	anl	a,#0x0f
      00089D FC               [12] 2763 	mov	r4,a
      00089E ED               [12] 2764 	mov	a,r5
      00089F 42 04            [12] 2765 	orl	ar4,a
                                   2766 ;	../../../core/net/sicslowpan.c:554: tmp = ((tmp & 0x03) << 6) | (tmp >> 2);
      0008A1 8C 05            [24] 2767 	mov	ar5,r4
      0008A3 53 05 03         [24] 2768 	anl	ar5,#0x03
      0008A6 ED               [12] 2769 	mov	a,r5
      0008A7 03               [12] 2770 	rr	a
      0008A8 03               [12] 2771 	rr	a
      0008A9 54 C0            [12] 2772 	anl	a,#0xc0
      0008AB FD               [12] 2773 	mov	r5,a
      0008AC EC               [12] 2774 	mov	a,r4
      0008AD 03               [12] 2775 	rr	a
      0008AE 03               [12] 2776 	rr	a
      0008AF 54 3F            [12] 2777 	anl	a,#0x3f
      0008B1 42 05            [12] 2778 	orl	ar5,a
                                   2779 ;	../../../core/net/sicslowpan.c:556: if(((UIP_IP_BUF->tcflow & 0x0F) == 0) &&
      0008B3 90r00r01         [24] 2780 	mov	dptr,#(_uip_aligned_buf + 0x0001)
      0008B6 E0               [24] 2781 	movx	a,@dptr
      0008B7 FC               [12] 2782 	mov	r4,a
      0008B8 54 0F            [12] 2783 	anl	a,#0x0f
      0008BA 60 02            [24] 2784 	jz	00544$
      0008BC 80 5F            [24] 2785 	sjmp	00113$
      0008BE                       2786 00544$:
                                   2787 ;	../../../core/net/sicslowpan.c:557: (UIP_IP_BUF->flow == 0)) {
      0008BE 90r00r02         [24] 2788 	mov	dptr,#(_uip_aligned_buf + 0x0002)
      0008C1 E0               [24] 2789 	movx	a,@dptr
      0008C2 FB               [12] 2790 	mov	r3,a
      0008C3 A3               [24] 2791 	inc	dptr
      0008C4 E0               [24] 2792 	movx	a,@dptr
      0008C5 FC               [12] 2793 	mov	r4,a
      0008C6 4B               [12] 2794 	orl	a,r3
      0008C7 70 54            [24] 2795 	jnz	00113$
                                   2796 ;	../../../core/net/sicslowpan.c:559: iphc0 |= SICSLOWPAN_IPHC_FL_C;
      0008C9 A8 81            [24] 2797 	mov	r0,sp
      0008CB 18               [12] 2798 	dec	r0
      0008CC 76 70            [12] 2799 	mov	@r0,#0x70
                                   2800 ;	../../../core/net/sicslowpan.c:560: if(((UIP_IP_BUF->vtc & 0x0F) == 0) &&
      0008CE 90r00r00         [24] 2801 	mov	dptr,#_uip_aligned_buf
      0008D1 E0               [24] 2802 	movx	a,@dptr
      0008D2 FC               [12] 2803 	mov	r4,a
      0008D3 54 0F            [12] 2804 	anl	a,#0x0f
      0008D5 60 02            [24] 2805 	jz	00547$
      0008D7 80 13            [24] 2806 	sjmp	00105$
      0008D9                       2807 00547$:
                                   2808 ;	../../../core/net/sicslowpan.c:561: ((UIP_IP_BUF->tcflow & 0xF0) == 0)) {
      0008D9 90r00r01         [24] 2809 	mov	dptr,#(_uip_aligned_buf + 0x0001)
      0008DC E0               [24] 2810 	movx	a,@dptr
      0008DD FC               [12] 2811 	mov	r4,a
      0008DE 54 F0            [12] 2812 	anl	a,#0xf0
      0008E0 60 02            [24] 2813 	jz	00549$
      0008E2 80 08            [24] 2814 	sjmp	00105$
      0008E4                       2815 00549$:
                                   2816 ;	../../../core/net/sicslowpan.c:563: iphc0 |= SICSLOWPAN_IPHC_TC_C;
      0008E4 A8 81            [24] 2817 	mov	r0,sp
      0008E6 18               [12] 2818 	dec	r0
      0008E7 76 78            [12] 2819 	mov	@r0,#0x78
      0008E9 02r0Ar20         [24] 2820 	ljmp	00114$
      0008EC                       2821 00105$:
                                   2822 ;	../../../core/net/sicslowpan.c:566: *hc06_ptr = tmp;
      0008EC 90r00r15         [24] 2823 	mov	dptr,#_hc06_ptr
      0008EF E0               [24] 2824 	movx	a,@dptr
      0008F0 FA               [12] 2825 	mov	r2,a
      0008F1 A3               [24] 2826 	inc	dptr
      0008F2 E0               [24] 2827 	movx	a,@dptr
      0008F3 FB               [12] 2828 	mov	r3,a
      0008F4 A3               [24] 2829 	inc	dptr
      0008F5 E0               [24] 2830 	movx	a,@dptr
      0008F6 FC               [12] 2831 	mov	r4,a
      0008F7 8A 82            [24] 2832 	mov	dpl,r2
      0008F9 8B 83            [24] 2833 	mov	dph,r3
      0008FB 8C F0            [24] 2834 	mov	b,r4
      0008FD ED               [12] 2835 	mov	a,r5
      0008FE 12r00r00         [24] 2836 	lcall	__gptrput
                                   2837 ;	../../../core/net/sicslowpan.c:567: hc06_ptr += 1;
      000901 90r00r15         [24] 2838 	mov	dptr,#_hc06_ptr
      000904 E0               [24] 2839 	movx	a,@dptr
      000905 FA               [12] 2840 	mov	r2,a
      000906 A3               [24] 2841 	inc	dptr
      000907 E0               [24] 2842 	movx	a,@dptr
      000908 FB               [12] 2843 	mov	r3,a
      000909 A3               [24] 2844 	inc	dptr
      00090A E0               [24] 2845 	movx	a,@dptr
      00090B FC               [12] 2846 	mov	r4,a
      00090C 90r00r15         [24] 2847 	mov	dptr,#_hc06_ptr
      00090F 74 01            [12] 2848 	mov	a,#0x01
      000911 2A               [12] 2849 	add	a,r2
      000912 F0               [24] 2850 	movx	@dptr,a
      000913 E4               [12] 2851 	clr	a
      000914 3B               [12] 2852 	addc	a,r3
      000915 A3               [24] 2853 	inc	dptr
      000916 F0               [24] 2854 	movx	@dptr,a
      000917 EC               [12] 2855 	mov	a,r4
      000918 A3               [24] 2856 	inc	dptr
      000919 F0               [24] 2857 	movx	@dptr,a
      00091A 02r0Ar20         [24] 2858 	ljmp	00114$
      00091D                       2859 00113$:
                                   2860 ;	../../../core/net/sicslowpan.c:571: if(((UIP_IP_BUF->vtc & 0x0F) == 0) &&
      00091D 90r00r00         [24] 2861 	mov	dptr,#_uip_aligned_buf
      000920 E0               [24] 2862 	movx	a,@dptr
      000921 FC               [12] 2863 	mov	r4,a
      000922 54 0F            [12] 2864 	anl	a,#0x0f
      000924 60 03            [24] 2865 	jz	00551$
      000926 02r09rB8         [24] 2866 	ljmp	00109$
      000929                       2867 00551$:
                                   2868 ;	../../../core/net/sicslowpan.c:572: ((UIP_IP_BUF->tcflow & 0xF0) == 0)) {
      000929 90r00r01         [24] 2869 	mov	dptr,#(_uip_aligned_buf + 0x0001)
      00092C E0               [24] 2870 	movx	a,@dptr
      00092D FC               [12] 2871 	mov	r4,a
      00092E 54 F0            [12] 2872 	anl	a,#0xf0
      000930 60 03            [24] 2873 	jz	00553$
      000932 02r09rB8         [24] 2874 	ljmp	00109$
      000935                       2875 00553$:
                                   2876 ;	../../../core/net/sicslowpan.c:574: iphc0 |= SICSLOWPAN_IPHC_TC_C;
      000935 C0 06            [24] 2877 	push	ar6
      000937 A8 81            [24] 2878 	mov	r0,sp
      000939 18               [12] 2879 	dec	r0
      00093A 18               [12] 2880 	dec	r0
      00093B 76 68            [12] 2881 	mov	@r0,#0x68
                                   2882 ;	../../../core/net/sicslowpan.c:575: *hc06_ptr = (tmp & 0xc0) |
      00093D 90r00r15         [24] 2883 	mov	dptr,#_hc06_ptr
      000940 E0               [24] 2884 	movx	a,@dptr
      000941 FA               [12] 2885 	mov	r2,a
      000942 A3               [24] 2886 	inc	dptr
      000943 E0               [24] 2887 	movx	a,@dptr
      000944 FB               [12] 2888 	mov	r3,a
      000945 A3               [24] 2889 	inc	dptr
      000946 E0               [24] 2890 	movx	a,@dptr
      000947 FC               [12] 2891 	mov	r4,a
      000948 74 C0            [12] 2892 	mov	a,#0xc0
      00094A 5D               [12] 2893 	anl	a,r5
      00094B FE               [12] 2894 	mov	r6,a
                                   2895 ;	../../../core/net/sicslowpan.c:576: (UIP_IP_BUF->tcflow & 0x0F);
      00094C 90r00r01         [24] 2896 	mov	dptr,#(_uip_aligned_buf + 0x0001)
      00094F E0               [24] 2897 	movx	a,@dptr
      000950 FF               [12] 2898 	mov	r7,a
      000951 74 0F            [12] 2899 	mov	a,#0x0f
      000953 5F               [12] 2900 	anl	a,r7
      000954 42 06            [12] 2901 	orl	ar6,a
      000956 8A 82            [24] 2902 	mov	dpl,r2
      000958 8B 83            [24] 2903 	mov	dph,r3
      00095A 8C F0            [24] 2904 	mov	b,r4
      00095C EE               [12] 2905 	mov	a,r6
      00095D 12r00r00         [24] 2906 	lcall	__gptrput
                                   2907 ;	../../../core/net/sicslowpan.c:577: memcpy(hc06_ptr + 1, &UIP_IP_BUF->flow, 2);
      000960 90r00r15         [24] 2908 	mov	dptr,#_hc06_ptr
      000963 E0               [24] 2909 	movx	a,@dptr
      000964 FC               [12] 2910 	mov	r4,a
      000965 A3               [24] 2911 	inc	dptr
      000966 E0               [24] 2912 	movx	a,@dptr
      000967 FE               [12] 2913 	mov	r6,a
      000968 A3               [24] 2914 	inc	dptr
      000969 E0               [24] 2915 	movx	a,@dptr
      00096A FF               [12] 2916 	mov	r7,a
      00096B 0C               [12] 2917 	inc	r4
      00096C BC 00 01         [24] 2918 	cjne	r4,#0x00,00554$
      00096F 0E               [12] 2919 	inc	r6
      000970                       2920 00554$:
      000970 C0 06            [24] 2921 	push	ar6
      000972 74 02            [12] 2922 	mov	a,#0x02
      000974 C0 E0            [24] 2923 	push	acc
      000976 E4               [12] 2924 	clr	a
      000977 C0 E0            [24] 2925 	push	acc
      000979 74r02            [12] 2926 	mov	a,#(_uip_aligned_buf + 0x0002)
      00097B C0 E0            [24] 2927 	push	acc
      00097D 74s00            [12] 2928 	mov	a,#((_uip_aligned_buf + 0x0002) >> 8)
      00097F C0 E0            [24] 2929 	push	acc
      000981 E4               [12] 2930 	clr	a
      000982 C0 E0            [24] 2931 	push	acc
      000984 8C 82            [24] 2932 	mov	dpl,r4
      000986 8E 83            [24] 2933 	mov	dph,r6
      000988 8F F0            [24] 2934 	mov	b,r7
      00098A 78r00            [12] 2935 	mov	r0,#___memcpy
      00098C 79s00            [12] 2936 	mov	r1,#(___memcpy >> 8)
      00098E 7As00            [12] 2937 	mov	r2,#(___memcpy >> 16)
      000990 12r00r00         [24] 2938 	lcall	__sdcc_banked_call
      000993 E5 81            [12] 2939 	mov	a,sp
      000995 24 FB            [12] 2940 	add	a,#0xfb
      000997 F5 81            [12] 2941 	mov	sp,a
      000999 D0 06            [24] 2942 	pop	ar6
                                   2943 ;	../../../core/net/sicslowpan.c:578: hc06_ptr += 3;
      00099B 90r00r15         [24] 2944 	mov	dptr,#_hc06_ptr
      00099E E0               [24] 2945 	movx	a,@dptr
      00099F FC               [12] 2946 	mov	r4,a
      0009A0 A3               [24] 2947 	inc	dptr
      0009A1 E0               [24] 2948 	movx	a,@dptr
      0009A2 FE               [12] 2949 	mov	r6,a
      0009A3 A3               [24] 2950 	inc	dptr
      0009A4 E0               [24] 2951 	movx	a,@dptr
      0009A5 FF               [12] 2952 	mov	r7,a
      0009A6 90r00r15         [24] 2953 	mov	dptr,#_hc06_ptr
      0009A9 74 03            [12] 2954 	mov	a,#0x03
      0009AB 2C               [12] 2955 	add	a,r4
      0009AC F0               [24] 2956 	movx	@dptr,a
      0009AD E4               [12] 2957 	clr	a
      0009AE 3E               [12] 2958 	addc	a,r6
      0009AF A3               [24] 2959 	inc	dptr
      0009B0 F0               [24] 2960 	movx	@dptr,a
      0009B1 EF               [12] 2961 	mov	a,r7
      0009B2 A3               [24] 2962 	inc	dptr
      0009B3 F0               [24] 2963 	movx	@dptr,a
      0009B4 D0 06            [24] 2964 	pop	ar6
      0009B6 80 68            [24] 2965 	sjmp	00114$
      0009B8                       2966 00109$:
                                   2967 ;	../../../core/net/sicslowpan.c:581: memcpy(hc06_ptr, &UIP_IP_BUF->vtc, 4);
      0009B8 90r00r15         [24] 2968 	mov	dptr,#_hc06_ptr
      0009BB E0               [24] 2969 	movx	a,@dptr
      0009BC FB               [12] 2970 	mov	r3,a
      0009BD A3               [24] 2971 	inc	dptr
      0009BE E0               [24] 2972 	movx	a,@dptr
      0009BF FC               [12] 2973 	mov	r4,a
      0009C0 A3               [24] 2974 	inc	dptr
      0009C1 E0               [24] 2975 	movx	a,@dptr
      0009C2 FF               [12] 2976 	mov	r7,a
      0009C3 C0 06            [24] 2977 	push	ar6
      0009C5 C0 05            [24] 2978 	push	ar5
      0009C7 74 04            [12] 2979 	mov	a,#0x04
      0009C9 C0 E0            [24] 2980 	push	acc
      0009CB E4               [12] 2981 	clr	a
      0009CC C0 E0            [24] 2982 	push	acc
      0009CE 74r00            [12] 2983 	mov	a,#_uip_aligned_buf
      0009D0 C0 E0            [24] 2984 	push	acc
      0009D2 74s00            [12] 2985 	mov	a,#(_uip_aligned_buf >> 8)
      0009D4 C0 E0            [24] 2986 	push	acc
      0009D6 E4               [12] 2987 	clr	a
      0009D7 C0 E0            [24] 2988 	push	acc
      0009D9 8B 82            [24] 2989 	mov	dpl,r3
      0009DB 8C 83            [24] 2990 	mov	dph,r4
      0009DD 8F F0            [24] 2991 	mov	b,r7
      0009DF 78r00            [12] 2992 	mov	r0,#___memcpy
      0009E1 79s00            [12] 2993 	mov	r1,#(___memcpy >> 8)
      0009E3 7As00            [12] 2994 	mov	r2,#(___memcpy >> 16)
      0009E5 12r00r00         [24] 2995 	lcall	__sdcc_banked_call
      0009E8 E5 81            [12] 2996 	mov	a,sp
      0009EA 24 FB            [12] 2997 	add	a,#0xfb
      0009EC F5 81            [12] 2998 	mov	sp,a
      0009EE D0 05            [24] 2999 	pop	ar5
      0009F0 D0 06            [24] 3000 	pop	ar6
                                   3001 ;	../../../core/net/sicslowpan.c:583: *hc06_ptr = tmp;
      0009F2 90r00r15         [24] 3002 	mov	dptr,#_hc06_ptr
      0009F5 E0               [24] 3003 	movx	a,@dptr
      0009F6 FB               [12] 3004 	mov	r3,a
      0009F7 A3               [24] 3005 	inc	dptr
      0009F8 E0               [24] 3006 	movx	a,@dptr
      0009F9 FC               [12] 3007 	mov	r4,a
      0009FA A3               [24] 3008 	inc	dptr
      0009FB E0               [24] 3009 	movx	a,@dptr
      0009FC FF               [12] 3010 	mov	r7,a
      0009FD 8B 82            [24] 3011 	mov	dpl,r3
      0009FF 8C 83            [24] 3012 	mov	dph,r4
      000A01 8F F0            [24] 3013 	mov	b,r7
      000A03 ED               [12] 3014 	mov	a,r5
      000A04 12r00r00         [24] 3015 	lcall	__gptrput
                                   3016 ;	../../../core/net/sicslowpan.c:584: hc06_ptr += 4;
      000A07 90r00r15         [24] 3017 	mov	dptr,#_hc06_ptr
      000A0A E0               [24] 3018 	movx	a,@dptr
      000A0B FC               [12] 3019 	mov	r4,a
      000A0C A3               [24] 3020 	inc	dptr
      000A0D E0               [24] 3021 	movx	a,@dptr
      000A0E FD               [12] 3022 	mov	r5,a
      000A0F A3               [24] 3023 	inc	dptr
      000A10 E0               [24] 3024 	movx	a,@dptr
      000A11 FF               [12] 3025 	mov	r7,a
      000A12 90r00r15         [24] 3026 	mov	dptr,#_hc06_ptr
      000A15 74 04            [12] 3027 	mov	a,#0x04
      000A17 2C               [12] 3028 	add	a,r4
      000A18 F0               [24] 3029 	movx	@dptr,a
      000A19 E4               [12] 3030 	clr	a
      000A1A 3D               [12] 3031 	addc	a,r5
      000A1B A3               [24] 3032 	inc	dptr
      000A1C F0               [24] 3033 	movx	@dptr,a
      000A1D EF               [12] 3034 	mov	a,r7
      000A1E A3               [24] 3035 	inc	dptr
      000A1F F0               [24] 3036 	movx	@dptr,a
      000A20                       3037 00114$:
                                   3038 ;	../../../core/net/sicslowpan.c:592: if(UIP_IP_BUF->proto == UIP_PROTO_UDP) {
      000A20 90r00r06         [24] 3039 	mov	dptr,#(_uip_aligned_buf + 0x0006)
      000A23 E0               [24] 3040 	movx	a,@dptr
      000A24 FF               [12] 3041 	mov	r7,a
      000A25 BF 11 07         [24] 3042 	cjne	r7,#0x11,00117$
                                   3043 ;	../../../core/net/sicslowpan.c:593: iphc0 |= SICSLOWPAN_IPHC_NH_C;
      000A28 A8 81            [24] 3044 	mov	r0,sp
      000A2A 18               [12] 3045 	dec	r0
      000A2B E6               [12] 3046 	mov	a,@r0
      000A2C 44 04            [12] 3047 	orl	a,#0x04
      000A2E F6               [12] 3048 	mov	@r0,a
      000A2F                       3049 00117$:
                                   3050 ;	../../../core/net/sicslowpan.c:601: if ((iphc0 & SICSLOWPAN_IPHC_NH_C) == 0) {
      000A2F A8 81            [24] 3051 	mov	r0,sp
      000A31 18               [12] 3052 	dec	r0
      000A32 E6               [12] 3053 	mov	a,@r0
      000A33 20 E2 32         [24] 3054 	jb	acc.2,00119$
                                   3055 ;	../../../core/net/sicslowpan.c:602: *hc06_ptr = UIP_IP_BUF->proto;
      000A36 90r00r15         [24] 3056 	mov	dptr,#_hc06_ptr
      000A39 E0               [24] 3057 	movx	a,@dptr
      000A3A FC               [12] 3058 	mov	r4,a
      000A3B A3               [24] 3059 	inc	dptr
      000A3C E0               [24] 3060 	movx	a,@dptr
      000A3D FD               [12] 3061 	mov	r5,a
      000A3E A3               [24] 3062 	inc	dptr
      000A3F E0               [24] 3063 	movx	a,@dptr
      000A40 FF               [12] 3064 	mov	r7,a
      000A41 90r00r06         [24] 3065 	mov	dptr,#(_uip_aligned_buf + 0x0006)
      000A44 E0               [24] 3066 	movx	a,@dptr
      000A45 FB               [12] 3067 	mov	r3,a
      000A46 8C 82            [24] 3068 	mov	dpl,r4
      000A48 8D 83            [24] 3069 	mov	dph,r5
      000A4A 8F F0            [24] 3070 	mov	b,r7
      000A4C 12r00r00         [24] 3071 	lcall	__gptrput
                                   3072 ;	../../../core/net/sicslowpan.c:603: hc06_ptr += 1;
      000A4F 90r00r15         [24] 3073 	mov	dptr,#_hc06_ptr
      000A52 E0               [24] 3074 	movx	a,@dptr
      000A53 FC               [12] 3075 	mov	r4,a
      000A54 A3               [24] 3076 	inc	dptr
      000A55 E0               [24] 3077 	movx	a,@dptr
      000A56 FD               [12] 3078 	mov	r5,a
      000A57 A3               [24] 3079 	inc	dptr
      000A58 E0               [24] 3080 	movx	a,@dptr
      000A59 FF               [12] 3081 	mov	r7,a
      000A5A 90r00r15         [24] 3082 	mov	dptr,#_hc06_ptr
      000A5D 74 01            [12] 3083 	mov	a,#0x01
      000A5F 2C               [12] 3084 	add	a,r4
      000A60 F0               [24] 3085 	movx	@dptr,a
      000A61 E4               [12] 3086 	clr	a
      000A62 3D               [12] 3087 	addc	a,r5
      000A63 A3               [24] 3088 	inc	dptr
      000A64 F0               [24] 3089 	movx	@dptr,a
      000A65 EF               [12] 3090 	mov	a,r7
      000A66 A3               [24] 3091 	inc	dptr
      000A67 F0               [24] 3092 	movx	@dptr,a
      000A68                       3093 00119$:
                                   3094 ;	../../../core/net/sicslowpan.c:613: switch(UIP_IP_BUF->ttl) {
      000A68 90r00r07         [24] 3095 	mov	dptr,#(_uip_aligned_buf + 0x0007)
      000A6B E0               [24] 3096 	movx	a,@dptr
      000A6C FF               [12] 3097 	mov	r7,a
      000A6D BF 01 02         [24] 3098 	cjne	r7,#0x01,00558$
      000A70 80 0A            [24] 3099 	sjmp	00120$
      000A72                       3100 00558$:
      000A72 BF 40 02         [24] 3101 	cjne	r7,#0x40,00559$
      000A75 80 0E            [24] 3102 	sjmp	00121$
      000A77                       3103 00559$:
                                   3104 ;	../../../core/net/sicslowpan.c:614: case 1:
      000A77 BF FF 1D         [24] 3105 	cjne	r7,#0xff,00123$
      000A7A 80 12            [24] 3106 	sjmp	00122$
      000A7C                       3107 00120$:
                                   3108 ;	../../../core/net/sicslowpan.c:615: iphc0 |= SICSLOWPAN_IPHC_TTL_1;
      000A7C A8 81            [24] 3109 	mov	r0,sp
      000A7E 18               [12] 3110 	dec	r0
      000A7F E6               [12] 3111 	mov	a,@r0
      000A80 44 01            [12] 3112 	orl	a,#0x01
      000A82 F6               [12] 3113 	mov	@r0,a
                                   3114 ;	../../../core/net/sicslowpan.c:616: break;
                                   3115 ;	../../../core/net/sicslowpan.c:617: case 64:
      000A83 80 44            [24] 3116 	sjmp	00124$
      000A85                       3117 00121$:
                                   3118 ;	../../../core/net/sicslowpan.c:618: iphc0 |= SICSLOWPAN_IPHC_TTL_64;
      000A85 A8 81            [24] 3119 	mov	r0,sp
      000A87 18               [12] 3120 	dec	r0
      000A88 E6               [12] 3121 	mov	a,@r0
      000A89 44 02            [12] 3122 	orl	a,#0x02
      000A8B F6               [12] 3123 	mov	@r0,a
                                   3124 ;	../../../core/net/sicslowpan.c:619: break;
                                   3125 ;	../../../core/net/sicslowpan.c:620: case 255:
      000A8C 80 3B            [24] 3126 	sjmp	00124$
      000A8E                       3127 00122$:
                                   3128 ;	../../../core/net/sicslowpan.c:621: iphc0 |= SICSLOWPAN_IPHC_TTL_255;
      000A8E A8 81            [24] 3129 	mov	r0,sp
      000A90 18               [12] 3130 	dec	r0
      000A91 E6               [12] 3131 	mov	a,@r0
      000A92 44 03            [12] 3132 	orl	a,#0x03
      000A94 F6               [12] 3133 	mov	@r0,a
                                   3134 ;	../../../core/net/sicslowpan.c:622: break;
                                   3135 ;	../../../core/net/sicslowpan.c:623: default:
      000A95 80 32            [24] 3136 	sjmp	00124$
      000A97                       3137 00123$:
                                   3138 ;	../../../core/net/sicslowpan.c:624: *hc06_ptr = UIP_IP_BUF->ttl;
      000A97 90r00r15         [24] 3139 	mov	dptr,#_hc06_ptr
      000A9A E0               [24] 3140 	movx	a,@dptr
      000A9B FC               [12] 3141 	mov	r4,a
      000A9C A3               [24] 3142 	inc	dptr
      000A9D E0               [24] 3143 	movx	a,@dptr
      000A9E FD               [12] 3144 	mov	r5,a
      000A9F A3               [24] 3145 	inc	dptr
      000AA0 E0               [24] 3146 	movx	a,@dptr
      000AA1 FF               [12] 3147 	mov	r7,a
      000AA2 90r00r07         [24] 3148 	mov	dptr,#(_uip_aligned_buf + 0x0007)
      000AA5 E0               [24] 3149 	movx	a,@dptr
      000AA6 FB               [12] 3150 	mov	r3,a
      000AA7 8C 82            [24] 3151 	mov	dpl,r4
      000AA9 8D 83            [24] 3152 	mov	dph,r5
      000AAB 8F F0            [24] 3153 	mov	b,r7
      000AAD 12r00r00         [24] 3154 	lcall	__gptrput
                                   3155 ;	../../../core/net/sicslowpan.c:625: hc06_ptr += 1;
      000AB0 90r00r15         [24] 3156 	mov	dptr,#_hc06_ptr
      000AB3 E0               [24] 3157 	movx	a,@dptr
      000AB4 FC               [12] 3158 	mov	r4,a
      000AB5 A3               [24] 3159 	inc	dptr
      000AB6 E0               [24] 3160 	movx	a,@dptr
      000AB7 FD               [12] 3161 	mov	r5,a
      000AB8 A3               [24] 3162 	inc	dptr
      000AB9 E0               [24] 3163 	movx	a,@dptr
      000ABA FF               [12] 3164 	mov	r7,a
      000ABB 90r00r15         [24] 3165 	mov	dptr,#_hc06_ptr
      000ABE 74 01            [12] 3166 	mov	a,#0x01
      000AC0 2C               [12] 3167 	add	a,r4
      000AC1 F0               [24] 3168 	movx	@dptr,a
      000AC2 E4               [12] 3169 	clr	a
      000AC3 3D               [12] 3170 	addc	a,r5
      000AC4 A3               [24] 3171 	inc	dptr
      000AC5 F0               [24] 3172 	movx	@dptr,a
      000AC6 EF               [12] 3173 	mov	a,r7
      000AC7 A3               [24] 3174 	inc	dptr
      000AC8 F0               [24] 3175 	movx	@dptr,a
                                   3176 ;	../../../core/net/sicslowpan.c:627: }
      000AC9                       3177 00124$:
                                   3178 ;	../../../core/net/sicslowpan.c:630: if(uip_is_addr_unspecified(&UIP_IP_BUF->srcipaddr)) {
      000AC9 90r00r08         [24] 3179 	mov	dptr,#(_uip_aligned_buf + 0x0008)
      000ACC E0               [24] 3180 	movx	a,@dptr
      000ACD FD               [12] 3181 	mov	r5,a
      000ACE A3               [24] 3182 	inc	dptr
      000ACF E0               [24] 3183 	movx	a,@dptr
      000AD0 FF               [12] 3184 	mov	r7,a
      000AD1 4D               [12] 3185 	orl	a,r5
      000AD2 70 53            [24] 3186 	jnz	00136$
      000AD4 90r00r0A         [24] 3187 	mov	dptr,#(_uip_aligned_buf + 0x000a)
      000AD7 E0               [24] 3188 	movx	a,@dptr
      000AD8 FD               [12] 3189 	mov	r5,a
      000AD9 A3               [24] 3190 	inc	dptr
      000ADA E0               [24] 3191 	movx	a,@dptr
      000ADB FF               [12] 3192 	mov	r7,a
      000ADC 4D               [12] 3193 	orl	a,r5
      000ADD 70 48            [24] 3194 	jnz	00136$
      000ADF 90r00r0C         [24] 3195 	mov	dptr,#(_uip_aligned_buf + 0x000c)
      000AE2 E0               [24] 3196 	movx	a,@dptr
      000AE3 FD               [12] 3197 	mov	r5,a
      000AE4 A3               [24] 3198 	inc	dptr
      000AE5 E0               [24] 3199 	movx	a,@dptr
      000AE6 FF               [12] 3200 	mov	r7,a
      000AE7 4D               [12] 3201 	orl	a,r5
      000AE8 70 3D            [24] 3202 	jnz	00136$
      000AEA 90r00r0E         [24] 3203 	mov	dptr,#(_uip_aligned_buf + 0x000e)
      000AED E0               [24] 3204 	movx	a,@dptr
      000AEE FD               [12] 3205 	mov	r5,a
      000AEF A3               [24] 3206 	inc	dptr
      000AF0 E0               [24] 3207 	movx	a,@dptr
      000AF1 FF               [12] 3208 	mov	r7,a
      000AF2 4D               [12] 3209 	orl	a,r5
      000AF3 70 32            [24] 3210 	jnz	00136$
      000AF5 90r00r10         [24] 3211 	mov	dptr,#(_uip_aligned_buf + 0x0010)
      000AF8 E0               [24] 3212 	movx	a,@dptr
      000AF9 FD               [12] 3213 	mov	r5,a
      000AFA A3               [24] 3214 	inc	dptr
      000AFB E0               [24] 3215 	movx	a,@dptr
      000AFC FF               [12] 3216 	mov	r7,a
      000AFD 4D               [12] 3217 	orl	a,r5
      000AFE 70 27            [24] 3218 	jnz	00136$
      000B00 90r00r12         [24] 3219 	mov	dptr,#(_uip_aligned_buf + 0x0012)
      000B03 E0               [24] 3220 	movx	a,@dptr
      000B04 FD               [12] 3221 	mov	r5,a
      000B05 A3               [24] 3222 	inc	dptr
      000B06 E0               [24] 3223 	movx	a,@dptr
      000B07 FF               [12] 3224 	mov	r7,a
      000B08 4D               [12] 3225 	orl	a,r5
      000B09 70 1C            [24] 3226 	jnz	00136$
      000B0B 90r00r14         [24] 3227 	mov	dptr,#(_uip_aligned_buf + 0x0014)
      000B0E E0               [24] 3228 	movx	a,@dptr
      000B0F FD               [12] 3229 	mov	r5,a
      000B10 A3               [24] 3230 	inc	dptr
      000B11 E0               [24] 3231 	movx	a,@dptr
      000B12 FF               [12] 3232 	mov	r7,a
      000B13 4D               [12] 3233 	orl	a,r5
      000B14 70 11            [24] 3234 	jnz	00136$
      000B16 90r00r16         [24] 3235 	mov	dptr,#(_uip_aligned_buf + 0x0016)
      000B19 E0               [24] 3236 	movx	a,@dptr
      000B1A FD               [12] 3237 	mov	r5,a
      000B1B A3               [24] 3238 	inc	dptr
      000B1C E0               [24] 3239 	movx	a,@dptr
      000B1D FF               [12] 3240 	mov	r7,a
      000B1E 4D               [12] 3241 	orl	a,r5
      000B1F 70 06            [24] 3242 	jnz	00136$
                                   3243 ;	../../../core/net/sicslowpan.c:632: iphc1 |= SICSLOWPAN_IPHC_SAC;
      000B21 43 06 40         [24] 3244 	orl	ar6,#0x40
                                   3245 ;	../../../core/net/sicslowpan.c:633: iphc1 |= SICSLOWPAN_IPHC_SAM_00;
      000B24 02r0CrB3         [24] 3246 	ljmp	00137$
      000B27                       3247 00136$:
                                   3248 ;	../../../core/net/sicslowpan.c:634: } else if((context = addr_context_lookup_by_prefix(&UIP_IP_BUF->srcipaddr))
      000B27 90r00r08         [24] 3249 	mov	dptr,#(_uip_aligned_buf + 0x0008)
      000B2A 75 F0 00         [24] 3250 	mov	b,#0x00
      000B2D C0 06            [24] 3251 	push	ar6
      000B2F 78rE6            [12] 3252 	mov	r0,#_addr_context_lookup_by_prefix
      000B31 79s00            [12] 3253 	mov	r1,#(_addr_context_lookup_by_prefix >> 8)
      000B33 7As00            [12] 3254 	mov	r2,#(_addr_context_lookup_by_prefix >> 16)
      000B35 12r00r00         [24] 3255 	lcall	__sdcc_banked_call
      000B38 C8               [12] 3256 	xch	a,r0
      000B39 E5 81            [12] 3257 	mov	a,sp
      000B3B 24 F5            [12] 3258 	add	a,#0xf5
      000B3D C8               [12] 3259 	xch	a,r0
      000B3E A6 82            [24] 3260 	mov	@r0,dpl
      000B40 08               [12] 3261 	inc	r0
      000B41 A6 83            [24] 3262 	mov	@r0,dph
      000B43 08               [12] 3263 	inc	r0
      000B44 A6 F0            [24] 3264 	mov	@r0,b
      000B46 D0 06            [24] 3265 	pop	ar6
      000B48 E5 81            [12] 3266 	mov	a,sp
      000B4A 24 F6            [12] 3267 	add	a,#0xf6
      000B4C F8               [12] 3268 	mov	r0,a
      000B4D 90r00r12         [24] 3269 	mov	dptr,#_context
      000B50 E6               [12] 3270 	mov	a,@r0
      000B51 F0               [24] 3271 	movx	@dptr,a
      000B52 08               [12] 3272 	inc	r0
      000B53 E6               [12] 3273 	mov	a,@r0
      000B54 A3               [24] 3274 	inc	dptr
      000B55 F0               [24] 3275 	movx	@dptr,a
      000B56 08               [12] 3276 	inc	r0
      000B57 E6               [12] 3277 	mov	a,@r0
      000B58 A3               [24] 3278 	inc	dptr
      000B59 F0               [24] 3279 	movx	@dptr,a
      000B5A E5 81            [12] 3280 	mov	a,sp
      000B5C 24 F6            [12] 3281 	add	a,#0xf6
      000B5E F8               [12] 3282 	mov	r0,a
      000B5F E6               [12] 3283 	mov	a,@r0
      000B60 08               [12] 3284 	inc	r0
      000B61 46               [12] 3285 	orl	a,@r0
      000B62 70 03            [24] 3286 	jnz	00569$
      000B64 02r0Cr00         [24] 3287 	ljmp	00133$
      000B67                       3288 00569$:
                                   3289 ;	../../../core/net/sicslowpan.c:639: iphc1 |= SICSLOWPAN_IPHC_CID | SICSLOWPAN_IPHC_SAC;
      000B67 E5 81            [12] 3290 	mov	a,sp
      000B69 24 F4            [12] 3291 	add	a,#0xf4
      000B6B F8               [12] 3292 	mov	r0,a
      000B6C 74 C0            [12] 3293 	mov	a,#0xc0
      000B6E 4E               [12] 3294 	orl	a,r6
      000B6F F6               [12] 3295 	mov	@r0,a
                                   3296 ;	../../../core/net/sicslowpan.c:640: RIME_IPHC_BUF[2] |= context->number << 4;
      000B70 90r00r03         [24] 3297 	mov	dptr,#_rime_hdr_len
      000B73 E0               [24] 3298 	movx	a,@dptr
      000B74 FE               [12] 3299 	mov	r6,a
      000B75 90r00r00         [24] 3300 	mov	dptr,#_rime_ptr
      000B78 E0               [24] 3301 	movx	a,@dptr
      000B79 FA               [12] 3302 	mov	r2,a
      000B7A A3               [24] 3303 	inc	dptr
      000B7B E0               [24] 3304 	movx	a,@dptr
      000B7C FB               [12] 3305 	mov	r3,a
      000B7D A3               [24] 3306 	inc	dptr
      000B7E E0               [24] 3307 	movx	a,@dptr
      000B7F FF               [12] 3308 	mov	r7,a
      000B80 EE               [12] 3309 	mov	a,r6
      000B81 2A               [12] 3310 	add	a,r2
      000B82 FA               [12] 3311 	mov	r2,a
      000B83 E4               [12] 3312 	clr	a
      000B84 3B               [12] 3313 	addc	a,r3
      000B85 FB               [12] 3314 	mov	r3,a
      000B86 74 02            [12] 3315 	mov	a,#0x02
      000B88 2A               [12] 3316 	add	a,r2
      000B89 FA               [12] 3317 	mov	r2,a
      000B8A E4               [12] 3318 	clr	a
      000B8B 3B               [12] 3319 	addc	a,r3
      000B8C FB               [12] 3320 	mov	r3,a
      000B8D 8F 06            [24] 3321 	mov	ar6,r7
      000B8F 8A 82            [24] 3322 	mov	dpl,r2
      000B91 8B 83            [24] 3323 	mov	dph,r3
      000B93 8E F0            [24] 3324 	mov	b,r6
      000B95 E5 81            [12] 3325 	mov	a,sp
      000B97 24 F5            [12] 3326 	add	a,#0xf5
      000B99 F8               [12] 3327 	mov	r0,a
      000B9A 12r00r00         [24] 3328 	lcall	__gptrget
      000B9D F6               [12] 3329 	mov	@r0,a
      000B9E E5 81            [12] 3330 	mov	a,sp
      000BA0 24 F6            [12] 3331 	add	a,#0xf6
      000BA2 F8               [12] 3332 	mov	r0,a
      000BA3 74 01            [12] 3333 	mov	a,#0x01
      000BA5 26               [12] 3334 	add	a,@r0
      000BA6 FC               [12] 3335 	mov	r4,a
      000BA7 E4               [12] 3336 	clr	a
      000BA8 08               [12] 3337 	inc	r0
      000BA9 36               [12] 3338 	addc	a,@r0
      000BAA FD               [12] 3339 	mov	r5,a
      000BAB 08               [12] 3340 	inc	r0
      000BAC 86 07            [24] 3341 	mov	ar7,@r0
      000BAE 8C 82            [24] 3342 	mov	dpl,r4
      000BB0 8D 83            [24] 3343 	mov	dph,r5
      000BB2 8F F0            [24] 3344 	mov	b,r7
      000BB4 12r00r00         [24] 3345 	lcall	__gptrget
      000BB7 C4               [12] 3346 	swap	a
      000BB8 54 F0            [12] 3347 	anl	a,#0xf0
      000BBA FC               [12] 3348 	mov	r4,a
      000BBB E5 81            [12] 3349 	mov	a,sp
      000BBD 24 F5            [12] 3350 	add	a,#0xf5
      000BBF F8               [12] 3351 	mov	r0,a
      000BC0 E6               [12] 3352 	mov	a,@r0
      000BC1 42 04            [12] 3353 	orl	ar4,a
      000BC3 8A 82            [24] 3354 	mov	dpl,r2
      000BC5 8B 83            [24] 3355 	mov	dph,r3
      000BC7 8E F0            [24] 3356 	mov	b,r6
      000BC9 EC               [12] 3357 	mov	a,r4
      000BCA 12r00r00         [24] 3358 	lcall	__gptrput
                                   3359 ;	../../../core/net/sicslowpan.c:644: &UIP_IP_BUF->srcipaddr, &uip_lladdr);
                                   3360 ;	../../../core/net/sicslowpan.c:643: iphc1 |= compress_addr_64(SICSLOWPAN_IPHC_SAM_BIT,
      000BCD 74r00            [12] 3361 	mov	a,#_uip_lladdr
      000BCF C0 E0            [24] 3362 	push	acc
      000BD1 74s00            [12] 3363 	mov	a,#(_uip_lladdr >> 8)
      000BD3 C0 E0            [24] 3364 	push	acc
      000BD5 E4               [12] 3365 	clr	a
      000BD6 C0 E0            [24] 3366 	push	acc
      000BD8 74r08            [12] 3367 	mov	a,#(_uip_aligned_buf + 0x0008)
      000BDA C0 E0            [24] 3368 	push	acc
      000BDC 74s00            [12] 3369 	mov	a,#((_uip_aligned_buf + 0x0008) >> 8)
      000BDE C0 E0            [24] 3370 	push	acc
      000BE0 E4               [12] 3371 	clr	a
      000BE1 C0 E0            [24] 3372 	push	acc
      000BE3 75 82 04         [24] 3373 	mov	dpl,#0x04
      000BE6 78r2D            [12] 3374 	mov	r0,#_compress_addr_64
      000BE8 79s02            [12] 3375 	mov	r1,#(_compress_addr_64 >> 8)
      000BEA 7As00            [12] 3376 	mov	r2,#(_compress_addr_64 >> 16)
      000BEC 12r00r00         [24] 3377 	lcall	__sdcc_banked_call
      000BEF AF 82            [24] 3378 	mov	r7,dpl
      000BF1 E5 81            [12] 3379 	mov	a,sp
      000BF3 24 FA            [12] 3380 	add	a,#0xfa
      000BF5 F5 81            [12] 3381 	mov	sp,a
      000BF7 24 F4            [12] 3382 	add	a,#0xf4
      000BF9 F8               [12] 3383 	mov	r0,a
      000BFA EF               [12] 3384 	mov	a,r7
      000BFB 46               [12] 3385 	orl	a,@r0
      000BFC FE               [12] 3386 	mov	r6,a
      000BFD 02r0CrB3         [24] 3387 	ljmp	00137$
      000C00                       3388 00133$:
                                   3389 ;	../../../core/net/sicslowpan.c:646: } else if(uip_is_addr_link_local(&UIP_IP_BUF->srcipaddr) &&
      000C00 90r00r08         [24] 3390 	mov	dptr,#(_uip_aligned_buf + 0x0008)
      000C03 E0               [24] 3391 	movx	a,@dptr
      000C04 FF               [12] 3392 	mov	r7,a
      000C05 BF FE 5C         [24] 3393 	cjne	r7,#0xfe,00126$
      000C08 90r00r09         [24] 3394 	mov	dptr,#(_uip_aligned_buf + 0x0009)
      000C0B E0               [24] 3395 	movx	a,@dptr
      000C0C FF               [12] 3396 	mov	r7,a
      000C0D BF 80 54         [24] 3397 	cjne	r7,#0x80,00126$
                                   3398 ;	../../../core/net/sicslowpan.c:647: UIP_IP_BUF->destipaddr.u16[1] == 0 &&
      000C10 90r00r1A         [24] 3399 	mov	dptr,#(_uip_aligned_buf + 0x001a)
      000C13 E0               [24] 3400 	movx	a,@dptr
      000C14 FD               [12] 3401 	mov	r5,a
      000C15 A3               [24] 3402 	inc	dptr
      000C16 E0               [24] 3403 	movx	a,@dptr
      000C17 FF               [12] 3404 	mov	r7,a
      000C18 4D               [12] 3405 	orl	a,r5
      000C19 70 49            [24] 3406 	jnz	00126$
                                   3407 ;	../../../core/net/sicslowpan.c:648: UIP_IP_BUF->destipaddr.u16[2] == 0 &&
      000C1B 90r00r1C         [24] 3408 	mov	dptr,#(_uip_aligned_buf + 0x001c)
      000C1E E0               [24] 3409 	movx	a,@dptr
      000C1F FD               [12] 3410 	mov	r5,a
      000C20 A3               [24] 3411 	inc	dptr
      000C21 E0               [24] 3412 	movx	a,@dptr
      000C22 FF               [12] 3413 	mov	r7,a
      000C23 4D               [12] 3414 	orl	a,r5
      000C24 70 3E            [24] 3415 	jnz	00126$
                                   3416 ;	../../../core/net/sicslowpan.c:649: UIP_IP_BUF->destipaddr.u16[3] == 0) {
      000C26 90r00r1E         [24] 3417 	mov	dptr,#(_uip_aligned_buf + 0x001e)
      000C29 E0               [24] 3418 	movx	a,@dptr
      000C2A FD               [12] 3419 	mov	r5,a
      000C2B A3               [24] 3420 	inc	dptr
      000C2C E0               [24] 3421 	movx	a,@dptr
      000C2D FF               [12] 3422 	mov	r7,a
      000C2E 4D               [12] 3423 	orl	a,r5
      000C2F 70 33            [24] 3424 	jnz	00126$
                                   3425 ;	../../../core/net/sicslowpan.c:651: &UIP_IP_BUF->srcipaddr, &uip_lladdr);
                                   3426 ;	../../../core/net/sicslowpan.c:650: iphc1 |= compress_addr_64(SICSLOWPAN_IPHC_SAM_BIT,
      000C31 C0 06            [24] 3427 	push	ar6
      000C33 74r00            [12] 3428 	mov	a,#_uip_lladdr
      000C35 C0 E0            [24] 3429 	push	acc
      000C37 74s00            [12] 3430 	mov	a,#(_uip_lladdr >> 8)
      000C39 C0 E0            [24] 3431 	push	acc
      000C3B E4               [12] 3432 	clr	a
      000C3C C0 E0            [24] 3433 	push	acc
      000C3E 74r08            [12] 3434 	mov	a,#(_uip_aligned_buf + 0x0008)
      000C40 C0 E0            [24] 3435 	push	acc
      000C42 74s00            [12] 3436 	mov	a,#((_uip_aligned_buf + 0x0008) >> 8)
      000C44 C0 E0            [24] 3437 	push	acc
      000C46 E4               [12] 3438 	clr	a
      000C47 C0 E0            [24] 3439 	push	acc
      000C49 75 82 04         [24] 3440 	mov	dpl,#0x04
      000C4C 78r2D            [12] 3441 	mov	r0,#_compress_addr_64
      000C4E 79s02            [12] 3442 	mov	r1,#(_compress_addr_64 >> 8)
      000C50 7As00            [12] 3443 	mov	r2,#(_compress_addr_64 >> 16)
      000C52 12r00r00         [24] 3444 	lcall	__sdcc_banked_call
      000C55 AF 82            [24] 3445 	mov	r7,dpl
      000C57 E5 81            [12] 3446 	mov	a,sp
      000C59 24 FA            [12] 3447 	add	a,#0xfa
      000C5B F5 81            [12] 3448 	mov	sp,a
      000C5D D0 06            [24] 3449 	pop	ar6
      000C5F EF               [12] 3450 	mov	a,r7
      000C60 42 06            [12] 3451 	orl	ar6,a
      000C62 80 4F            [24] 3452 	sjmp	00137$
      000C64                       3453 00126$:
                                   3454 ;	../../../core/net/sicslowpan.c:655: memcpy(hc06_ptr, &UIP_IP_BUF->srcipaddr.u16[0], 16);
      000C64 90r00r15         [24] 3455 	mov	dptr,#_hc06_ptr
      000C67 E0               [24] 3456 	movx	a,@dptr
      000C68 FC               [12] 3457 	mov	r4,a
      000C69 A3               [24] 3458 	inc	dptr
      000C6A E0               [24] 3459 	movx	a,@dptr
      000C6B FD               [12] 3460 	mov	r5,a
      000C6C A3               [24] 3461 	inc	dptr
      000C6D E0               [24] 3462 	movx	a,@dptr
      000C6E FF               [12] 3463 	mov	r7,a
      000C6F C0 06            [24] 3464 	push	ar6
      000C71 74 10            [12] 3465 	mov	a,#0x10
      000C73 C0 E0            [24] 3466 	push	acc
      000C75 E4               [12] 3467 	clr	a
      000C76 C0 E0            [24] 3468 	push	acc
      000C78 74r08            [12] 3469 	mov	a,#(_uip_aligned_buf + 0x0008)
      000C7A C0 E0            [24] 3470 	push	acc
      000C7C 74s00            [12] 3471 	mov	a,#((_uip_aligned_buf + 0x0008) >> 8)
      000C7E C0 E0            [24] 3472 	push	acc
      000C80 E4               [12] 3473 	clr	a
      000C81 C0 E0            [24] 3474 	push	acc
      000C83 8C 82            [24] 3475 	mov	dpl,r4
      000C85 8D 83            [24] 3476 	mov	dph,r5
      000C87 8F F0            [24] 3477 	mov	b,r7
      000C89 78r00            [12] 3478 	mov	r0,#___memcpy
      000C8B 79s00            [12] 3479 	mov	r1,#(___memcpy >> 8)
      000C8D 7As00            [12] 3480 	mov	r2,#(___memcpy >> 16)
      000C8F 12r00r00         [24] 3481 	lcall	__sdcc_banked_call
      000C92 E5 81            [12] 3482 	mov	a,sp
      000C94 24 FB            [12] 3483 	add	a,#0xfb
      000C96 F5 81            [12] 3484 	mov	sp,a
      000C98 D0 06            [24] 3485 	pop	ar6
                                   3486 ;	../../../core/net/sicslowpan.c:656: hc06_ptr += 16;
      000C9A 90r00r15         [24] 3487 	mov	dptr,#_hc06_ptr
      000C9D E0               [24] 3488 	movx	a,@dptr
      000C9E FC               [12] 3489 	mov	r4,a
      000C9F A3               [24] 3490 	inc	dptr
      000CA0 E0               [24] 3491 	movx	a,@dptr
      000CA1 FD               [12] 3492 	mov	r5,a
      000CA2 A3               [24] 3493 	inc	dptr
      000CA3 E0               [24] 3494 	movx	a,@dptr
      000CA4 FF               [12] 3495 	mov	r7,a
      000CA5 90r00r15         [24] 3496 	mov	dptr,#_hc06_ptr
      000CA8 74 10            [12] 3497 	mov	a,#0x10
      000CAA 2C               [12] 3498 	add	a,r4
      000CAB F0               [24] 3499 	movx	@dptr,a
      000CAC E4               [12] 3500 	clr	a
      000CAD 3D               [12] 3501 	addc	a,r5
      000CAE A3               [24] 3502 	inc	dptr
      000CAF F0               [24] 3503 	movx	@dptr,a
      000CB0 EF               [12] 3504 	mov	a,r7
      000CB1 A3               [24] 3505 	inc	dptr
      000CB2 F0               [24] 3506 	movx	@dptr,a
      000CB3                       3507 00137$:
                                   3508 ;	../../../core/net/sicslowpan.c:660: if(uip_is_addr_mcast(&UIP_IP_BUF->destipaddr)) {
      000CB3 90r00r18         [24] 3509 	mov	dptr,#(_uip_aligned_buf + 0x0018)
      000CB6 E0               [24] 3510 	movx	a,@dptr
      000CB7 FF               [12] 3511 	mov	r7,a
      000CB8 BF FF 02         [24] 3512 	cjne	r7,#0xff,00577$
      000CBB 80 03            [24] 3513 	sjmp	00578$
      000CBD                       3514 00577$:
      000CBD 02r0Fr13         [24] 3515 	ljmp	00181$
      000CC0                       3516 00578$:
                                   3517 ;	../../../core/net/sicslowpan.c:662: iphc1 |= SICSLOWPAN_IPHC_M;
      000CC0 43 06 08         [24] 3518 	orl	ar6,#0x08
                                   3519 ;	../../../core/net/sicslowpan.c:663: if(sicslowpan_is_mcast_addr_compressable8(&UIP_IP_BUF->destipaddr)) {
      000CC3 90r00r19         [24] 3520 	mov	dptr,#(_uip_aligned_buf + 0x0019)
      000CC6 E0               [24] 3521 	movx	a,@dptr
      000CC7 FF               [12] 3522 	mov	r7,a
      000CC8 BF 02 02         [24] 3523 	cjne	r7,#0x02,00579$
      000CCB 80 03            [24] 3524 	sjmp	00580$
      000CCD                       3525 00579$:
      000CCD 02r0Dr53         [24] 3526 	ljmp	00161$
      000CD0                       3527 00580$:
      000CD0 90r00r1A         [24] 3528 	mov	dptr,#(_uip_aligned_buf + 0x001a)
      000CD3 E0               [24] 3529 	movx	a,@dptr
      000CD4 FD               [12] 3530 	mov	r5,a
      000CD5 A3               [24] 3531 	inc	dptr
      000CD6 E0               [24] 3532 	movx	a,@dptr
      000CD7 FF               [12] 3533 	mov	r7,a
      000CD8 4D               [12] 3534 	orl	a,r5
      000CD9 60 03            [24] 3535 	jz	00581$
      000CDB 02r0Dr53         [24] 3536 	ljmp	00161$
      000CDE                       3537 00581$:
      000CDE 90r00r1C         [24] 3538 	mov	dptr,#(_uip_aligned_buf + 0x001c)
      000CE1 E0               [24] 3539 	movx	a,@dptr
      000CE2 FD               [12] 3540 	mov	r5,a
      000CE3 A3               [24] 3541 	inc	dptr
      000CE4 E0               [24] 3542 	movx	a,@dptr
      000CE5 FF               [12] 3543 	mov	r7,a
      000CE6 4D               [12] 3544 	orl	a,r5
      000CE7 70 6A            [24] 3545 	jnz	00161$
      000CE9 90r00r1E         [24] 3546 	mov	dptr,#(_uip_aligned_buf + 0x001e)
      000CEC E0               [24] 3547 	movx	a,@dptr
      000CED FD               [12] 3548 	mov	r5,a
      000CEE A3               [24] 3549 	inc	dptr
      000CEF E0               [24] 3550 	movx	a,@dptr
      000CF0 FF               [12] 3551 	mov	r7,a
      000CF1 4D               [12] 3552 	orl	a,r5
      000CF2 70 5F            [24] 3553 	jnz	00161$
      000CF4 90r00r20         [24] 3554 	mov	dptr,#(_uip_aligned_buf + 0x0020)
      000CF7 E0               [24] 3555 	movx	a,@dptr
      000CF8 FD               [12] 3556 	mov	r5,a
      000CF9 A3               [24] 3557 	inc	dptr
      000CFA E0               [24] 3558 	movx	a,@dptr
      000CFB FF               [12] 3559 	mov	r7,a
      000CFC 4D               [12] 3560 	orl	a,r5
      000CFD 70 54            [24] 3561 	jnz	00161$
      000CFF 90r00r22         [24] 3562 	mov	dptr,#(_uip_aligned_buf + 0x0022)
      000D02 E0               [24] 3563 	movx	a,@dptr
      000D03 FD               [12] 3564 	mov	r5,a
      000D04 A3               [24] 3565 	inc	dptr
      000D05 E0               [24] 3566 	movx	a,@dptr
      000D06 FF               [12] 3567 	mov	r7,a
      000D07 4D               [12] 3568 	orl	a,r5
      000D08 70 49            [24] 3569 	jnz	00161$
      000D0A 90r00r24         [24] 3570 	mov	dptr,#(_uip_aligned_buf + 0x0024)
      000D0D E0               [24] 3571 	movx	a,@dptr
      000D0E FD               [12] 3572 	mov	r5,a
      000D0F A3               [24] 3573 	inc	dptr
      000D10 E0               [24] 3574 	movx	a,@dptr
      000D11 FF               [12] 3575 	mov	r7,a
      000D12 4D               [12] 3576 	orl	a,r5
      000D13 70 3E            [24] 3577 	jnz	00161$
      000D15 90r00r26         [24] 3578 	mov	dptr,#(_uip_aligned_buf + 0x0026)
      000D18 E0               [24] 3579 	movx	a,@dptr
      000D19 70 38            [24] 3580 	jnz	00161$
                                   3581 ;	../../../core/net/sicslowpan.c:664: iphc1 |= SICSLOWPAN_IPHC_DAM_11;
      000D1B 43 06 03         [24] 3582 	orl	ar6,#0x03
                                   3583 ;	../../../core/net/sicslowpan.c:666: *hc06_ptr = UIP_IP_BUF->destipaddr.u8[15];
      000D1E 90r00r15         [24] 3584 	mov	dptr,#_hc06_ptr
      000D21 E0               [24] 3585 	movx	a,@dptr
      000D22 FC               [12] 3586 	mov	r4,a
      000D23 A3               [24] 3587 	inc	dptr
      000D24 E0               [24] 3588 	movx	a,@dptr
      000D25 FD               [12] 3589 	mov	r5,a
      000D26 A3               [24] 3590 	inc	dptr
      000D27 E0               [24] 3591 	movx	a,@dptr
      000D28 FF               [12] 3592 	mov	r7,a
      000D29 90r00r27         [24] 3593 	mov	dptr,#(_uip_aligned_buf + 0x0027)
      000D2C E0               [24] 3594 	movx	a,@dptr
      000D2D FB               [12] 3595 	mov	r3,a
      000D2E 8C 82            [24] 3596 	mov	dpl,r4
      000D30 8D 83            [24] 3597 	mov	dph,r5
      000D32 8F F0            [24] 3598 	mov	b,r7
      000D34 12r00r00         [24] 3599 	lcall	__gptrput
                                   3600 ;	../../../core/net/sicslowpan.c:667: hc06_ptr += 1;
      000D37 90r00r15         [24] 3601 	mov	dptr,#_hc06_ptr
      000D3A E0               [24] 3602 	movx	a,@dptr
      000D3B FC               [12] 3603 	mov	r4,a
      000D3C A3               [24] 3604 	inc	dptr
      000D3D E0               [24] 3605 	movx	a,@dptr
      000D3E FD               [12] 3606 	mov	r5,a
      000D3F A3               [24] 3607 	inc	dptr
      000D40 E0               [24] 3608 	movx	a,@dptr
      000D41 FF               [12] 3609 	mov	r7,a
      000D42 90r00r15         [24] 3610 	mov	dptr,#_hc06_ptr
      000D45 74 01            [12] 3611 	mov	a,#0x01
      000D47 2C               [12] 3612 	add	a,r4
      000D48 F0               [24] 3613 	movx	@dptr,a
      000D49 E4               [12] 3614 	clr	a
      000D4A 3D               [12] 3615 	addc	a,r5
      000D4B A3               [24] 3616 	inc	dptr
      000D4C F0               [24] 3617 	movx	@dptr,a
      000D4D EF               [12] 3618 	mov	a,r7
      000D4E A3               [24] 3619 	inc	dptr
      000D4F F0               [24] 3620 	movx	@dptr,a
      000D50 02r10rA8         [24] 3621 	ljmp	00182$
      000D53                       3622 00161$:
                                   3623 ;	../../../core/net/sicslowpan.c:668: } else if(sicslowpan_is_mcast_addr_compressable32(&UIP_IP_BUF->destipaddr)) {
      000D53 90r00r1A         [24] 3624 	mov	dptr,#(_uip_aligned_buf + 0x001a)
      000D56 E0               [24] 3625 	movx	a,@dptr
      000D57 FD               [12] 3626 	mov	r5,a
      000D58 A3               [24] 3627 	inc	dptr
      000D59 E0               [24] 3628 	movx	a,@dptr
      000D5A FF               [12] 3629 	mov	r7,a
      000D5B 4D               [12] 3630 	orl	a,r5
      000D5C 60 03            [24] 3631 	jz	00588$
      000D5E 02r0Er11         [24] 3632 	ljmp	00153$
      000D61                       3633 00588$:
      000D61 90r00r1C         [24] 3634 	mov	dptr,#(_uip_aligned_buf + 0x001c)
      000D64 E0               [24] 3635 	movx	a,@dptr
      000D65 FD               [12] 3636 	mov	r5,a
      000D66 A3               [24] 3637 	inc	dptr
      000D67 E0               [24] 3638 	movx	a,@dptr
      000D68 FF               [12] 3639 	mov	r7,a
      000D69 4D               [12] 3640 	orl	a,r5
      000D6A 60 03            [24] 3641 	jz	00589$
      000D6C 02r0Er11         [24] 3642 	ljmp	00153$
      000D6F                       3643 00589$:
      000D6F 90r00r1E         [24] 3644 	mov	dptr,#(_uip_aligned_buf + 0x001e)
      000D72 E0               [24] 3645 	movx	a,@dptr
      000D73 FD               [12] 3646 	mov	r5,a
      000D74 A3               [24] 3647 	inc	dptr
      000D75 E0               [24] 3648 	movx	a,@dptr
      000D76 FF               [12] 3649 	mov	r7,a
      000D77 4D               [12] 3650 	orl	a,r5
      000D78 60 03            [24] 3651 	jz	00590$
      000D7A 02r0Er11         [24] 3652 	ljmp	00153$
      000D7D                       3653 00590$:
      000D7D 90r00r20         [24] 3654 	mov	dptr,#(_uip_aligned_buf + 0x0020)
      000D80 E0               [24] 3655 	movx	a,@dptr
      000D81 FD               [12] 3656 	mov	r5,a
      000D82 A3               [24] 3657 	inc	dptr
      000D83 E0               [24] 3658 	movx	a,@dptr
      000D84 FF               [12] 3659 	mov	r7,a
      000D85 4D               [12] 3660 	orl	a,r5
      000D86 60 03            [24] 3661 	jz	00591$
      000D88 02r0Er11         [24] 3662 	ljmp	00153$
      000D8B                       3663 00591$:
      000D8B 90r00r22         [24] 3664 	mov	dptr,#(_uip_aligned_buf + 0x0022)
      000D8E E0               [24] 3665 	movx	a,@dptr
      000D8F FD               [12] 3666 	mov	r5,a
      000D90 A3               [24] 3667 	inc	dptr
      000D91 E0               [24] 3668 	movx	a,@dptr
      000D92 FF               [12] 3669 	mov	r7,a
      000D93 4D               [12] 3670 	orl	a,r5
      000D94 60 03            [24] 3671 	jz	00592$
      000D96 02r0Er11         [24] 3672 	ljmp	00153$
      000D99                       3673 00592$:
      000D99 90r00r24         [24] 3674 	mov	dptr,#(_uip_aligned_buf + 0x0024)
      000D9C E0               [24] 3675 	movx	a,@dptr
      000D9D 70 72            [24] 3676 	jnz	00153$
                                   3677 ;	../../../core/net/sicslowpan.c:669: iphc1 |= SICSLOWPAN_IPHC_DAM_10;
      000D9F 43 06 02         [24] 3678 	orl	ar6,#0x02
                                   3679 ;	../../../core/net/sicslowpan.c:671: *hc06_ptr = UIP_IP_BUF->destipaddr.u8[1];
      000DA2 90r00r15         [24] 3680 	mov	dptr,#_hc06_ptr
      000DA5 E0               [24] 3681 	movx	a,@dptr
      000DA6 FC               [12] 3682 	mov	r4,a
      000DA7 A3               [24] 3683 	inc	dptr
      000DA8 E0               [24] 3684 	movx	a,@dptr
      000DA9 FD               [12] 3685 	mov	r5,a
      000DAA A3               [24] 3686 	inc	dptr
      000DAB E0               [24] 3687 	movx	a,@dptr
      000DAC FF               [12] 3688 	mov	r7,a
      000DAD 90r00r19         [24] 3689 	mov	dptr,#(_uip_aligned_buf + 0x0019)
      000DB0 E0               [24] 3690 	movx	a,@dptr
      000DB1 8C 82            [24] 3691 	mov	dpl,r4
      000DB3 8D 83            [24] 3692 	mov	dph,r5
      000DB5 8F F0            [24] 3693 	mov	b,r7
      000DB7 12r00r00         [24] 3694 	lcall	__gptrput
                                   3695 ;	../../../core/net/sicslowpan.c:672: memcpy(hc06_ptr + 1, &UIP_IP_BUF->destipaddr.u8[13], 3);
      000DBA 90r00r15         [24] 3696 	mov	dptr,#_hc06_ptr
      000DBD E0               [24] 3697 	movx	a,@dptr
      000DBE FC               [12] 3698 	mov	r4,a
      000DBF A3               [24] 3699 	inc	dptr
      000DC0 E0               [24] 3700 	movx	a,@dptr
      000DC1 FD               [12] 3701 	mov	r5,a
      000DC2 A3               [24] 3702 	inc	dptr
      000DC3 E0               [24] 3703 	movx	a,@dptr
      000DC4 FF               [12] 3704 	mov	r7,a
      000DC5 0C               [12] 3705 	inc	r4
      000DC6 BC 00 01         [24] 3706 	cjne	r4,#0x00,00594$
      000DC9 0D               [12] 3707 	inc	r5
      000DCA                       3708 00594$:
      000DCA C0 06            [24] 3709 	push	ar6
      000DCC 74 03            [12] 3710 	mov	a,#0x03
      000DCE C0 E0            [24] 3711 	push	acc
      000DD0 E4               [12] 3712 	clr	a
      000DD1 C0 E0            [24] 3713 	push	acc
      000DD3 74r25            [12] 3714 	mov	a,#(_uip_aligned_buf + 0x0025)
      000DD5 C0 E0            [24] 3715 	push	acc
      000DD7 74s00            [12] 3716 	mov	a,#((_uip_aligned_buf + 0x0025) >> 8)
      000DD9 C0 E0            [24] 3717 	push	acc
      000DDB E4               [12] 3718 	clr	a
      000DDC C0 E0            [24] 3719 	push	acc
      000DDE 8C 82            [24] 3720 	mov	dpl,r4
      000DE0 8D 83            [24] 3721 	mov	dph,r5
      000DE2 8F F0            [24] 3722 	mov	b,r7
      000DE4 78r00            [12] 3723 	mov	r0,#___memcpy
      000DE6 79s00            [12] 3724 	mov	r1,#(___memcpy >> 8)
      000DE8 7As00            [12] 3725 	mov	r2,#(___memcpy >> 16)
      000DEA 12r00r00         [24] 3726 	lcall	__sdcc_banked_call
      000DED E5 81            [12] 3727 	mov	a,sp
      000DEF 24 FB            [12] 3728 	add	a,#0xfb
      000DF1 F5 81            [12] 3729 	mov	sp,a
      000DF3 D0 06            [24] 3730 	pop	ar6
                                   3731 ;	../../../core/net/sicslowpan.c:673: hc06_ptr += 4;
      000DF5 90r00r15         [24] 3732 	mov	dptr,#_hc06_ptr
      000DF8 E0               [24] 3733 	movx	a,@dptr
      000DF9 FC               [12] 3734 	mov	r4,a
      000DFA A3               [24] 3735 	inc	dptr
      000DFB E0               [24] 3736 	movx	a,@dptr
      000DFC FD               [12] 3737 	mov	r5,a
      000DFD A3               [24] 3738 	inc	dptr
      000DFE E0               [24] 3739 	movx	a,@dptr
      000DFF FF               [12] 3740 	mov	r7,a
      000E00 90r00r15         [24] 3741 	mov	dptr,#_hc06_ptr
      000E03 74 04            [12] 3742 	mov	a,#0x04
      000E05 2C               [12] 3743 	add	a,r4
      000E06 F0               [24] 3744 	movx	@dptr,a
      000E07 E4               [12] 3745 	clr	a
      000E08 3D               [12] 3746 	addc	a,r5
      000E09 A3               [24] 3747 	inc	dptr
      000E0A F0               [24] 3748 	movx	@dptr,a
      000E0B EF               [12] 3749 	mov	a,r7
      000E0C A3               [24] 3750 	inc	dptr
      000E0D F0               [24] 3751 	movx	@dptr,a
      000E0E 02r10rA8         [24] 3752 	ljmp	00182$
      000E11                       3753 00153$:
                                   3754 ;	../../../core/net/sicslowpan.c:674: } else if(sicslowpan_is_mcast_addr_compressable48(&UIP_IP_BUF->destipaddr)) {
      000E11 90r00r1A         [24] 3755 	mov	dptr,#(_uip_aligned_buf + 0x001a)
      000E14 E0               [24] 3756 	movx	a,@dptr
      000E15 FD               [12] 3757 	mov	r5,a
      000E16 A3               [24] 3758 	inc	dptr
      000E17 E0               [24] 3759 	movx	a,@dptr
      000E18 FF               [12] 3760 	mov	r7,a
      000E19 4D               [12] 3761 	orl	a,r5
      000E1A 60 03            [24] 3762 	jz	00595$
      000E1C 02r0ErC1         [24] 3763 	ljmp	00146$
      000E1F                       3764 00595$:
      000E1F 90r00r1C         [24] 3765 	mov	dptr,#(_uip_aligned_buf + 0x001c)
      000E22 E0               [24] 3766 	movx	a,@dptr
      000E23 FD               [12] 3767 	mov	r5,a
      000E24 A3               [24] 3768 	inc	dptr
      000E25 E0               [24] 3769 	movx	a,@dptr
      000E26 FF               [12] 3770 	mov	r7,a
      000E27 4D               [12] 3771 	orl	a,r5
      000E28 60 03            [24] 3772 	jz	00596$
      000E2A 02r0ErC1         [24] 3773 	ljmp	00146$
      000E2D                       3774 00596$:
      000E2D 90r00r1E         [24] 3775 	mov	dptr,#(_uip_aligned_buf + 0x001e)
      000E30 E0               [24] 3776 	movx	a,@dptr
      000E31 FD               [12] 3777 	mov	r5,a
      000E32 A3               [24] 3778 	inc	dptr
      000E33 E0               [24] 3779 	movx	a,@dptr
      000E34 FF               [12] 3780 	mov	r7,a
      000E35 4D               [12] 3781 	orl	a,r5
      000E36 60 03            [24] 3782 	jz	00597$
      000E38 02r0ErC1         [24] 3783 	ljmp	00146$
      000E3B                       3784 00597$:
      000E3B 90r00r20         [24] 3785 	mov	dptr,#(_uip_aligned_buf + 0x0020)
      000E3E E0               [24] 3786 	movx	a,@dptr
      000E3F FD               [12] 3787 	mov	r5,a
      000E40 A3               [24] 3788 	inc	dptr
      000E41 E0               [24] 3789 	movx	a,@dptr
      000E42 FF               [12] 3790 	mov	r7,a
      000E43 4D               [12] 3791 	orl	a,r5
      000E44 60 03            [24] 3792 	jz	00598$
      000E46 02r0ErC1         [24] 3793 	ljmp	00146$
      000E49                       3794 00598$:
      000E49 90r00r22         [24] 3795 	mov	dptr,#(_uip_aligned_buf + 0x0022)
      000E4C E0               [24] 3796 	movx	a,@dptr
      000E4D 70 72            [24] 3797 	jnz	00146$
                                   3798 ;	../../../core/net/sicslowpan.c:675: iphc1 |= SICSLOWPAN_IPHC_DAM_01;
      000E4F 43 06 01         [24] 3799 	orl	ar6,#0x01
                                   3800 ;	../../../core/net/sicslowpan.c:677: *hc06_ptr = UIP_IP_BUF->destipaddr.u8[1];
      000E52 90r00r15         [24] 3801 	mov	dptr,#_hc06_ptr
      000E55 E0               [24] 3802 	movx	a,@dptr
      000E56 FC               [12] 3803 	mov	r4,a
      000E57 A3               [24] 3804 	inc	dptr
      000E58 E0               [24] 3805 	movx	a,@dptr
      000E59 FD               [12] 3806 	mov	r5,a
      000E5A A3               [24] 3807 	inc	dptr
      000E5B E0               [24] 3808 	movx	a,@dptr
      000E5C FF               [12] 3809 	mov	r7,a
      000E5D 90r00r19         [24] 3810 	mov	dptr,#(_uip_aligned_buf + 0x0019)
      000E60 E0               [24] 3811 	movx	a,@dptr
      000E61 8C 82            [24] 3812 	mov	dpl,r4
      000E63 8D 83            [24] 3813 	mov	dph,r5
      000E65 8F F0            [24] 3814 	mov	b,r7
      000E67 12r00r00         [24] 3815 	lcall	__gptrput
                                   3816 ;	../../../core/net/sicslowpan.c:678: memcpy(hc06_ptr + 1, &UIP_IP_BUF->destipaddr.u8[11], 5);
      000E6A 90r00r15         [24] 3817 	mov	dptr,#_hc06_ptr
      000E6D E0               [24] 3818 	movx	a,@dptr
      000E6E FC               [12] 3819 	mov	r4,a
      000E6F A3               [24] 3820 	inc	dptr
      000E70 E0               [24] 3821 	movx	a,@dptr
      000E71 FD               [12] 3822 	mov	r5,a
      000E72 A3               [24] 3823 	inc	dptr
      000E73 E0               [24] 3824 	movx	a,@dptr
      000E74 FF               [12] 3825 	mov	r7,a
      000E75 0C               [12] 3826 	inc	r4
      000E76 BC 00 01         [24] 3827 	cjne	r4,#0x00,00600$
      000E79 0D               [12] 3828 	inc	r5
      000E7A                       3829 00600$:
      000E7A C0 06            [24] 3830 	push	ar6
      000E7C 74 05            [12] 3831 	mov	a,#0x05
      000E7E C0 E0            [24] 3832 	push	acc
      000E80 E4               [12] 3833 	clr	a
      000E81 C0 E0            [24] 3834 	push	acc
      000E83 74r23            [12] 3835 	mov	a,#(_uip_aligned_buf + 0x0023)
      000E85 C0 E0            [24] 3836 	push	acc
      000E87 74s00            [12] 3837 	mov	a,#((_uip_aligned_buf + 0x0023) >> 8)
      000E89 C0 E0            [24] 3838 	push	acc
      000E8B E4               [12] 3839 	clr	a
      000E8C C0 E0            [24] 3840 	push	acc
      000E8E 8C 82            [24] 3841 	mov	dpl,r4
      000E90 8D 83            [24] 3842 	mov	dph,r5
      000E92 8F F0            [24] 3843 	mov	b,r7
      000E94 78r00            [12] 3844 	mov	r0,#___memcpy
      000E96 79s00            [12] 3845 	mov	r1,#(___memcpy >> 8)
      000E98 7As00            [12] 3846 	mov	r2,#(___memcpy >> 16)
      000E9A 12r00r00         [24] 3847 	lcall	__sdcc_banked_call
      000E9D E5 81            [12] 3848 	mov	a,sp
      000E9F 24 FB            [12] 3849 	add	a,#0xfb
      000EA1 F5 81            [12] 3850 	mov	sp,a
      000EA3 D0 06            [24] 3851 	pop	ar6
                                   3852 ;	../../../core/net/sicslowpan.c:679: hc06_ptr += 6;
      000EA5 90r00r15         [24] 3853 	mov	dptr,#_hc06_ptr
      000EA8 E0               [24] 3854 	movx	a,@dptr
      000EA9 FC               [12] 3855 	mov	r4,a
      000EAA A3               [24] 3856 	inc	dptr
      000EAB E0               [24] 3857 	movx	a,@dptr
      000EAC FD               [12] 3858 	mov	r5,a
      000EAD A3               [24] 3859 	inc	dptr
      000EAE E0               [24] 3860 	movx	a,@dptr
      000EAF FF               [12] 3861 	mov	r7,a
      000EB0 90r00r15         [24] 3862 	mov	dptr,#_hc06_ptr
      000EB3 74 06            [12] 3863 	mov	a,#0x06
      000EB5 2C               [12] 3864 	add	a,r4
      000EB6 F0               [24] 3865 	movx	@dptr,a
      000EB7 E4               [12] 3866 	clr	a
      000EB8 3D               [12] 3867 	addc	a,r5
      000EB9 A3               [24] 3868 	inc	dptr
      000EBA F0               [24] 3869 	movx	@dptr,a
      000EBB EF               [12] 3870 	mov	a,r7
      000EBC A3               [24] 3871 	inc	dptr
      000EBD F0               [24] 3872 	movx	@dptr,a
      000EBE 02r10rA8         [24] 3873 	ljmp	00182$
      000EC1                       3874 00146$:
                                   3875 ;	../../../core/net/sicslowpan.c:683: memcpy(hc06_ptr, &UIP_IP_BUF->destipaddr.u8[0], 16);
      000EC1 90r00r15         [24] 3876 	mov	dptr,#_hc06_ptr
      000EC4 E0               [24] 3877 	movx	a,@dptr
      000EC5 FC               [12] 3878 	mov	r4,a
      000EC6 A3               [24] 3879 	inc	dptr
      000EC7 E0               [24] 3880 	movx	a,@dptr
      000EC8 FD               [12] 3881 	mov	r5,a
      000EC9 A3               [24] 3882 	inc	dptr
      000ECA E0               [24] 3883 	movx	a,@dptr
      000ECB FF               [12] 3884 	mov	r7,a
      000ECC C0 06            [24] 3885 	push	ar6
      000ECE 74 10            [12] 3886 	mov	a,#0x10
      000ED0 C0 E0            [24] 3887 	push	acc
      000ED2 E4               [12] 3888 	clr	a
      000ED3 C0 E0            [24] 3889 	push	acc
      000ED5 74r18            [12] 3890 	mov	a,#(_uip_aligned_buf + 0x0018)
      000ED7 C0 E0            [24] 3891 	push	acc
      000ED9 74s00            [12] 3892 	mov	a,#((_uip_aligned_buf + 0x0018) >> 8)
      000EDB C0 E0            [24] 3893 	push	acc
      000EDD E4               [12] 3894 	clr	a
      000EDE C0 E0            [24] 3895 	push	acc
      000EE0 8C 82            [24] 3896 	mov	dpl,r4
      000EE2 8D 83            [24] 3897 	mov	dph,r5
      000EE4 8F F0            [24] 3898 	mov	b,r7
      000EE6 78r00            [12] 3899 	mov	r0,#___memcpy
      000EE8 79s00            [12] 3900 	mov	r1,#(___memcpy >> 8)
      000EEA 7As00            [12] 3901 	mov	r2,#(___memcpy >> 16)
      000EEC 12r00r00         [24] 3902 	lcall	__sdcc_banked_call
      000EEF E5 81            [12] 3903 	mov	a,sp
      000EF1 24 FB            [12] 3904 	add	a,#0xfb
      000EF3 F5 81            [12] 3905 	mov	sp,a
      000EF5 D0 06            [24] 3906 	pop	ar6
                                   3907 ;	../../../core/net/sicslowpan.c:684: hc06_ptr += 16;
      000EF7 90r00r15         [24] 3908 	mov	dptr,#_hc06_ptr
      000EFA E0               [24] 3909 	movx	a,@dptr
      000EFB FC               [12] 3910 	mov	r4,a
      000EFC A3               [24] 3911 	inc	dptr
      000EFD E0               [24] 3912 	movx	a,@dptr
      000EFE FD               [12] 3913 	mov	r5,a
      000EFF A3               [24] 3914 	inc	dptr
      000F00 E0               [24] 3915 	movx	a,@dptr
      000F01 FF               [12] 3916 	mov	r7,a
      000F02 90r00r15         [24] 3917 	mov	dptr,#_hc06_ptr
      000F05 74 10            [12] 3918 	mov	a,#0x10
      000F07 2C               [12] 3919 	add	a,r4
      000F08 F0               [24] 3920 	movx	@dptr,a
      000F09 E4               [12] 3921 	clr	a
      000F0A 3D               [12] 3922 	addc	a,r5
      000F0B A3               [24] 3923 	inc	dptr
      000F0C F0               [24] 3924 	movx	@dptr,a
      000F0D EF               [12] 3925 	mov	a,r7
      000F0E A3               [24] 3926 	inc	dptr
      000F0F F0               [24] 3927 	movx	@dptr,a
      000F10 02r10rA8         [24] 3928 	ljmp	00182$
      000F13                       3929 00181$:
                                   3930 ;	../../../core/net/sicslowpan.c:688: if((context = addr_context_lookup_by_prefix(&UIP_IP_BUF->destipaddr)) != NULL) {
      000F13 90r00r18         [24] 3931 	mov	dptr,#(_uip_aligned_buf + 0x0018)
      000F16 75 F0 00         [24] 3932 	mov	b,#0x00
      000F19 C0 06            [24] 3933 	push	ar6
      000F1B 78rE6            [12] 3934 	mov	r0,#_addr_context_lookup_by_prefix
      000F1D 79s00            [12] 3935 	mov	r1,#(_addr_context_lookup_by_prefix >> 8)
      000F1F 7As00            [12] 3936 	mov	r2,#(_addr_context_lookup_by_prefix >> 16)
      000F21 12r00r00         [24] 3937 	lcall	__sdcc_banked_call
      000F24 C8               [12] 3938 	xch	a,r0
      000F25 E5 81            [12] 3939 	mov	a,sp
      000F27 24 F5            [12] 3940 	add	a,#0xf5
      000F29 C8               [12] 3941 	xch	a,r0
      000F2A A6 82            [24] 3942 	mov	@r0,dpl
      000F2C 08               [12] 3943 	inc	r0
      000F2D A6 83            [24] 3944 	mov	@r0,dph
      000F2F 08               [12] 3945 	inc	r0
      000F30 A6 F0            [24] 3946 	mov	@r0,b
      000F32 D0 06            [24] 3947 	pop	ar6
      000F34 E5 81            [12] 3948 	mov	a,sp
      000F36 24 F6            [12] 3949 	add	a,#0xf6
      000F38 F8               [12] 3950 	mov	r0,a
      000F39 90r00r12         [24] 3951 	mov	dptr,#_context
      000F3C E6               [12] 3952 	mov	a,@r0
      000F3D F0               [24] 3953 	movx	@dptr,a
      000F3E 08               [12] 3954 	inc	r0
      000F3F E6               [12] 3955 	mov	a,@r0
      000F40 A3               [24] 3956 	inc	dptr
      000F41 F0               [24] 3957 	movx	@dptr,a
      000F42 08               [12] 3958 	inc	r0
      000F43 E6               [12] 3959 	mov	a,@r0
      000F44 A3               [24] 3960 	inc	dptr
      000F45 F0               [24] 3961 	movx	@dptr,a
      000F46 E5 81            [12] 3962 	mov	a,sp
      000F48 24 F6            [12] 3963 	add	a,#0xf6
      000F4A F8               [12] 3964 	mov	r0,a
      000F4B E6               [12] 3965 	mov	a,@r0
      000F4C 08               [12] 3966 	inc	r0
      000F4D 46               [12] 3967 	orl	a,@r0
      000F4E 70 03            [24] 3968 	jnz	00601$
      000F50 02r0FrED         [24] 3969 	ljmp	00178$
      000F53                       3970 00601$:
                                   3971 ;	../../../core/net/sicslowpan.c:690: iphc1 |= SICSLOWPAN_IPHC_DAC;
      000F53 A8 81            [24] 3972 	mov	r0,sp
      000F55 74 04            [12] 3973 	mov	a,#0x04
      000F57 4E               [12] 3974 	orl	a,r6
      000F58 F6               [12] 3975 	mov	@r0,a
                                   3976 ;	../../../core/net/sicslowpan.c:691: RIME_IPHC_BUF[2] |= context->number;
      000F59 90r00r03         [24] 3977 	mov	dptr,#_rime_hdr_len
      000F5C E0               [24] 3978 	movx	a,@dptr
      000F5D FE               [12] 3979 	mov	r6,a
      000F5E 90r00r00         [24] 3980 	mov	dptr,#_rime_ptr
      000F61 E0               [24] 3981 	movx	a,@dptr
      000F62 FA               [12] 3982 	mov	r2,a
      000F63 A3               [24] 3983 	inc	dptr
      000F64 E0               [24] 3984 	movx	a,@dptr
      000F65 FB               [12] 3985 	mov	r3,a
      000F66 A3               [24] 3986 	inc	dptr
      000F67 E0               [24] 3987 	movx	a,@dptr
      000F68 FF               [12] 3988 	mov	r7,a
      000F69 EE               [12] 3989 	mov	a,r6
      000F6A 2A               [12] 3990 	add	a,r2
      000F6B FA               [12] 3991 	mov	r2,a
      000F6C E4               [12] 3992 	clr	a
      000F6D 3B               [12] 3993 	addc	a,r3
      000F6E FB               [12] 3994 	mov	r3,a
      000F6F 74 02            [12] 3995 	mov	a,#0x02
      000F71 2A               [12] 3996 	add	a,r2
      000F72 FA               [12] 3997 	mov	r2,a
      000F73 E4               [12] 3998 	clr	a
      000F74 3B               [12] 3999 	addc	a,r3
      000F75 FB               [12] 4000 	mov	r3,a
      000F76 8F 06            [24] 4001 	mov	ar6,r7
      000F78 8A 82            [24] 4002 	mov	dpl,r2
      000F7A 8B 83            [24] 4003 	mov	dph,r3
      000F7C 8E F0            [24] 4004 	mov	b,r6
      000F7E E5 81            [12] 4005 	mov	a,sp
      000F80 24 F9            [12] 4006 	add	a,#0xf9
      000F82 F8               [12] 4007 	mov	r0,a
      000F83 12r00r00         [24] 4008 	lcall	__gptrget
      000F86 F6               [12] 4009 	mov	@r0,a
      000F87 E5 81            [12] 4010 	mov	a,sp
      000F89 24 F6            [12] 4011 	add	a,#0xf6
      000F8B F8               [12] 4012 	mov	r0,a
      000F8C 74 01            [12] 4013 	mov	a,#0x01
      000F8E 26               [12] 4014 	add	a,@r0
      000F8F FC               [12] 4015 	mov	r4,a
      000F90 E4               [12] 4016 	clr	a
      000F91 08               [12] 4017 	inc	r0
      000F92 36               [12] 4018 	addc	a,@r0
      000F93 FD               [12] 4019 	mov	r5,a
      000F94 08               [12] 4020 	inc	r0
      000F95 86 07            [24] 4021 	mov	ar7,@r0
      000F97 8C 82            [24] 4022 	mov	dpl,r4
      000F99 8D 83            [24] 4023 	mov	dph,r5
      000F9B 8F F0            [24] 4024 	mov	b,r7
      000F9D 12r00r00         [24] 4025 	lcall	__gptrget
      000FA0 FC               [12] 4026 	mov	r4,a
      000FA1 E5 81            [12] 4027 	mov	a,sp
      000FA3 24 F9            [12] 4028 	add	a,#0xf9
      000FA5 F8               [12] 4029 	mov	r0,a
      000FA6 E6               [12] 4030 	mov	a,@r0
      000FA7 42 04            [12] 4031 	orl	ar4,a
      000FA9 8A 82            [24] 4032 	mov	dpl,r2
      000FAB 8B 83            [24] 4033 	mov	dph,r3
      000FAD 8E F0            [24] 4034 	mov	b,r6
      000FAF EC               [12] 4035 	mov	a,r4
      000FB0 12r00r00         [24] 4036 	lcall	__gptrput
                                   4037 ;	../../../core/net/sicslowpan.c:695: &UIP_IP_BUF->destipaddr, (uip_lladdr_t *)rime_destaddr);
      000FB3 E5 81            [12] 4038 	mov	a,sp
      000FB5 24 F1            [12] 4039 	add	a,#0xf1
      000FB7 F8               [12] 4040 	mov	r0,a
      000FB8 86 04            [24] 4041 	mov	ar4,@r0
      000FBA 08               [12] 4042 	inc	r0
      000FBB 86 05            [24] 4043 	mov	ar5,@r0
      000FBD 08               [12] 4044 	inc	r0
      000FBE 86 07            [24] 4045 	mov	ar7,@r0
                                   4046 ;	../../../core/net/sicslowpan.c:694: iphc1 |= compress_addr_64(SICSLOWPAN_IPHC_DAM_BIT,
      000FC0 C0 04            [24] 4047 	push	ar4
      000FC2 C0 05            [24] 4048 	push	ar5
      000FC4 C0 07            [24] 4049 	push	ar7
      000FC6 74r18            [12] 4050 	mov	a,#(_uip_aligned_buf + 0x0018)
      000FC8 C0 E0            [24] 4051 	push	acc
      000FCA 74s00            [12] 4052 	mov	a,#((_uip_aligned_buf + 0x0018) >> 8)
      000FCC C0 E0            [24] 4053 	push	acc
      000FCE E4               [12] 4054 	clr	a
      000FCF C0 E0            [24] 4055 	push	acc
      000FD1 75 82 00         [24] 4056 	mov	dpl,#0x00
      000FD4 78r2D            [12] 4057 	mov	r0,#_compress_addr_64
      000FD6 79s02            [12] 4058 	mov	r1,#(_compress_addr_64 >> 8)
      000FD8 7As00            [12] 4059 	mov	r2,#(_compress_addr_64 >> 16)
      000FDA 12r00r00         [24] 4060 	lcall	__sdcc_banked_call
      000FDD AF 82            [24] 4061 	mov	r7,dpl
      000FDF E5 81            [12] 4062 	mov	a,sp
      000FE1 24 FA            [12] 4063 	add	a,#0xfa
      000FE3 F5 81            [12] 4064 	mov	sp,a
      000FE5 A8 81            [24] 4065 	mov	r0,sp
      000FE7 EF               [12] 4066 	mov	a,r7
      000FE8 46               [12] 4067 	orl	a,@r0
      000FE9 FE               [12] 4068 	mov	r6,a
      000FEA 02r10rA8         [24] 4069 	ljmp	00182$
      000FED                       4070 00178$:
                                   4071 ;	../../../core/net/sicslowpan.c:697: } else if(uip_is_addr_link_local(&UIP_IP_BUF->destipaddr) &&
      000FED 90r00r18         [24] 4072 	mov	dptr,#(_uip_aligned_buf + 0x0018)
      000FF0 E0               [24] 4073 	movx	a,@dptr
      000FF1 FF               [12] 4074 	mov	r7,a
      000FF2 BF FE 64         [24] 4075 	cjne	r7,#0xfe,00171$
      000FF5 90r00r19         [24] 4076 	mov	dptr,#(_uip_aligned_buf + 0x0019)
      000FF8 E0               [24] 4077 	movx	a,@dptr
      000FF9 FF               [12] 4078 	mov	r7,a
      000FFA BF 80 5C         [24] 4079 	cjne	r7,#0x80,00171$
                                   4080 ;	../../../core/net/sicslowpan.c:698: UIP_IP_BUF->destipaddr.u16[1] == 0 &&
      000FFD 90r00r1A         [24] 4081 	mov	dptr,#(_uip_aligned_buf + 0x001a)
      001000 E0               [24] 4082 	movx	a,@dptr
      001001 FD               [12] 4083 	mov	r5,a
      001002 A3               [24] 4084 	inc	dptr
      001003 E0               [24] 4085 	movx	a,@dptr
      001004 FF               [12] 4086 	mov	r7,a
      001005 4D               [12] 4087 	orl	a,r5
      001006 70 51            [24] 4088 	jnz	00171$
                                   4089 ;	../../../core/net/sicslowpan.c:699: UIP_IP_BUF->destipaddr.u16[2] == 0 &&
      001008 90r00r1C         [24] 4090 	mov	dptr,#(_uip_aligned_buf + 0x001c)
      00100B E0               [24] 4091 	movx	a,@dptr
      00100C FD               [12] 4092 	mov	r5,a
      00100D A3               [24] 4093 	inc	dptr
      00100E E0               [24] 4094 	movx	a,@dptr
      00100F FF               [12] 4095 	mov	r7,a
      001010 4D               [12] 4096 	orl	a,r5
      001011 70 46            [24] 4097 	jnz	00171$
                                   4098 ;	../../../core/net/sicslowpan.c:700: UIP_IP_BUF->destipaddr.u16[3] == 0) {
      001013 90r00r1E         [24] 4099 	mov	dptr,#(_uip_aligned_buf + 0x001e)
      001016 E0               [24] 4100 	movx	a,@dptr
      001017 FD               [12] 4101 	mov	r5,a
      001018 A3               [24] 4102 	inc	dptr
      001019 E0               [24] 4103 	movx	a,@dptr
      00101A FF               [12] 4104 	mov	r7,a
      00101B 4D               [12] 4105 	orl	a,r5
      00101C 70 3B            [24] 4106 	jnz	00171$
                                   4107 ;	../../../core/net/sicslowpan.c:702: &UIP_IP_BUF->destipaddr, (uip_lladdr_t *)rime_destaddr);
      00101E E5 81            [12] 4108 	mov	a,sp
      001020 24 F1            [12] 4109 	add	a,#0xf1
      001022 F8               [12] 4110 	mov	r0,a
      001023 86 04            [24] 4111 	mov	ar4,@r0
      001025 08               [12] 4112 	inc	r0
      001026 86 05            [24] 4113 	mov	ar5,@r0
      001028 08               [12] 4114 	inc	r0
      001029 86 07            [24] 4115 	mov	ar7,@r0
                                   4116 ;	../../../core/net/sicslowpan.c:701: iphc1 |= compress_addr_64(SICSLOWPAN_IPHC_DAM_BIT,
      00102B C0 06            [24] 4117 	push	ar6
      00102D C0 04            [24] 4118 	push	ar4
      00102F C0 05            [24] 4119 	push	ar5
      001031 C0 07            [24] 4120 	push	ar7
      001033 74r18            [12] 4121 	mov	a,#(_uip_aligned_buf + 0x0018)
      001035 C0 E0            [24] 4122 	push	acc
      001037 74s00            [12] 4123 	mov	a,#((_uip_aligned_buf + 0x0018) >> 8)
      001039 C0 E0            [24] 4124 	push	acc
      00103B E4               [12] 4125 	clr	a
      00103C C0 E0            [24] 4126 	push	acc
      00103E 75 82 00         [24] 4127 	mov	dpl,#0x00
      001041 78r2D            [12] 4128 	mov	r0,#_compress_addr_64
      001043 79s02            [12] 4129 	mov	r1,#(_compress_addr_64 >> 8)
      001045 7As00            [12] 4130 	mov	r2,#(_compress_addr_64 >> 16)
      001047 12r00r00         [24] 4131 	lcall	__sdcc_banked_call
      00104A AF 82            [24] 4132 	mov	r7,dpl
      00104C E5 81            [12] 4133 	mov	a,sp
      00104E 24 FA            [12] 4134 	add	a,#0xfa
      001050 F5 81            [12] 4135 	mov	sp,a
      001052 D0 06            [24] 4136 	pop	ar6
      001054 EF               [12] 4137 	mov	a,r7
      001055 42 06            [12] 4138 	orl	ar6,a
      001057 80 4F            [24] 4139 	sjmp	00182$
      001059                       4140 00171$:
                                   4141 ;	../../../core/net/sicslowpan.c:706: memcpy(hc06_ptr, &UIP_IP_BUF->destipaddr.u16[0], 16);
      001059 90r00r15         [24] 4142 	mov	dptr,#_hc06_ptr
      00105C E0               [24] 4143 	movx	a,@dptr
      00105D FC               [12] 4144 	mov	r4,a
      00105E A3               [24] 4145 	inc	dptr
      00105F E0               [24] 4146 	movx	a,@dptr
      001060 FD               [12] 4147 	mov	r5,a
      001061 A3               [24] 4148 	inc	dptr
      001062 E0               [24] 4149 	movx	a,@dptr
      001063 FF               [12] 4150 	mov	r7,a
      001064 C0 06            [24] 4151 	push	ar6
      001066 74 10            [12] 4152 	mov	a,#0x10
      001068 C0 E0            [24] 4153 	push	acc
      00106A E4               [12] 4154 	clr	a
      00106B C0 E0            [24] 4155 	push	acc
      00106D 74r18            [12] 4156 	mov	a,#(_uip_aligned_buf + 0x0018)
      00106F C0 E0            [24] 4157 	push	acc
      001071 74s00            [12] 4158 	mov	a,#((_uip_aligned_buf + 0x0018) >> 8)
      001073 C0 E0            [24] 4159 	push	acc
      001075 E4               [12] 4160 	clr	a
      001076 C0 E0            [24] 4161 	push	acc
      001078 8C 82            [24] 4162 	mov	dpl,r4
      00107A 8D 83            [24] 4163 	mov	dph,r5
      00107C 8F F0            [24] 4164 	mov	b,r7
      00107E 78r00            [12] 4165 	mov	r0,#___memcpy
      001080 79s00            [12] 4166 	mov	r1,#(___memcpy >> 8)
      001082 7As00            [12] 4167 	mov	r2,#(___memcpy >> 16)
      001084 12r00r00         [24] 4168 	lcall	__sdcc_banked_call
      001087 E5 81            [12] 4169 	mov	a,sp
      001089 24 FB            [12] 4170 	add	a,#0xfb
      00108B F5 81            [12] 4171 	mov	sp,a
      00108D D0 06            [24] 4172 	pop	ar6
                                   4173 ;	../../../core/net/sicslowpan.c:707: hc06_ptr += 16;
      00108F 90r00r15         [24] 4174 	mov	dptr,#_hc06_ptr
      001092 E0               [24] 4175 	movx	a,@dptr
      001093 FC               [12] 4176 	mov	r4,a
      001094 A3               [24] 4177 	inc	dptr
      001095 E0               [24] 4178 	movx	a,@dptr
      001096 FD               [12] 4179 	mov	r5,a
      001097 A3               [24] 4180 	inc	dptr
      001098 E0               [24] 4181 	movx	a,@dptr
      001099 FF               [12] 4182 	mov	r7,a
      00109A 90r00r15         [24] 4183 	mov	dptr,#_hc06_ptr
      00109D 74 10            [12] 4184 	mov	a,#0x10
      00109F 2C               [12] 4185 	add	a,r4
      0010A0 F0               [24] 4186 	movx	@dptr,a
      0010A1 E4               [12] 4187 	clr	a
      0010A2 3D               [12] 4188 	addc	a,r5
      0010A3 A3               [24] 4189 	inc	dptr
      0010A4 F0               [24] 4190 	movx	@dptr,a
      0010A5 EF               [12] 4191 	mov	a,r7
      0010A6 A3               [24] 4192 	inc	dptr
      0010A7 F0               [24] 4193 	movx	@dptr,a
      0010A8                       4194 00182$:
                                   4195 ;	../../../core/net/sicslowpan.c:711: uncomp_hdr_len = UIP_IPH_LEN;
      0010A8 90r00r05         [24] 4196 	mov	dptr,#_uncomp_hdr_len
      0010AB 74 28            [12] 4197 	mov	a,#0x28
      0010AD F0               [24] 4198 	movx	@dptr,a
                                   4199 ;	../../../core/net/sicslowpan.c:715: if(UIP_IP_BUF->proto == UIP_PROTO_UDP) {
      0010AE 90r00r06         [24] 4200 	mov	dptr,#(_uip_aligned_buf + 0x0006)
      0010B1 E0               [24] 4201 	movx	a,@dptr
      0010B2 FF               [12] 4202 	mov	r7,a
      0010B3 BF 11 02         [24] 4203 	cjne	r7,#0x11,00609$
      0010B6 80 03            [24] 4204 	sjmp	00610$
      0010B8                       4205 00609$:
      0010B8 02r13rD5         [24] 4206 	ljmp	00196$
      0010BB                       4207 00610$:
                                   4208 ;	../../../core/net/sicslowpan.c:719: if(((UIP_HTONS(UIP_UDP_BUF->srcport) & 0xfff0) == SICSLOWPAN_UDP_4_BIT_PORT_MIN) &&
      0010BB 90r00r28         [24] 4209 	mov	dptr,#(_uip_aligned_buf + 0x0028)
      0010BE E0               [24] 4210 	movx	a,@dptr
      0010BF FD               [12] 4211 	mov	r5,a
      0010C0 A3               [24] 4212 	inc	dptr
      0010C1 E0               [24] 4213 	movx	a,@dptr
      0010C2 8D 07            [24] 4214 	mov	ar7,r5
      0010C4 7D 00            [12] 4215 	mov	r5,#0x00
      0010C6 90r00r28         [24] 4216 	mov	dptr,#(_uip_aligned_buf + 0x0028)
      0010C9 E0               [24] 4217 	movx	a,@dptr
      0010CA A3               [24] 4218 	inc	dptr
      0010CB E0               [24] 4219 	movx	a,@dptr
      0010CC FB               [12] 4220 	mov	r3,a
      0010CD 7C 00            [12] 4221 	mov	r4,#0x00
      0010CF EB               [12] 4222 	mov	a,r3
      0010D0 42 05            [12] 4223 	orl	ar5,a
      0010D2 EC               [12] 4224 	mov	a,r4
      0010D3 42 07            [12] 4225 	orl	ar7,a
      0010D5 53 05 F0         [24] 4226 	anl	ar5,#0xf0
      0010D8 BD B0 05         [24] 4227 	cjne	r5,#0xb0,00611$
      0010DB BF F0 02         [24] 4228 	cjne	r7,#0xf0,00611$
      0010DE 80 03            [24] 4229 	sjmp	00612$
      0010E0                       4230 00611$:
      0010E0 02r11r8D         [24] 4231 	ljmp	00190$
      0010E3                       4232 00612$:
                                   4233 ;	../../../core/net/sicslowpan.c:720: ((UIP_HTONS(UIP_UDP_BUF->destport) & 0xfff0) == SICSLOWPAN_UDP_4_BIT_PORT_MIN)) {
      0010E3 90r00r2A         [24] 4234 	mov	dptr,#(_uip_aligned_buf + 0x002a)
      0010E6 E0               [24] 4235 	movx	a,@dptr
      0010E7 FD               [12] 4236 	mov	r5,a
      0010E8 A3               [24] 4237 	inc	dptr
      0010E9 E0               [24] 4238 	movx	a,@dptr
      0010EA 8D 07            [24] 4239 	mov	ar7,r5
      0010EC 7D 00            [12] 4240 	mov	r5,#0x00
      0010EE 90r00r2A         [24] 4241 	mov	dptr,#(_uip_aligned_buf + 0x002a)
      0010F1 E0               [24] 4242 	movx	a,@dptr
      0010F2 A3               [24] 4243 	inc	dptr
      0010F3 E0               [24] 4244 	movx	a,@dptr
      0010F4 FB               [12] 4245 	mov	r3,a
      0010F5 7C 00            [12] 4246 	mov	r4,#0x00
      0010F7 EB               [12] 4247 	mov	a,r3
      0010F8 42 05            [12] 4248 	orl	ar5,a
      0010FA EC               [12] 4249 	mov	a,r4
      0010FB 42 07            [12] 4250 	orl	ar7,a
      0010FD 53 05 F0         [24] 4251 	anl	ar5,#0xf0
      001100 BD B0 05         [24] 4252 	cjne	r5,#0xb0,00613$
      001103 BF F0 02         [24] 4253 	cjne	r7,#0xf0,00613$
      001106 80 03            [24] 4254 	sjmp	00614$
      001108                       4255 00613$:
      001108 02r11r8D         [24] 4256 	ljmp	00190$
      00110B                       4257 00614$:
                                   4258 ;	../../../core/net/sicslowpan.c:722: *hc06_ptr = SICSLOWPAN_NHC_UDP_CS_P_11;
      00110B C0 06            [24] 4259 	push	ar6
      00110D 90r00r15         [24] 4260 	mov	dptr,#_hc06_ptr
      001110 E0               [24] 4261 	movx	a,@dptr
      001111 FC               [12] 4262 	mov	r4,a
      001112 A3               [24] 4263 	inc	dptr
      001113 E0               [24] 4264 	movx	a,@dptr
      001114 FD               [12] 4265 	mov	r5,a
      001115 A3               [24] 4266 	inc	dptr
      001116 E0               [24] 4267 	movx	a,@dptr
      001117 FF               [12] 4268 	mov	r7,a
      001118 8C 82            [24] 4269 	mov	dpl,r4
      00111A 8D 83            [24] 4270 	mov	dph,r5
      00111C 8F F0            [24] 4271 	mov	b,r7
      00111E 74 F3            [12] 4272 	mov	a,#0xf3
      001120 12r00r00         [24] 4273 	lcall	__gptrput
                                   4274 ;	../../../core/net/sicslowpan.c:724: *(hc06_ptr + 1) =
      001123 90r00r15         [24] 4275 	mov	dptr,#_hc06_ptr
      001126 E0               [24] 4276 	movx	a,@dptr
      001127 FC               [12] 4277 	mov	r4,a
      001128 A3               [24] 4278 	inc	dptr
      001129 E0               [24] 4279 	movx	a,@dptr
      00112A FD               [12] 4280 	mov	r5,a
      00112B A3               [24] 4281 	inc	dptr
      00112C E0               [24] 4282 	movx	a,@dptr
      00112D FF               [12] 4283 	mov	r7,a
      00112E 0C               [12] 4284 	inc	r4
      00112F BC 00 01         [24] 4285 	cjne	r4,#0x00,00615$
      001132 0D               [12] 4286 	inc	r5
      001133                       4287 00615$:
                                   4288 ;	../../../core/net/sicslowpan.c:725: (uint8_t)((UIP_HTONS(UIP_UDP_BUF->srcport) -
      001133 90r00r28         [24] 4289 	mov	dptr,#(_uip_aligned_buf + 0x0028)
      001136 E0               [24] 4290 	movx	a,@dptr
      001137 7B 00            [12] 4291 	mov	r3,#0x00
      001139 90r00r28         [24] 4292 	mov	dptr,#(_uip_aligned_buf + 0x0028)
      00113C E0               [24] 4293 	movx	a,@dptr
      00113D A3               [24] 4294 	inc	dptr
      00113E E0               [24] 4295 	movx	a,@dptr
      00113F FA               [12] 4296 	mov	r2,a
      001140 EA               [12] 4297 	mov	a,r2
      001141 4B               [12] 4298 	orl	a,r3
      001142 24 50            [12] 4299 	add	a,#0x50
      001144 C4               [12] 4300 	swap	a
      001145 54 F0            [12] 4301 	anl	a,#0xf0
      001147 FE               [12] 4302 	mov	r6,a
                                   4303 ;	../../../core/net/sicslowpan.c:727: (uint8_t)((UIP_HTONS(UIP_UDP_BUF->destport) -
      001148 90r00r2A         [24] 4304 	mov	dptr,#(_uip_aligned_buf + 0x002a)
      00114B E0               [24] 4305 	movx	a,@dptr
      00114C E5 81            [12] 4306 	mov	a,sp
      00114E 24 FB            [12] 4307 	add	a,#0xfb
      001150 F8               [12] 4308 	mov	r0,a
      001151 76 00            [12] 4309 	mov	@r0,#0x00
      001153 90r00r2A         [24] 4310 	mov	dptr,#(_uip_aligned_buf + 0x002a)
      001156 E0               [24] 4311 	movx	a,@dptr
      001157 A3               [24] 4312 	inc	dptr
      001158 E0               [24] 4313 	movx	a,@dptr
      001159 FA               [12] 4314 	mov	r2,a
      00115A 7B 00            [12] 4315 	mov	r3,#0x00
      00115C E5 81            [12] 4316 	mov	a,sp
      00115E 24 FB            [12] 4317 	add	a,#0xfb
      001160 F8               [12] 4318 	mov	r0,a
      001161 EA               [12] 4319 	mov	a,r2
      001162 46               [12] 4320 	orl	a,@r0
      001163 24 50            [12] 4321 	add	a,#0x50
      001165 2E               [12] 4322 	add	a,r6
      001166 8C 82            [24] 4323 	mov	dpl,r4
      001168 8D 83            [24] 4324 	mov	dph,r5
      00116A 8F F0            [24] 4325 	mov	b,r7
      00116C 12r00r00         [24] 4326 	lcall	__gptrput
                                   4327 ;	../../../core/net/sicslowpan.c:729: hc06_ptr += 2;
      00116F 90r00r15         [24] 4328 	mov	dptr,#_hc06_ptr
      001172 E0               [24] 4329 	movx	a,@dptr
      001173 FD               [12] 4330 	mov	r5,a
      001174 A3               [24] 4331 	inc	dptr
      001175 E0               [24] 4332 	movx	a,@dptr
      001176 FE               [12] 4333 	mov	r6,a
      001177 A3               [24] 4334 	inc	dptr
      001178 E0               [24] 4335 	movx	a,@dptr
      001179 FF               [12] 4336 	mov	r7,a
      00117A 90r00r15         [24] 4337 	mov	dptr,#_hc06_ptr
      00117D 74 02            [12] 4338 	mov	a,#0x02
      00117F 2D               [12] 4339 	add	a,r5
      001180 F0               [24] 4340 	movx	@dptr,a
      001181 E4               [12] 4341 	clr	a
      001182 3E               [12] 4342 	addc	a,r6
      001183 A3               [24] 4343 	inc	dptr
      001184 F0               [24] 4344 	movx	@dptr,a
      001185 EF               [12] 4345 	mov	a,r7
      001186 A3               [24] 4346 	inc	dptr
      001187 F0               [24] 4347 	movx	@dptr,a
      001188 D0 06            [24] 4348 	pop	ar6
      00118A 02r13r7E         [24] 4349 	ljmp	00193$
      00118D                       4350 00190$:
                                   4351 ;	../../../core/net/sicslowpan.c:730: } else if((UIP_HTONS(UIP_UDP_BUF->destport) & 0xff00) == SICSLOWPAN_UDP_8_BIT_PORT_MIN) {
      00118D 90r00r2A         [24] 4352 	mov	dptr,#(_uip_aligned_buf + 0x002a)
      001190 E0               [24] 4353 	movx	a,@dptr
      001191 FD               [12] 4354 	mov	r5,a
      001192 A3               [24] 4355 	inc	dptr
      001193 E0               [24] 4356 	movx	a,@dptr
      001194 8D 07            [24] 4357 	mov	ar7,r5
      001196 7D 00            [12] 4358 	mov	r5,#0x00
      001198 90r00r2A         [24] 4359 	mov	dptr,#(_uip_aligned_buf + 0x002a)
      00119B E0               [24] 4360 	movx	a,@dptr
      00119C A3               [24] 4361 	inc	dptr
      00119D E0               [24] 4362 	movx	a,@dptr
      00119E FB               [12] 4363 	mov	r3,a
      00119F 7C 00            [12] 4364 	mov	r4,#0x00
      0011A1 EB               [12] 4365 	mov	a,r3
      0011A2 42 05            [12] 4366 	orl	ar5,a
      0011A4 EC               [12] 4367 	mov	a,r4
      0011A5 42 07            [12] 4368 	orl	ar7,a
      0011A7 7D 00            [12] 4369 	mov	r5,#0x00
      0011A9 BD 00 05         [24] 4370 	cjne	r5,#0x00,00616$
      0011AC BF F0 02         [24] 4371 	cjne	r7,#0xf0,00616$
      0011AF 80 03            [24] 4372 	sjmp	00617$
      0011B1                       4373 00616$:
      0011B1 02r12r51         [24] 4374 	ljmp	00187$
      0011B4                       4375 00617$:
                                   4376 ;	../../../core/net/sicslowpan.c:732: *hc06_ptr = SICSLOWPAN_NHC_UDP_CS_P_01;
      0011B4 C0 06            [24] 4377 	push	ar6
      0011B6 90r00r15         [24] 4378 	mov	dptr,#_hc06_ptr
      0011B9 E0               [24] 4379 	movx	a,@dptr
      0011BA FC               [12] 4380 	mov	r4,a
      0011BB A3               [24] 4381 	inc	dptr
      0011BC E0               [24] 4382 	movx	a,@dptr
      0011BD FD               [12] 4383 	mov	r5,a
      0011BE A3               [24] 4384 	inc	dptr
      0011BF E0               [24] 4385 	movx	a,@dptr
      0011C0 FF               [12] 4386 	mov	r7,a
      0011C1 8C 82            [24] 4387 	mov	dpl,r4
      0011C3 8D 83            [24] 4388 	mov	dph,r5
      0011C5 8F F0            [24] 4389 	mov	b,r7
      0011C7 74 F1            [12] 4390 	mov	a,#0xf1
      0011C9 12r00r00         [24] 4391 	lcall	__gptrput
                                   4392 ;	../../../core/net/sicslowpan.c:734: memcpy(hc06_ptr + 1, &UIP_UDP_BUF->srcport, 2);
      0011CC 90r00r15         [24] 4393 	mov	dptr,#_hc06_ptr
      0011CF E0               [24] 4394 	movx	a,@dptr
      0011D0 FC               [12] 4395 	mov	r4,a
      0011D1 A3               [24] 4396 	inc	dptr
      0011D2 E0               [24] 4397 	movx	a,@dptr
      0011D3 FD               [12] 4398 	mov	r5,a
      0011D4 A3               [24] 4399 	inc	dptr
      0011D5 E0               [24] 4400 	movx	a,@dptr
      0011D6 FF               [12] 4401 	mov	r7,a
      0011D7 0C               [12] 4402 	inc	r4
      0011D8 BC 00 01         [24] 4403 	cjne	r4,#0x00,00618$
      0011DB 0D               [12] 4404 	inc	r5
      0011DC                       4405 00618$:
      0011DC C0 06            [24] 4406 	push	ar6
      0011DE 74 02            [12] 4407 	mov	a,#0x02
      0011E0 C0 E0            [24] 4408 	push	acc
      0011E2 E4               [12] 4409 	clr	a
      0011E3 C0 E0            [24] 4410 	push	acc
      0011E5 74r28            [12] 4411 	mov	a,#(_uip_aligned_buf + 0x0028)
      0011E7 C0 E0            [24] 4412 	push	acc
      0011E9 74s00            [12] 4413 	mov	a,#((_uip_aligned_buf + 0x0028) >> 8)
      0011EB C0 E0            [24] 4414 	push	acc
      0011ED E4               [12] 4415 	clr	a
      0011EE C0 E0            [24] 4416 	push	acc
      0011F0 8C 82            [24] 4417 	mov	dpl,r4
      0011F2 8D 83            [24] 4418 	mov	dph,r5
      0011F4 8F F0            [24] 4419 	mov	b,r7
      0011F6 78r00            [12] 4420 	mov	r0,#___memcpy
      0011F8 79s00            [12] 4421 	mov	r1,#(___memcpy >> 8)
      0011FA 7As00            [12] 4422 	mov	r2,#(___memcpy >> 16)
      0011FC 12r00r00         [24] 4423 	lcall	__sdcc_banked_call
      0011FF E5 81            [12] 4424 	mov	a,sp
      001201 24 FB            [12] 4425 	add	a,#0xfb
      001203 F5 81            [12] 4426 	mov	sp,a
      001205 D0 06            [24] 4427 	pop	ar6
                                   4428 ;	../../../core/net/sicslowpan.c:735: *(hc06_ptr + 3) =
      001207 90r00r15         [24] 4429 	mov	dptr,#_hc06_ptr
      00120A E0               [24] 4430 	movx	a,@dptr
      00120B FC               [12] 4431 	mov	r4,a
      00120C A3               [24] 4432 	inc	dptr
      00120D E0               [24] 4433 	movx	a,@dptr
      00120E FD               [12] 4434 	mov	r5,a
      00120F A3               [24] 4435 	inc	dptr
      001210 E0               [24] 4436 	movx	a,@dptr
      001211 FF               [12] 4437 	mov	r7,a
      001212 74 03            [12] 4438 	mov	a,#0x03
      001214 2C               [12] 4439 	add	a,r4
      001215 FC               [12] 4440 	mov	r4,a
      001216 E4               [12] 4441 	clr	a
      001217 3D               [12] 4442 	addc	a,r5
      001218 FD               [12] 4443 	mov	r5,a
                                   4444 ;	../../../core/net/sicslowpan.c:736: (uint8_t)((UIP_HTONS(UIP_UDP_BUF->destport) -
      001219 90r00r2A         [24] 4445 	mov	dptr,#(_uip_aligned_buf + 0x002a)
      00121C E0               [24] 4446 	movx	a,@dptr
      00121D 7B 00            [12] 4447 	mov	r3,#0x00
      00121F 90r00r2A         [24] 4448 	mov	dptr,#(_uip_aligned_buf + 0x002a)
      001222 E0               [24] 4449 	movx	a,@dptr
      001223 A3               [24] 4450 	inc	dptr
      001224 E0               [24] 4451 	movx	a,@dptr
      001225 FA               [12] 4452 	mov	r2,a
      001226 EA               [12] 4453 	mov	a,r2
      001227 42 03            [12] 4454 	orl	ar3,a
      001229 8C 82            [24] 4455 	mov	dpl,r4
      00122B 8D 83            [24] 4456 	mov	dph,r5
      00122D 8F F0            [24] 4457 	mov	b,r7
      00122F EB               [12] 4458 	mov	a,r3
      001230 12r00r00         [24] 4459 	lcall	__gptrput
                                   4460 ;	../../../core/net/sicslowpan.c:738: hc06_ptr += 4;
      001233 90r00r15         [24] 4461 	mov	dptr,#_hc06_ptr
      001236 E0               [24] 4462 	movx	a,@dptr
      001237 FD               [12] 4463 	mov	r5,a
      001238 A3               [24] 4464 	inc	dptr
      001239 E0               [24] 4465 	movx	a,@dptr
      00123A FE               [12] 4466 	mov	r6,a
      00123B A3               [24] 4467 	inc	dptr
      00123C E0               [24] 4468 	movx	a,@dptr
      00123D FF               [12] 4469 	mov	r7,a
      00123E 90r00r15         [24] 4470 	mov	dptr,#_hc06_ptr
      001241 74 04            [12] 4471 	mov	a,#0x04
      001243 2D               [12] 4472 	add	a,r5
      001244 F0               [24] 4473 	movx	@dptr,a
      001245 E4               [12] 4474 	clr	a
      001246 3E               [12] 4475 	addc	a,r6
      001247 A3               [24] 4476 	inc	dptr
      001248 F0               [24] 4477 	movx	@dptr,a
      001249 EF               [12] 4478 	mov	a,r7
      00124A A3               [24] 4479 	inc	dptr
      00124B F0               [24] 4480 	movx	@dptr,a
      00124C D0 06            [24] 4481 	pop	ar6
      00124E 02r13r7E         [24] 4482 	ljmp	00193$
      001251                       4483 00187$:
                                   4484 ;	../../../core/net/sicslowpan.c:739: } else if((UIP_HTONS(UIP_UDP_BUF->srcport) & 0xff00) == SICSLOWPAN_UDP_8_BIT_PORT_MIN) {
      001251 90r00r28         [24] 4485 	mov	dptr,#(_uip_aligned_buf + 0x0028)
      001254 E0               [24] 4486 	movx	a,@dptr
      001255 FD               [12] 4487 	mov	r5,a
      001256 A3               [24] 4488 	inc	dptr
      001257 E0               [24] 4489 	movx	a,@dptr
      001258 8D 07            [24] 4490 	mov	ar7,r5
      00125A 7D 00            [12] 4491 	mov	r5,#0x00
      00125C 90r00r28         [24] 4492 	mov	dptr,#(_uip_aligned_buf + 0x0028)
      00125F E0               [24] 4493 	movx	a,@dptr
      001260 A3               [24] 4494 	inc	dptr
      001261 E0               [24] 4495 	movx	a,@dptr
      001262 FB               [12] 4496 	mov	r3,a
      001263 7C 00            [12] 4497 	mov	r4,#0x00
      001265 EB               [12] 4498 	mov	a,r3
      001266 42 05            [12] 4499 	orl	ar5,a
      001268 EC               [12] 4500 	mov	a,r4
      001269 42 07            [12] 4501 	orl	ar7,a
      00126B 7D 00            [12] 4502 	mov	r5,#0x00
      00126D BD 00 05         [24] 4503 	cjne	r5,#0x00,00619$
      001270 BF F0 02         [24] 4504 	cjne	r7,#0xf0,00619$
      001273 80 03            [24] 4505 	sjmp	00620$
      001275                       4506 00619$:
      001275 02r13r14         [24] 4507 	ljmp	00184$
      001278                       4508 00620$:
                                   4509 ;	../../../core/net/sicslowpan.c:741: *hc06_ptr = SICSLOWPAN_NHC_UDP_CS_P_10;
      001278 C0 06            [24] 4510 	push	ar6
      00127A 90r00r15         [24] 4511 	mov	dptr,#_hc06_ptr
      00127D E0               [24] 4512 	movx	a,@dptr
      00127E FC               [12] 4513 	mov	r4,a
      00127F A3               [24] 4514 	inc	dptr
      001280 E0               [24] 4515 	movx	a,@dptr
      001281 FD               [12] 4516 	mov	r5,a
      001282 A3               [24] 4517 	inc	dptr
      001283 E0               [24] 4518 	movx	a,@dptr
      001284 FF               [12] 4519 	mov	r7,a
      001285 8C 82            [24] 4520 	mov	dpl,r4
      001287 8D 83            [24] 4521 	mov	dph,r5
      001289 8F F0            [24] 4522 	mov	b,r7
      00128B 74 F2            [12] 4523 	mov	a,#0xf2
      00128D 12r00r00         [24] 4524 	lcall	__gptrput
                                   4525 ;	../../../core/net/sicslowpan.c:743: *(hc06_ptr + 1) =
      001290 90r00r15         [24] 4526 	mov	dptr,#_hc06_ptr
      001293 E0               [24] 4527 	movx	a,@dptr
      001294 FC               [12] 4528 	mov	r4,a
      001295 A3               [24] 4529 	inc	dptr
      001296 E0               [24] 4530 	movx	a,@dptr
      001297 FD               [12] 4531 	mov	r5,a
      001298 A3               [24] 4532 	inc	dptr
      001299 E0               [24] 4533 	movx	a,@dptr
      00129A FF               [12] 4534 	mov	r7,a
      00129B 0C               [12] 4535 	inc	r4
      00129C BC 00 01         [24] 4536 	cjne	r4,#0x00,00621$
      00129F 0D               [12] 4537 	inc	r5
      0012A0                       4538 00621$:
                                   4539 ;	../../../core/net/sicslowpan.c:744: (uint8_t)((UIP_HTONS(UIP_UDP_BUF->srcport) -
      0012A0 90r00r28         [24] 4540 	mov	dptr,#(_uip_aligned_buf + 0x0028)
      0012A3 E0               [24] 4541 	movx	a,@dptr
      0012A4 7B 00            [12] 4542 	mov	r3,#0x00
      0012A6 90r00r28         [24] 4543 	mov	dptr,#(_uip_aligned_buf + 0x0028)
      0012A9 E0               [24] 4544 	movx	a,@dptr
      0012AA A3               [24] 4545 	inc	dptr
      0012AB E0               [24] 4546 	movx	a,@dptr
      0012AC FA               [12] 4547 	mov	r2,a
      0012AD EA               [12] 4548 	mov	a,r2
      0012AE 42 03            [12] 4549 	orl	ar3,a
      0012B0 8C 82            [24] 4550 	mov	dpl,r4
      0012B2 8D 83            [24] 4551 	mov	dph,r5
      0012B4 8F F0            [24] 4552 	mov	b,r7
      0012B6 EB               [12] 4553 	mov	a,r3
      0012B7 12r00r00         [24] 4554 	lcall	__gptrput
                                   4555 ;	../../../core/net/sicslowpan.c:746: memcpy(hc06_ptr + 2, &UIP_UDP_BUF->destport, 2);
      0012BA 90r00r15         [24] 4556 	mov	dptr,#_hc06_ptr
      0012BD E0               [24] 4557 	movx	a,@dptr
      0012BE FD               [12] 4558 	mov	r5,a
      0012BF A3               [24] 4559 	inc	dptr
      0012C0 E0               [24] 4560 	movx	a,@dptr
      0012C1 FE               [12] 4561 	mov	r6,a
      0012C2 A3               [24] 4562 	inc	dptr
      0012C3 E0               [24] 4563 	movx	a,@dptr
      0012C4 FF               [12] 4564 	mov	r7,a
      0012C5 74 02            [12] 4565 	mov	a,#0x02
      0012C7 2D               [12] 4566 	add	a,r5
      0012C8 FD               [12] 4567 	mov	r5,a
      0012C9 E4               [12] 4568 	clr	a
      0012CA 3E               [12] 4569 	addc	a,r6
      0012CB FE               [12] 4570 	mov	r6,a
      0012CC C0 06            [24] 4571 	push	ar6
      0012CE 74 02            [12] 4572 	mov	a,#0x02
      0012D0 C0 E0            [24] 4573 	push	acc
      0012D2 E4               [12] 4574 	clr	a
      0012D3 C0 E0            [24] 4575 	push	acc
      0012D5 74r2A            [12] 4576 	mov	a,#(_uip_aligned_buf + 0x002a)
      0012D7 C0 E0            [24] 4577 	push	acc
      0012D9 74s00            [12] 4578 	mov	a,#((_uip_aligned_buf + 0x002a) >> 8)
      0012DB C0 E0            [24] 4579 	push	acc
      0012DD E4               [12] 4580 	clr	a
      0012DE C0 E0            [24] 4581 	push	acc
      0012E0 8D 82            [24] 4582 	mov	dpl,r5
      0012E2 8E 83            [24] 4583 	mov	dph,r6
      0012E4 8F F0            [24] 4584 	mov	b,r7
      0012E6 78r00            [12] 4585 	mov	r0,#___memcpy
      0012E8 79s00            [12] 4586 	mov	r1,#(___memcpy >> 8)
      0012EA 7As00            [12] 4587 	mov	r2,#(___memcpy >> 16)
      0012EC 12r00r00         [24] 4588 	lcall	__sdcc_banked_call
      0012EF E5 81            [12] 4589 	mov	a,sp
      0012F1 24 FB            [12] 4590 	add	a,#0xfb
      0012F3 F5 81            [12] 4591 	mov	sp,a
      0012F5 D0 06            [24] 4592 	pop	ar6
                                   4593 ;	../../../core/net/sicslowpan.c:747: hc06_ptr += 4;
      0012F7 90r00r15         [24] 4594 	mov	dptr,#_hc06_ptr
      0012FA E0               [24] 4595 	movx	a,@dptr
      0012FB FD               [12] 4596 	mov	r5,a
      0012FC A3               [24] 4597 	inc	dptr
      0012FD E0               [24] 4598 	movx	a,@dptr
      0012FE FE               [12] 4599 	mov	r6,a
      0012FF A3               [24] 4600 	inc	dptr
      001300 E0               [24] 4601 	movx	a,@dptr
      001301 FF               [12] 4602 	mov	r7,a
      001302 90r00r15         [24] 4603 	mov	dptr,#_hc06_ptr
      001305 74 04            [12] 4604 	mov	a,#0x04
      001307 2D               [12] 4605 	add	a,r5
      001308 F0               [24] 4606 	movx	@dptr,a
      001309 E4               [12] 4607 	clr	a
      00130A 3E               [12] 4608 	addc	a,r6
      00130B A3               [24] 4609 	inc	dptr
      00130C F0               [24] 4610 	movx	@dptr,a
      00130D EF               [12] 4611 	mov	a,r7
      00130E A3               [24] 4612 	inc	dptr
      00130F F0               [24] 4613 	movx	@dptr,a
      001310 D0 06            [24] 4614 	pop	ar6
      001312 80 6A            [24] 4615 	sjmp	00193$
      001314                       4616 00184$:
                                   4617 ;	../../../core/net/sicslowpan.c:750: *hc06_ptr = SICSLOWPAN_NHC_UDP_CS_P_00;
      001314 90r00r15         [24] 4618 	mov	dptr,#_hc06_ptr
      001317 E0               [24] 4619 	movx	a,@dptr
      001318 FC               [12] 4620 	mov	r4,a
      001319 A3               [24] 4621 	inc	dptr
      00131A E0               [24] 4622 	movx	a,@dptr
      00131B FD               [12] 4623 	mov	r5,a
      00131C A3               [24] 4624 	inc	dptr
      00131D E0               [24] 4625 	movx	a,@dptr
      00131E FF               [12] 4626 	mov	r7,a
      00131F 8C 82            [24] 4627 	mov	dpl,r4
      001321 8D 83            [24] 4628 	mov	dph,r5
      001323 8F F0            [24] 4629 	mov	b,r7
      001325 74 F0            [12] 4630 	mov	a,#0xf0
      001327 12r00r00         [24] 4631 	lcall	__gptrput
                                   4632 ;	../../../core/net/sicslowpan.c:752: memcpy(hc06_ptr + 1, &UIP_UDP_BUF->srcport, 4);
      00132A 90r00r15         [24] 4633 	mov	dptr,#_hc06_ptr
      00132D E0               [24] 4634 	movx	a,@dptr
      00132E FC               [12] 4635 	mov	r4,a
      00132F A3               [24] 4636 	inc	dptr
      001330 E0               [24] 4637 	movx	a,@dptr
      001331 FD               [12] 4638 	mov	r5,a
      001332 A3               [24] 4639 	inc	dptr
      001333 E0               [24] 4640 	movx	a,@dptr
      001334 FF               [12] 4641 	mov	r7,a
      001335 0C               [12] 4642 	inc	r4
      001336 BC 00 01         [24] 4643 	cjne	r4,#0x00,00622$
      001339 0D               [12] 4644 	inc	r5
      00133A                       4645 00622$:
      00133A C0 06            [24] 4646 	push	ar6
      00133C 74 04            [12] 4647 	mov	a,#0x04
      00133E C0 E0            [24] 4648 	push	acc
      001340 E4               [12] 4649 	clr	a
      001341 C0 E0            [24] 4650 	push	acc
      001343 74r28            [12] 4651 	mov	a,#(_uip_aligned_buf + 0x0028)
      001345 C0 E0            [24] 4652 	push	acc
      001347 74s00            [12] 4653 	mov	a,#((_uip_aligned_buf + 0x0028) >> 8)
      001349 C0 E0            [24] 4654 	push	acc
      00134B E4               [12] 4655 	clr	a
      00134C C0 E0            [24] 4656 	push	acc
      00134E 8C 82            [24] 4657 	mov	dpl,r4
      001350 8D 83            [24] 4658 	mov	dph,r5
      001352 8F F0            [24] 4659 	mov	b,r7
      001354 78r00            [12] 4660 	mov	r0,#___memcpy
      001356 79s00            [12] 4661 	mov	r1,#(___memcpy >> 8)
      001358 7As00            [12] 4662 	mov	r2,#(___memcpy >> 16)
      00135A 12r00r00         [24] 4663 	lcall	__sdcc_banked_call
      00135D E5 81            [12] 4664 	mov	a,sp
      00135F 24 FB            [12] 4665 	add	a,#0xfb
      001361 F5 81            [12] 4666 	mov	sp,a
      001363 D0 06            [24] 4667 	pop	ar6
                                   4668 ;	../../../core/net/sicslowpan.c:753: hc06_ptr += 5;
      001365 90r00r15         [24] 4669 	mov	dptr,#_hc06_ptr
      001368 E0               [24] 4670 	movx	a,@dptr
      001369 FC               [12] 4671 	mov	r4,a
      00136A A3               [24] 4672 	inc	dptr
      00136B E0               [24] 4673 	movx	a,@dptr
      00136C FD               [12] 4674 	mov	r5,a
      00136D A3               [24] 4675 	inc	dptr
      00136E E0               [24] 4676 	movx	a,@dptr
      00136F FF               [12] 4677 	mov	r7,a
      001370 90r00r15         [24] 4678 	mov	dptr,#_hc06_ptr
      001373 74 05            [12] 4679 	mov	a,#0x05
      001375 2C               [12] 4680 	add	a,r4
      001376 F0               [24] 4681 	movx	@dptr,a
      001377 E4               [12] 4682 	clr	a
      001378 3D               [12] 4683 	addc	a,r5
      001379 A3               [24] 4684 	inc	dptr
      00137A F0               [24] 4685 	movx	@dptr,a
      00137B EF               [12] 4686 	mov	a,r7
      00137C A3               [24] 4687 	inc	dptr
      00137D F0               [24] 4688 	movx	@dptr,a
                                   4689 ;	../../../core/net/sicslowpan.c:756: if(1) {
      00137E                       4690 00193$:
                                   4691 ;	../../../core/net/sicslowpan.c:757: memcpy(hc06_ptr, &UIP_UDP_BUF->udpchksum, 2);
      00137E 90r00r15         [24] 4692 	mov	dptr,#_hc06_ptr
      001381 E0               [24] 4693 	movx	a,@dptr
      001382 FC               [12] 4694 	mov	r4,a
      001383 A3               [24] 4695 	inc	dptr
      001384 E0               [24] 4696 	movx	a,@dptr
      001385 FD               [12] 4697 	mov	r5,a
      001386 A3               [24] 4698 	inc	dptr
      001387 E0               [24] 4699 	movx	a,@dptr
      001388 FF               [12] 4700 	mov	r7,a
      001389 C0 06            [24] 4701 	push	ar6
      00138B 74 02            [12] 4702 	mov	a,#0x02
      00138D C0 E0            [24] 4703 	push	acc
      00138F E4               [12] 4704 	clr	a
      001390 C0 E0            [24] 4705 	push	acc
      001392 74r2E            [12] 4706 	mov	a,#(_uip_aligned_buf + 0x002e)
      001394 C0 E0            [24] 4707 	push	acc
      001396 74s00            [12] 4708 	mov	a,#((_uip_aligned_buf + 0x002e) >> 8)
      001398 C0 E0            [24] 4709 	push	acc
      00139A E4               [12] 4710 	clr	a
      00139B C0 E0            [24] 4711 	push	acc
      00139D 8C 82            [24] 4712 	mov	dpl,r4
      00139F 8D 83            [24] 4713 	mov	dph,r5
      0013A1 8F F0            [24] 4714 	mov	b,r7
      0013A3 78r00            [12] 4715 	mov	r0,#___memcpy
      0013A5 79s00            [12] 4716 	mov	r1,#(___memcpy >> 8)
      0013A7 7As00            [12] 4717 	mov	r2,#(___memcpy >> 16)
      0013A9 12r00r00         [24] 4718 	lcall	__sdcc_banked_call
      0013AC E5 81            [12] 4719 	mov	a,sp
      0013AE 24 FB            [12] 4720 	add	a,#0xfb
      0013B0 F5 81            [12] 4721 	mov	sp,a
      0013B2 D0 06            [24] 4722 	pop	ar6
                                   4723 ;	../../../core/net/sicslowpan.c:758: hc06_ptr += 2;
      0013B4 90r00r15         [24] 4724 	mov	dptr,#_hc06_ptr
      0013B7 E0               [24] 4725 	movx	a,@dptr
      0013B8 FC               [12] 4726 	mov	r4,a
      0013B9 A3               [24] 4727 	inc	dptr
      0013BA E0               [24] 4728 	movx	a,@dptr
      0013BB FD               [12] 4729 	mov	r5,a
      0013BC A3               [24] 4730 	inc	dptr
      0013BD E0               [24] 4731 	movx	a,@dptr
      0013BE FF               [12] 4732 	mov	r7,a
      0013BF 90r00r15         [24] 4733 	mov	dptr,#_hc06_ptr
      0013C2 74 02            [12] 4734 	mov	a,#0x02
      0013C4 2C               [12] 4735 	add	a,r4
      0013C5 F0               [24] 4736 	movx	@dptr,a
      0013C6 E4               [12] 4737 	clr	a
      0013C7 3D               [12] 4738 	addc	a,r5
      0013C8 A3               [24] 4739 	inc	dptr
      0013C9 F0               [24] 4740 	movx	@dptr,a
      0013CA EF               [12] 4741 	mov	a,r7
      0013CB A3               [24] 4742 	inc	dptr
      0013CC F0               [24] 4743 	movx	@dptr,a
                                   4744 ;	../../../core/net/sicslowpan.c:760: uncomp_hdr_len += UIP_UDPH_LEN;
      0013CD 90r00r05         [24] 4745 	mov	dptr,#_uncomp_hdr_len
      0013D0 E0               [24] 4746 	movx	a,@dptr
      0013D1 FF               [12] 4747 	mov	r7,a
      0013D2 24 08            [12] 4748 	add	a,#0x08
      0013D4 F0               [24] 4749 	movx	@dptr,a
      0013D5                       4750 00196$:
                                   4751 ;	../../../core/net/sicslowpan.c:770: RIME_IPHC_BUF[0] = iphc0;
      0013D5 90r00r03         [24] 4752 	mov	dptr,#_rime_hdr_len
      0013D8 E0               [24] 4753 	movx	a,@dptr
      0013D9 FF               [12] 4754 	mov	r7,a
      0013DA 90r00r00         [24] 4755 	mov	dptr,#_rime_ptr
      0013DD E0               [24] 4756 	movx	a,@dptr
      0013DE FB               [12] 4757 	mov	r3,a
      0013DF A3               [24] 4758 	inc	dptr
      0013E0 E0               [24] 4759 	movx	a,@dptr
      0013E1 FC               [12] 4760 	mov	r4,a
      0013E2 A3               [24] 4761 	inc	dptr
      0013E3 E0               [24] 4762 	movx	a,@dptr
      0013E4 FD               [12] 4763 	mov	r5,a
      0013E5 EF               [12] 4764 	mov	a,r7
      0013E6 2B               [12] 4765 	add	a,r3
      0013E7 FB               [12] 4766 	mov	r3,a
      0013E8 E4               [12] 4767 	clr	a
      0013E9 3C               [12] 4768 	addc	a,r4
      0013EA FC               [12] 4769 	mov	r4,a
      0013EB 8B 82            [24] 4770 	mov	dpl,r3
      0013ED 8C 83            [24] 4771 	mov	dph,r4
      0013EF 8D F0            [24] 4772 	mov	b,r5
      0013F1 A8 81            [24] 4773 	mov	r0,sp
      0013F3 18               [12] 4774 	dec	r0
      0013F4 E6               [12] 4775 	mov	a,@r0
      0013F5 12r00r00         [24] 4776 	lcall	__gptrput
                                   4777 ;	../../../core/net/sicslowpan.c:771: RIME_IPHC_BUF[1] = iphc1;
      0013F8 90r00r03         [24] 4778 	mov	dptr,#_rime_hdr_len
      0013FB E0               [24] 4779 	movx	a,@dptr
      0013FC FF               [12] 4780 	mov	r7,a
      0013FD 90r00r00         [24] 4781 	mov	dptr,#_rime_ptr
      001400 E0               [24] 4782 	movx	a,@dptr
      001401 FB               [12] 4783 	mov	r3,a
      001402 A3               [24] 4784 	inc	dptr
      001403 E0               [24] 4785 	movx	a,@dptr
      001404 FC               [12] 4786 	mov	r4,a
      001405 A3               [24] 4787 	inc	dptr
      001406 E0               [24] 4788 	movx	a,@dptr
      001407 FD               [12] 4789 	mov	r5,a
      001408 EF               [12] 4790 	mov	a,r7
      001409 2B               [12] 4791 	add	a,r3
      00140A FB               [12] 4792 	mov	r3,a
      00140B E4               [12] 4793 	clr	a
      00140C 3C               [12] 4794 	addc	a,r4
      00140D FC               [12] 4795 	mov	r4,a
      00140E 0B               [12] 4796 	inc	r3
      00140F BB 00 01         [24] 4797 	cjne	r3,#0x00,00623$
      001412 0C               [12] 4798 	inc	r4
      001413                       4799 00623$:
      001413 8B 82            [24] 4800 	mov	dpl,r3
      001415 8C 83            [24] 4801 	mov	dph,r4
      001417 8D F0            [24] 4802 	mov	b,r5
      001419 EE               [12] 4803 	mov	a,r6
      00141A 12r00r00         [24] 4804 	lcall	__gptrput
                                   4805 ;	../../../core/net/sicslowpan.c:773: rime_hdr_len = hc06_ptr - rime_ptr;
      00141D 90r00r00         [24] 4806 	mov	dptr,#_rime_ptr
      001420 E0               [24] 4807 	movx	a,@dptr
      001421 FD               [12] 4808 	mov	r5,a
      001422 A3               [24] 4809 	inc	dptr
      001423 E0               [24] 4810 	movx	a,@dptr
      001424 FE               [12] 4811 	mov	r6,a
      001425 A3               [24] 4812 	inc	dptr
      001426 E0               [24] 4813 	movx	a,@dptr
      001427 FF               [12] 4814 	mov	r7,a
      001428 90r00r15         [24] 4815 	mov	dptr,#_hc06_ptr
      00142B E0               [24] 4816 	movx	a,@dptr
      00142C FA               [12] 4817 	mov	r2,a
      00142D A3               [24] 4818 	inc	dptr
      00142E E0               [24] 4819 	movx	a,@dptr
      00142F FB               [12] 4820 	mov	r3,a
      001430 A3               [24] 4821 	inc	dptr
      001431 E0               [24] 4822 	movx	a,@dptr
      001432 FC               [12] 4823 	mov	r4,a
      001433 90r00r03         [24] 4824 	mov	dptr,#_rime_hdr_len
      001436 EA               [12] 4825 	mov	a,r2
      001437 C3               [12] 4826 	clr	c
      001438 9D               [12] 4827 	subb	a,r5
      001439 F0               [24] 4828 	movx	@dptr,a
                                   4829 ;	../../../core/net/sicslowpan.c:774: return;
                                   4830 ;	../../../core/net/sicslowpan.c:775: }
      00143A E5 81            [12] 4831 	mov	a,sp
      00143C 24 F0            [12] 4832 	add	a,#0xf0
      00143E F5 81            [12] 4833 	mov	sp,a
      001440 02r00r00         [24] 4834 	ljmp	__sdcc_banked_ret
                                   4835 ;------------------------------------------------------------
                                   4836 ;Allocation info for local variables in function 'uncompress_hdr_hc06'
                                   4837 ;------------------------------------------------------------
                                   4838 ;ip_len                    Allocated to stack - sp -13
                                   4839 ;tmp                       Allocated to stack - sp -3
                                   4840 ;iphc0                     Allocated to stack - sp -2
                                   4841 ;iphc1                     Allocated to registers r7 
                                   4842 ;sci                       Allocated to registers r3 
                                   4843 ;prefix                    Allocated to stack - sp -1
                                   4844 ;dci                       Allocated to registers r5 
                                   4845 ;checksum_compressed       Allocated to registers r3 
                                   4846 ;sloc0                     Allocated to stack - sp -11
                                   4847 ;sloc1                     Allocated to stack - sp -9
                                   4848 ;sloc2                     Allocated to stack - sp -6
                                   4849 ;------------------------------------------------------------
                                   4850 ;	../../../core/net/sicslowpan.c:794: uncompress_hdr_hc06(uint16_t ip_len)
                                   4851 ;	-----------------------------------------
                                   4852 ;	 function uncompress_hdr_hc06
                                   4853 ;	-----------------------------------------
      001443                       4854 _uncompress_hdr_hc06:
      001443 C0 82            [24] 4855 	push	dpl
      001445 C0 83            [24] 4856 	push	dph
      001447 E5 81            [12] 4857 	mov	a,sp
      001449 24 0C            [12] 4858 	add	a,#0x0c
      00144B F5 81            [12] 4859 	mov	sp,a
                                   4860 ;	../../../core/net/sicslowpan.c:798: hc06_ptr = rime_ptr + rime_hdr_len + 2;
      00144D 90r00r03         [24] 4861 	mov	dptr,#_rime_hdr_len
      001450 E0               [24] 4862 	movx	a,@dptr
      001451 FD               [12] 4863 	mov	r5,a
      001452 90r00r00         [24] 4864 	mov	dptr,#_rime_ptr
      001455 E0               [24] 4865 	movx	a,@dptr
      001456 FA               [12] 4866 	mov	r2,a
      001457 A3               [24] 4867 	inc	dptr
      001458 E0               [24] 4868 	movx	a,@dptr
      001459 FB               [12] 4869 	mov	r3,a
      00145A A3               [24] 4870 	inc	dptr
      00145B E0               [24] 4871 	movx	a,@dptr
      00145C FC               [12] 4872 	mov	r4,a
      00145D ED               [12] 4873 	mov	a,r5
      00145E 2A               [12] 4874 	add	a,r2
      00145F FD               [12] 4875 	mov	r5,a
      001460 E4               [12] 4876 	clr	a
      001461 3B               [12] 4877 	addc	a,r3
      001462 FB               [12] 4878 	mov	r3,a
      001463 90r00r15         [24] 4879 	mov	dptr,#_hc06_ptr
      001466 74 02            [12] 4880 	mov	a,#0x02
      001468 2D               [12] 4881 	add	a,r5
      001469 F0               [24] 4882 	movx	@dptr,a
      00146A E4               [12] 4883 	clr	a
      00146B 3B               [12] 4884 	addc	a,r3
      00146C A3               [24] 4885 	inc	dptr
      00146D F0               [24] 4886 	movx	@dptr,a
      00146E EC               [12] 4887 	mov	a,r4
      00146F A3               [24] 4888 	inc	dptr
      001470 F0               [24] 4889 	movx	@dptr,a
                                   4890 ;	../../../core/net/sicslowpan.c:800: iphc0 = RIME_IPHC_BUF[0];
      001471 8D 82            [24] 4891 	mov	dpl,r5
      001473 8B 83            [24] 4892 	mov	dph,r3
      001475 8C F0            [24] 4893 	mov	b,r4
      001477 A8 81            [24] 4894 	mov	r0,sp
      001479 18               [12] 4895 	dec	r0
      00147A 18               [12] 4896 	dec	r0
      00147B 12r00r00         [24] 4897 	lcall	__gptrget
      00147E F6               [12] 4898 	mov	@r0,a
                                   4899 ;	../../../core/net/sicslowpan.c:801: iphc1 = RIME_IPHC_BUF[1];
      00147F 74 01            [12] 4900 	mov	a,#0x01
      001481 2D               [12] 4901 	add	a,r5
      001482 FA               [12] 4902 	mov	r2,a
      001483 E4               [12] 4903 	clr	a
      001484 3B               [12] 4904 	addc	a,r3
      001485 FE               [12] 4905 	mov	r6,a
      001486 8C 07            [24] 4906 	mov	ar7,r4
      001488 8A 82            [24] 4907 	mov	dpl,r2
      00148A 8E 83            [24] 4908 	mov	dph,r6
      00148C 8F F0            [24] 4909 	mov	b,r7
      00148E 12r00r00         [24] 4910 	lcall	__gptrget
                                   4911 ;	../../../core/net/sicslowpan.c:804: if(iphc1 & SICSLOWPAN_IPHC_CID) {
      001491 FF               [12] 4912 	mov	r7,a
      001492 30 E7 0E         [24] 4913 	jnb	acc.7,00102$
                                   4914 ;	../../../core/net/sicslowpan.c:806: hc06_ptr++;
      001495 90r00r15         [24] 4915 	mov	dptr,#_hc06_ptr
      001498 74 03            [12] 4916 	mov	a,#0x03
      00149A 2D               [12] 4917 	add	a,r5
      00149B F0               [24] 4918 	movx	@dptr,a
      00149C E4               [12] 4919 	clr	a
      00149D 3B               [12] 4920 	addc	a,r3
      00149E A3               [24] 4921 	inc	dptr
      00149F F0               [24] 4922 	movx	@dptr,a
      0014A0 EC               [12] 4923 	mov	a,r4
      0014A1 A3               [24] 4924 	inc	dptr
      0014A2 F0               [24] 4925 	movx	@dptr,a
      0014A3                       4926 00102$:
                                   4927 ;	../../../core/net/sicslowpan.c:810: if((iphc0 & SICSLOWPAN_IPHC_FL_C) == 0) {
      0014A3 A8 81            [24] 4928 	mov	r0,sp
      0014A5 18               [12] 4929 	dec	r0
      0014A6 18               [12] 4930 	dec	r0
      0014A7 E6               [12] 4931 	mov	a,@r0
      0014A8 30 E4 03         [24] 4932 	jnb	acc.4,00299$
      0014AB 02r15rBF         [24] 4933 	ljmp	00110$
      0014AE                       4934 00299$:
                                   4935 ;	../../../core/net/sicslowpan.c:812: if((iphc0 & SICSLOWPAN_IPHC_TC_C) == 0) {
      0014AE A8 81            [24] 4936 	mov	r0,sp
      0014B0 18               [12] 4937 	dec	r0
      0014B1 18               [12] 4938 	dec	r0
      0014B2 E6               [12] 4939 	mov	a,@r0
      0014B3 30 E3 03         [24] 4940 	jnb	acc.3,00300$
      0014B6 02r15r3E         [24] 4941 	ljmp	00104$
      0014B9                       4942 00300$:
                                   4943 ;	../../../core/net/sicslowpan.c:814: memcpy(&SICSLOWPAN_IP_BUF->tcflow, hc06_ptr + 1, 3);
      0014B9 90r00r15         [24] 4944 	mov	dptr,#_hc06_ptr
      0014BC E0               [24] 4945 	movx	a,@dptr
      0014BD FC               [12] 4946 	mov	r4,a
      0014BE A3               [24] 4947 	inc	dptr
      0014BF E0               [24] 4948 	movx	a,@dptr
      0014C0 FD               [12] 4949 	mov	r5,a
      0014C1 A3               [24] 4950 	inc	dptr
      0014C2 E0               [24] 4951 	movx	a,@dptr
      0014C3 FE               [12] 4952 	mov	r6,a
      0014C4 0C               [12] 4953 	inc	r4
      0014C5 BC 00 01         [24] 4954 	cjne	r4,#0x00,00301$
      0014C8 0D               [12] 4955 	inc	r5
      0014C9                       4956 00301$:
      0014C9 C0 07            [24] 4957 	push	ar7
      0014CB 74 03            [12] 4958 	mov	a,#0x03
      0014CD C0 E0            [24] 4959 	push	acc
      0014CF E4               [12] 4960 	clr	a
      0014D0 C0 E0            [24] 4961 	push	acc
      0014D2 C0 04            [24] 4962 	push	ar4
      0014D4 C0 05            [24] 4963 	push	ar5
      0014D6 C0 06            [24] 4964 	push	ar6
      0014D8 90r00r01         [24] 4965 	mov	dptr,#(_uip_aligned_buf + 0x0001)
      0014DB 75 F0 00         [24] 4966 	mov	b,#0x00
      0014DE 78r00            [12] 4967 	mov	r0,#___memcpy
      0014E0 79s00            [12] 4968 	mov	r1,#(___memcpy >> 8)
      0014E2 7As00            [12] 4969 	mov	r2,#(___memcpy >> 16)
      0014E4 12r00r00         [24] 4970 	lcall	__sdcc_banked_call
      0014E7 E5 81            [12] 4971 	mov	a,sp
      0014E9 24 FB            [12] 4972 	add	a,#0xfb
      0014EB F5 81            [12] 4973 	mov	sp,a
      0014ED D0 07            [24] 4974 	pop	ar7
                                   4975 ;	../../../core/net/sicslowpan.c:815: tmp = *hc06_ptr;
      0014EF 90r00r15         [24] 4976 	mov	dptr,#_hc06_ptr
      0014F2 E0               [24] 4977 	movx	a,@dptr
      0014F3 FC               [12] 4978 	mov	r4,a
      0014F4 A3               [24] 4979 	inc	dptr
      0014F5 E0               [24] 4980 	movx	a,@dptr
      0014F6 FD               [12] 4981 	mov	r5,a
      0014F7 A3               [24] 4982 	inc	dptr
      0014F8 E0               [24] 4983 	movx	a,@dptr
      0014F9 FE               [12] 4984 	mov	r6,a
      0014FA 8C 82            [24] 4985 	mov	dpl,r4
      0014FC 8D 83            [24] 4986 	mov	dph,r5
      0014FE 8E F0            [24] 4987 	mov	b,r6
      001500 12r00r00         [24] 4988 	lcall	__gptrget
      001503 FB               [12] 4989 	mov	r3,a
                                   4990 ;	../../../core/net/sicslowpan.c:816: hc06_ptr += 4;
      001504 90r00r15         [24] 4991 	mov	dptr,#_hc06_ptr
      001507 74 04            [12] 4992 	mov	a,#0x04
      001509 2C               [12] 4993 	add	a,r4
      00150A F0               [24] 4994 	movx	@dptr,a
      00150B E4               [12] 4995 	clr	a
      00150C 3D               [12] 4996 	addc	a,r5
      00150D A3               [24] 4997 	inc	dptr
      00150E F0               [24] 4998 	movx	@dptr,a
      00150F EE               [12] 4999 	mov	a,r6
      001510 A3               [24] 5000 	inc	dptr
      001511 F0               [24] 5001 	movx	@dptr,a
                                   5002 ;	../../../core/net/sicslowpan.c:819: SICSLOWPAN_IP_BUF->vtc = 0x60 | ((tmp >> 2) & 0x0f);
      001512 EB               [12] 5003 	mov	a,r3
      001513 03               [12] 5004 	rr	a
      001514 03               [12] 5005 	rr	a
      001515 54 3F            [12] 5006 	anl	a,#0x3f
      001517 FE               [12] 5007 	mov	r6,a
      001518 74 0F            [12] 5008 	mov	a,#0x0f
      00151A 5E               [12] 5009 	anl	a,r6
      00151B 44 60            [12] 5010 	orl	a,#0x60
      00151D 90r00r00         [24] 5011 	mov	dptr,#_uip_aligned_buf
      001520 F0               [24] 5012 	movx	@dptr,a
                                   5013 ;	../../../core/net/sicslowpan.c:821: SICSLOWPAN_IP_BUF->tcflow = ((tmp >> 2) & 0x30) | (tmp << 6) |
      001521 53 06 30         [24] 5014 	anl	ar6,#0x30
      001524 EB               [12] 5015 	mov	a,r3
      001525 03               [12] 5016 	rr	a
      001526 03               [12] 5017 	rr	a
      001527 54 C0            [12] 5018 	anl	a,#0xc0
      001529 FB               [12] 5019 	mov	r3,a
      00152A 42 06            [12] 5020 	orl	ar6,a
                                   5021 ;	../../../core/net/sicslowpan.c:822: (SICSLOWPAN_IP_BUF->tcflow & 0x0f);
      00152C 90r00r01         [24] 5022 	mov	dptr,#(_uip_aligned_buf + 0x0001)
      00152F E0               [24] 5023 	movx	a,@dptr
      001530 FD               [12] 5024 	mov	r5,a
      001531 74 0F            [12] 5025 	mov	a,#0x0f
      001533 5D               [12] 5026 	anl	a,r5
      001534 42 06            [12] 5027 	orl	ar6,a
      001536 90r00r01         [24] 5028 	mov	dptr,#(_uip_aligned_buf + 0x0001)
      001539 EE               [12] 5029 	mov	a,r6
      00153A F0               [24] 5030 	movx	@dptr,a
      00153B 02r16r49         [24] 5031 	ljmp	00111$
      00153E                       5032 00104$:
                                   5033 ;	../../../core/net/sicslowpan.c:825: SICSLOWPAN_IP_BUF->vtc = 0x60;
      00153E 90r00r00         [24] 5034 	mov	dptr,#_uip_aligned_buf
      001541 74 60            [12] 5035 	mov	a,#0x60
      001543 F0               [24] 5036 	movx	@dptr,a
                                   5037 ;	../../../core/net/sicslowpan.c:827: SICSLOWPAN_IP_BUF->tcflow = (*hc06_ptr & 0x0F) |
      001544 90r00r15         [24] 5038 	mov	dptr,#_hc06_ptr
      001547 E0               [24] 5039 	movx	a,@dptr
      001548 FC               [12] 5040 	mov	r4,a
      001549 A3               [24] 5041 	inc	dptr
      00154A E0               [24] 5042 	movx	a,@dptr
      00154B FD               [12] 5043 	mov	r5,a
      00154C A3               [24] 5044 	inc	dptr
      00154D E0               [24] 5045 	movx	a,@dptr
      00154E FE               [12] 5046 	mov	r6,a
      00154F 8C 82            [24] 5047 	mov	dpl,r4
      001551 8D 83            [24] 5048 	mov	dph,r5
      001553 8E F0            [24] 5049 	mov	b,r6
      001555 12r00r00         [24] 5050 	lcall	__gptrget
      001558 FC               [12] 5051 	mov	r4,a
      001559 74 0F            [12] 5052 	mov	a,#0x0f
      00155B 5C               [12] 5053 	anl	a,r4
      00155C FE               [12] 5054 	mov	r6,a
                                   5055 ;	../../../core/net/sicslowpan.c:828: ((*hc06_ptr >> 2) & 0x30);
      00155D EC               [12] 5056 	mov	a,r4
      00155E 03               [12] 5057 	rr	a
      00155F 03               [12] 5058 	rr	a
      001560 54 3F            [12] 5059 	anl	a,#0x3f
      001562 FC               [12] 5060 	mov	r4,a
      001563 74 30            [12] 5061 	mov	a,#0x30
      001565 5C               [12] 5062 	anl	a,r4
      001566 42 06            [12] 5063 	orl	ar6,a
      001568 90r00r01         [24] 5064 	mov	dptr,#(_uip_aligned_buf + 0x0001)
      00156B EE               [12] 5065 	mov	a,r6
      00156C F0               [24] 5066 	movx	@dptr,a
                                   5067 ;	../../../core/net/sicslowpan.c:829: memcpy(&SICSLOWPAN_IP_BUF->flow, hc06_ptr + 1, 2);
      00156D 90r00r15         [24] 5068 	mov	dptr,#_hc06_ptr
      001570 E0               [24] 5069 	movx	a,@dptr
      001571 FC               [12] 5070 	mov	r4,a
      001572 A3               [24] 5071 	inc	dptr
      001573 E0               [24] 5072 	movx	a,@dptr
      001574 FD               [12] 5073 	mov	r5,a
      001575 A3               [24] 5074 	inc	dptr
      001576 E0               [24] 5075 	movx	a,@dptr
      001577 FE               [12] 5076 	mov	r6,a
      001578 0C               [12] 5077 	inc	r4
      001579 BC 00 01         [24] 5078 	cjne	r4,#0x00,00302$
      00157C 0D               [12] 5079 	inc	r5
      00157D                       5080 00302$:
      00157D C0 07            [24] 5081 	push	ar7
      00157F 74 02            [12] 5082 	mov	a,#0x02
      001581 C0 E0            [24] 5083 	push	acc
      001583 E4               [12] 5084 	clr	a
      001584 C0 E0            [24] 5085 	push	acc
      001586 C0 04            [24] 5086 	push	ar4
      001588 C0 05            [24] 5087 	push	ar5
      00158A C0 06            [24] 5088 	push	ar6
      00158C 90r00r02         [24] 5089 	mov	dptr,#(_uip_aligned_buf + 0x0002)
      00158F 75 F0 00         [24] 5090 	mov	b,#0x00
      001592 78r00            [12] 5091 	mov	r0,#___memcpy
      001594 79s00            [12] 5092 	mov	r1,#(___memcpy >> 8)
      001596 7As00            [12] 5093 	mov	r2,#(___memcpy >> 16)
      001598 12r00r00         [24] 5094 	lcall	__sdcc_banked_call
      00159B E5 81            [12] 5095 	mov	a,sp
      00159D 24 FB            [12] 5096 	add	a,#0xfb
      00159F F5 81            [12] 5097 	mov	sp,a
      0015A1 D0 07            [24] 5098 	pop	ar7
                                   5099 ;	../../../core/net/sicslowpan.c:830: hc06_ptr += 3;
      0015A3 90r00r15         [24] 5100 	mov	dptr,#_hc06_ptr
      0015A6 E0               [24] 5101 	movx	a,@dptr
      0015A7 FC               [12] 5102 	mov	r4,a
      0015A8 A3               [24] 5103 	inc	dptr
      0015A9 E0               [24] 5104 	movx	a,@dptr
      0015AA FD               [12] 5105 	mov	r5,a
      0015AB A3               [24] 5106 	inc	dptr
      0015AC E0               [24] 5107 	movx	a,@dptr
      0015AD FE               [12] 5108 	mov	r6,a
      0015AE 90r00r15         [24] 5109 	mov	dptr,#_hc06_ptr
      0015B1 74 03            [12] 5110 	mov	a,#0x03
      0015B3 2C               [12] 5111 	add	a,r4
      0015B4 F0               [24] 5112 	movx	@dptr,a
      0015B5 E4               [12] 5113 	clr	a
      0015B6 3D               [12] 5114 	addc	a,r5
      0015B7 A3               [24] 5115 	inc	dptr
      0015B8 F0               [24] 5116 	movx	@dptr,a
      0015B9 EE               [12] 5117 	mov	a,r6
      0015BA A3               [24] 5118 	inc	dptr
      0015BB F0               [24] 5119 	movx	@dptr,a
      0015BC 02r16r49         [24] 5120 	ljmp	00111$
      0015BF                       5121 00110$:
                                   5122 ;	../../../core/net/sicslowpan.c:835: if((iphc0 & SICSLOWPAN_IPHC_TC_C) == 0) {
      0015BF A8 81            [24] 5123 	mov	r0,sp
      0015C1 18               [12] 5124 	dec	r0
      0015C2 18               [12] 5125 	dec	r0
      0015C3 E6               [12] 5126 	mov	a,@r0
      0015C4 20 E3 71         [24] 5127 	jb	acc.3,00107$
                                   5128 ;	../../../core/net/sicslowpan.c:837: SICSLOWPAN_IP_BUF->vtc = 0x60 | ((*hc06_ptr >> 2) & 0x0f);
      0015C7 90r00r15         [24] 5129 	mov	dptr,#_hc06_ptr
      0015CA E0               [24] 5130 	movx	a,@dptr
      0015CB FC               [12] 5131 	mov	r4,a
      0015CC A3               [24] 5132 	inc	dptr
      0015CD E0               [24] 5133 	movx	a,@dptr
      0015CE FD               [12] 5134 	mov	r5,a
      0015CF A3               [24] 5135 	inc	dptr
      0015D0 E0               [24] 5136 	movx	a,@dptr
      0015D1 FE               [12] 5137 	mov	r6,a
      0015D2 8C 82            [24] 5138 	mov	dpl,r4
      0015D4 8D 83            [24] 5139 	mov	dph,r5
      0015D6 8E F0            [24] 5140 	mov	b,r6
      0015D8 12r00r00         [24] 5141 	lcall	__gptrget
      0015DB 03               [12] 5142 	rr	a
      0015DC 03               [12] 5143 	rr	a
      0015DD 54 3F            [12] 5144 	anl	a,#0x3f
      0015DF FC               [12] 5145 	mov	r4,a
      0015E0 74 0F            [12] 5146 	mov	a,#0x0f
      0015E2 5C               [12] 5147 	anl	a,r4
      0015E3 44 60            [12] 5148 	orl	a,#0x60
      0015E5 90r00r00         [24] 5149 	mov	dptr,#_uip_aligned_buf
      0015E8 F0               [24] 5150 	movx	@dptr,a
                                   5151 ;	../../../core/net/sicslowpan.c:838: SICSLOWPAN_IP_BUF->tcflow = ((*hc06_ptr << 6) & 0xC0) | ((*hc06_ptr >> 2) & 0x30);
      0015E9 90r00r15         [24] 5152 	mov	dptr,#_hc06_ptr
      0015EC E0               [24] 5153 	movx	a,@dptr
      0015ED FC               [12] 5154 	mov	r4,a
      0015EE A3               [24] 5155 	inc	dptr
      0015EF E0               [24] 5156 	movx	a,@dptr
      0015F0 FD               [12] 5157 	mov	r5,a
      0015F1 A3               [24] 5158 	inc	dptr
      0015F2 E0               [24] 5159 	movx	a,@dptr
      0015F3 FE               [12] 5160 	mov	r6,a
      0015F4 8C 82            [24] 5161 	mov	dpl,r4
      0015F6 8D 83            [24] 5162 	mov	dph,r5
      0015F8 8E F0            [24] 5163 	mov	b,r6
      0015FA 12r00r00         [24] 5164 	lcall	__gptrget
      0015FD FC               [12] 5165 	mov	r4,a
      0015FE 03               [12] 5166 	rr	a
      0015FF 03               [12] 5167 	rr	a
      001600 54 C0            [12] 5168 	anl	a,#0xc0
      001602 FE               [12] 5169 	mov	r6,a
      001603 53 06 C0         [24] 5170 	anl	ar6,#0xc0
      001606 EC               [12] 5171 	mov	a,r4
      001607 03               [12] 5172 	rr	a
      001608 03               [12] 5173 	rr	a
      001609 54 3F            [12] 5174 	anl	a,#0x3f
      00160B FC               [12] 5175 	mov	r4,a
      00160C 74 30            [12] 5176 	mov	a,#0x30
      00160E 5C               [12] 5177 	anl	a,r4
      00160F 42 06            [12] 5178 	orl	ar6,a
      001611 90r00r01         [24] 5179 	mov	dptr,#(_uip_aligned_buf + 0x0001)
      001614 EE               [12] 5180 	mov	a,r6
      001615 F0               [24] 5181 	movx	@dptr,a
                                   5182 ;	../../../core/net/sicslowpan.c:839: SICSLOWPAN_IP_BUF->flow = 0;
      001616 90r00r02         [24] 5183 	mov	dptr,#(_uip_aligned_buf + 0x0002)
      001619 E4               [12] 5184 	clr	a
      00161A F0               [24] 5185 	movx	@dptr,a
      00161B A3               [24] 5186 	inc	dptr
      00161C F0               [24] 5187 	movx	@dptr,a
                                   5188 ;	../../../core/net/sicslowpan.c:840: hc06_ptr += 1;
      00161D 90r00r15         [24] 5189 	mov	dptr,#_hc06_ptr
      001620 E0               [24] 5190 	movx	a,@dptr
      001621 FC               [12] 5191 	mov	r4,a
      001622 A3               [24] 5192 	inc	dptr
      001623 E0               [24] 5193 	movx	a,@dptr
      001624 FD               [12] 5194 	mov	r5,a
      001625 A3               [24] 5195 	inc	dptr
      001626 E0               [24] 5196 	movx	a,@dptr
      001627 FE               [12] 5197 	mov	r6,a
      001628 90r00r15         [24] 5198 	mov	dptr,#_hc06_ptr
      00162B 74 01            [12] 5199 	mov	a,#0x01
      00162D 2C               [12] 5200 	add	a,r4
      00162E F0               [24] 5201 	movx	@dptr,a
      00162F E4               [12] 5202 	clr	a
      001630 3D               [12] 5203 	addc	a,r5
      001631 A3               [24] 5204 	inc	dptr
      001632 F0               [24] 5205 	movx	@dptr,a
      001633 EE               [12] 5206 	mov	a,r6
      001634 A3               [24] 5207 	inc	dptr
      001635 F0               [24] 5208 	movx	@dptr,a
      001636 80 11            [24] 5209 	sjmp	00111$
      001638                       5210 00107$:
                                   5211 ;	../../../core/net/sicslowpan.c:843: SICSLOWPAN_IP_BUF->vtc = 0x60;
      001638 90r00r00         [24] 5212 	mov	dptr,#_uip_aligned_buf
      00163B 74 60            [12] 5213 	mov	a,#0x60
      00163D F0               [24] 5214 	movx	@dptr,a
                                   5215 ;	../../../core/net/sicslowpan.c:844: SICSLOWPAN_IP_BUF->tcflow = 0;
      00163E 90r00r01         [24] 5216 	mov	dptr,#(_uip_aligned_buf + 0x0001)
      001641 E4               [12] 5217 	clr	a
      001642 F0               [24] 5218 	movx	@dptr,a
                                   5219 ;	../../../core/net/sicslowpan.c:845: SICSLOWPAN_IP_BUF->flow = 0;
      001643 90r00r02         [24] 5220 	mov	dptr,#(_uip_aligned_buf + 0x0002)
      001646 F0               [24] 5221 	movx	@dptr,a
      001647 A3               [24] 5222 	inc	dptr
      001648 F0               [24] 5223 	movx	@dptr,a
      001649                       5224 00111$:
                                   5225 ;	../../../core/net/sicslowpan.c:850: if((iphc0 & SICSLOWPAN_IPHC_NH_C) == 0) {
      001649 A8 81            [24] 5226 	mov	r0,sp
      00164B 18               [12] 5227 	dec	r0
      00164C 18               [12] 5228 	dec	r0
      00164D E6               [12] 5229 	mov	a,@r0
      00164E 20 E2 31         [24] 5230 	jb	acc.2,00113$
                                   5231 ;	../../../core/net/sicslowpan.c:852: SICSLOWPAN_IP_BUF->proto = *hc06_ptr;
      001651 90r00r15         [24] 5232 	mov	dptr,#_hc06_ptr
      001654 E0               [24] 5233 	movx	a,@dptr
      001655 FC               [12] 5234 	mov	r4,a
      001656 A3               [24] 5235 	inc	dptr
      001657 E0               [24] 5236 	movx	a,@dptr
      001658 FD               [12] 5237 	mov	r5,a
      001659 A3               [24] 5238 	inc	dptr
      00165A E0               [24] 5239 	movx	a,@dptr
      00165B FE               [12] 5240 	mov	r6,a
      00165C 8C 82            [24] 5241 	mov	dpl,r4
      00165E 8D 83            [24] 5242 	mov	dph,r5
      001660 8E F0            [24] 5243 	mov	b,r6
      001662 12r00r00         [24] 5244 	lcall	__gptrget
      001665 90r00r06         [24] 5245 	mov	dptr,#(_uip_aligned_buf + 0x0006)
      001668 F0               [24] 5246 	movx	@dptr,a
                                   5247 ;	../../../core/net/sicslowpan.c:854: hc06_ptr += 1;
      001669 90r00r15         [24] 5248 	mov	dptr,#_hc06_ptr
      00166C E0               [24] 5249 	movx	a,@dptr
      00166D FC               [12] 5250 	mov	r4,a
      00166E A3               [24] 5251 	inc	dptr
      00166F E0               [24] 5252 	movx	a,@dptr
      001670 FD               [12] 5253 	mov	r5,a
      001671 A3               [24] 5254 	inc	dptr
      001672 E0               [24] 5255 	movx	a,@dptr
      001673 FE               [12] 5256 	mov	r6,a
      001674 90r00r15         [24] 5257 	mov	dptr,#_hc06_ptr
      001677 74 01            [12] 5258 	mov	a,#0x01
      001679 2C               [12] 5259 	add	a,r4
      00167A F0               [24] 5260 	movx	@dptr,a
      00167B E4               [12] 5261 	clr	a
      00167C 3D               [12] 5262 	addc	a,r5
      00167D A3               [24] 5263 	inc	dptr
      00167E F0               [24] 5264 	movx	@dptr,a
      00167F EE               [12] 5265 	mov	a,r6
      001680 A3               [24] 5266 	inc	dptr
      001681 F0               [24] 5267 	movx	@dptr,a
      001682                       5268 00113$:
                                   5269 ;	../../../core/net/sicslowpan.c:858: if((iphc0 & 0x03) != SICSLOWPAN_IPHC_TTL_I) {
      001682 A8 81            [24] 5270 	mov	r0,sp
      001684 18               [12] 5271 	dec	r0
      001685 18               [12] 5272 	dec	r0
      001686 E6               [12] 5273 	mov	a,@r0
      001687 54 03            [12] 5274 	anl	a,#0x03
      001689 60 1E            [24] 5275 	jz	00115$
                                   5276 ;	../../../core/net/sicslowpan.c:859: SICSLOWPAN_IP_BUF->ttl = ttl_values[iphc0 & 0x03];
      00168B A8 81            [24] 5277 	mov	r0,sp
      00168D 18               [12] 5278 	dec	r0
      00168E 18               [12] 5279 	dec	r0
      00168F 86 02            [24] 5280 	mov	ar2,@r0
      001691 53 02 03         [24] 5281 	anl	ar2,#0x03
      001694 7E 00            [12] 5282 	mov	r6,#0x00
      001696 EA               [12] 5283 	mov	a,r2
      001697 24r0E            [12] 5284 	add	a,#_ttl_values
      001699 F5 82            [12] 5285 	mov	dpl,a
      00169B EE               [12] 5286 	mov	a,r6
      00169C 34s00            [12] 5287 	addc	a,#(_ttl_values >> 8)
      00169E F5 83            [12] 5288 	mov	dph,a
      0016A0 E4               [12] 5289 	clr	a
      0016A1 93               [24] 5290 	movc	a,@a+dptr
      0016A2 FE               [12] 5291 	mov	r6,a
      0016A3 90r00r07         [24] 5292 	mov	dptr,#(_uip_aligned_buf + 0x0007)
      0016A6 F0               [24] 5293 	movx	@dptr,a
      0016A7 80 31            [24] 5294 	sjmp	00116$
      0016A9                       5295 00115$:
                                   5296 ;	../../../core/net/sicslowpan.c:861: SICSLOWPAN_IP_BUF->ttl = *hc06_ptr;
      0016A9 90r00r15         [24] 5297 	mov	dptr,#_hc06_ptr
      0016AC E0               [24] 5298 	movx	a,@dptr
      0016AD FC               [12] 5299 	mov	r4,a
      0016AE A3               [24] 5300 	inc	dptr
      0016AF E0               [24] 5301 	movx	a,@dptr
      0016B0 FD               [12] 5302 	mov	r5,a
      0016B1 A3               [24] 5303 	inc	dptr
      0016B2 E0               [24] 5304 	movx	a,@dptr
      0016B3 FE               [12] 5305 	mov	r6,a
      0016B4 8C 82            [24] 5306 	mov	dpl,r4
      0016B6 8D 83            [24] 5307 	mov	dph,r5
      0016B8 8E F0            [24] 5308 	mov	b,r6
      0016BA 12r00r00         [24] 5309 	lcall	__gptrget
      0016BD 90r00r07         [24] 5310 	mov	dptr,#(_uip_aligned_buf + 0x0007)
      0016C0 F0               [24] 5311 	movx	@dptr,a
                                   5312 ;	../../../core/net/sicslowpan.c:862: hc06_ptr += 1;
      0016C1 90r00r15         [24] 5313 	mov	dptr,#_hc06_ptr
      0016C4 E0               [24] 5314 	movx	a,@dptr
      0016C5 FC               [12] 5315 	mov	r4,a
      0016C6 A3               [24] 5316 	inc	dptr
      0016C7 E0               [24] 5317 	movx	a,@dptr
      0016C8 FD               [12] 5318 	mov	r5,a
      0016C9 A3               [24] 5319 	inc	dptr
      0016CA E0               [24] 5320 	movx	a,@dptr
      0016CB FE               [12] 5321 	mov	r6,a
      0016CC 90r00r15         [24] 5322 	mov	dptr,#_hc06_ptr
      0016CF 74 01            [12] 5323 	mov	a,#0x01
      0016D1 2C               [12] 5324 	add	a,r4
      0016D2 F0               [24] 5325 	movx	@dptr,a
      0016D3 E4               [12] 5326 	clr	a
      0016D4 3D               [12] 5327 	addc	a,r5
      0016D5 A3               [24] 5328 	inc	dptr
      0016D6 F0               [24] 5329 	movx	@dptr,a
      0016D7 EE               [12] 5330 	mov	a,r6
      0016D8 A3               [24] 5331 	inc	dptr
      0016D9 F0               [24] 5332 	movx	@dptr,a
      0016DA                       5333 00116$:
                                   5334 ;	../../../core/net/sicslowpan.c:866: tmp = ((iphc1 & SICSLOWPAN_IPHC_SAM_11) >> SICSLOWPAN_IPHC_SAM_BIT) & 0x03;
      0016DA 8F 05            [24] 5335 	mov	ar5,r7
      0016DC 7E 00            [12] 5336 	mov	r6,#0x00
      0016DE 74 30            [12] 5337 	mov	a,#0x30
      0016E0 5D               [12] 5338 	anl	a,r5
      0016E1 FB               [12] 5339 	mov	r3,a
      0016E2 E4               [12] 5340 	clr	a
      0016E3 CB               [12] 5341 	xch	a,r3
      0016E4 C4               [12] 5342 	swap	a
      0016E5 54 0F            [12] 5343 	anl	a,#0x0f
      0016E7 6B               [12] 5344 	xrl	a,r3
      0016E8 CB               [12] 5345 	xch	a,r3
      0016E9 54 0F            [12] 5346 	anl	a,#0x0f
      0016EB CB               [12] 5347 	xch	a,r3
      0016EC 6B               [12] 5348 	xrl	a,r3
      0016ED CB               [12] 5349 	xch	a,r3
      0016EE 30 E3 02         [24] 5350 	jnb	acc.3,00306$
      0016F1 44 F0            [12] 5351 	orl	a,#0xf0
      0016F3                       5352 00306$:
      0016F3 FC               [12] 5353 	mov	r4,a
      0016F4 E5 81            [12] 5354 	mov	a,sp
      0016F6 24 FD            [12] 5355 	add	a,#0xfd
      0016F8 F8               [12] 5356 	mov	r0,a
      0016F9 74 03            [12] 5357 	mov	a,#0x03
      0016FB 5B               [12] 5358 	anl	a,r3
      0016FC F6               [12] 5359 	mov	@r0,a
                                   5360 ;	../../../core/net/sicslowpan.c:869: if(iphc1 & SICSLOWPAN_IPHC_SAC) {
      0016FD EF               [12] 5361 	mov	a,r7
      0016FE 20 E6 03         [24] 5362 	jb	acc.6,00307$
      001701 02r18r2E         [24] 5363 	ljmp	00122$
      001704                       5364 00307$:
                                   5365 ;	../../../core/net/sicslowpan.c:870: uint8_t sci = (iphc1 & SICSLOWPAN_IPHC_CID) ?
      001704 EF               [12] 5366 	mov	a,r7
      001705 30 E7 36         [24] 5367 	jnb	acc.7,00157$
      001708 C0 05            [24] 5368 	push	ar5
      00170A C0 06            [24] 5369 	push	ar6
      00170C 90r00r03         [24] 5370 	mov	dptr,#_rime_hdr_len
      00170F E0               [24] 5371 	movx	a,@dptr
      001710 FB               [12] 5372 	mov	r3,a
      001711 90r00r00         [24] 5373 	mov	dptr,#_rime_ptr
      001714 E0               [24] 5374 	movx	a,@dptr
      001715 FA               [12] 5375 	mov	r2,a
      001716 A3               [24] 5376 	inc	dptr
      001717 E0               [24] 5377 	movx	a,@dptr
      001718 FD               [12] 5378 	mov	r5,a
      001719 A3               [24] 5379 	inc	dptr
      00171A E0               [24] 5380 	movx	a,@dptr
      00171B FE               [12] 5381 	mov	r6,a
      00171C EB               [12] 5382 	mov	a,r3
      00171D 2A               [12] 5383 	add	a,r2
      00171E FA               [12] 5384 	mov	r2,a
      00171F E4               [12] 5385 	clr	a
      001720 3D               [12] 5386 	addc	a,r5
      001721 FD               [12] 5387 	mov	r5,a
      001722 74 02            [12] 5388 	mov	a,#0x02
      001724 2A               [12] 5389 	add	a,r2
      001725 FA               [12] 5390 	mov	r2,a
      001726 E4               [12] 5391 	clr	a
      001727 3D               [12] 5392 	addc	a,r5
      001728 FD               [12] 5393 	mov	r5,a
      001729 8A 82            [24] 5394 	mov	dpl,r2
      00172B 8D 83            [24] 5395 	mov	dph,r5
      00172D 8E F0            [24] 5396 	mov	b,r6
      00172F 12r00r00         [24] 5397 	lcall	__gptrget
      001732 C4               [12] 5398 	swap	a
      001733 54 0F            [12] 5399 	anl	a,#0x0f
      001735 FA               [12] 5400 	mov	r2,a
      001736 7C 00            [12] 5401 	mov	r4,#0x00
      001738 D0 06            [24] 5402 	pop	ar6
      00173A D0 05            [24] 5403 	pop	ar5
      00173C 80 04            [24] 5404 	sjmp	00158$
      00173E                       5405 00157$:
      00173E 7A 00            [12] 5406 	mov	r2,#0x00
      001740 7C 00            [12] 5407 	mov	r4,#0x00
      001742                       5408 00158$:
      001742 8A 03            [24] 5409 	mov	ar3,r2
                                   5410 ;	../../../core/net/sicslowpan.c:874: if (tmp != 0) {
      001744 E5 81            [12] 5411 	mov	a,sp
      001746 24 FD            [12] 5412 	add	a,#0xfd
      001748 F8               [12] 5413 	mov	r0,a
      001749 E6               [12] 5414 	mov	a,@r0
      00174A 60 2F            [24] 5415 	jz	00120$
                                   5416 ;	../../../core/net/sicslowpan.c:875: context = addr_context_lookup_by_number(sci);
      00174C 8B 82            [24] 5417 	mov	dpl,r3
      00174E C0 07            [24] 5418 	push	ar7
      001750 C0 06            [24] 5419 	push	ar6
      001752 C0 05            [24] 5420 	push	ar5
      001754 78rD6            [12] 5421 	mov	r0,#_addr_context_lookup_by_number
      001756 79s01            [12] 5422 	mov	r1,#(_addr_context_lookup_by_number >> 8)
      001758 7As00            [12] 5423 	mov	r2,#(_addr_context_lookup_by_number >> 16)
      00175A 12r00r00         [24] 5424 	lcall	__sdcc_banked_call
      00175D AA 82            [24] 5425 	mov	r2,dpl
      00175F AB 83            [24] 5426 	mov	r3,dph
      001761 AC F0            [24] 5427 	mov	r4,b
      001763 D0 05            [24] 5428 	pop	ar5
      001765 D0 06            [24] 5429 	pop	ar6
      001767 D0 07            [24] 5430 	pop	ar7
      001769 90r00r12         [24] 5431 	mov	dptr,#_context
      00176C EA               [12] 5432 	mov	a,r2
      00176D F0               [24] 5433 	movx	@dptr,a
      00176E EB               [12] 5434 	mov	a,r3
      00176F A3               [24] 5435 	inc	dptr
      001770 F0               [24] 5436 	movx	@dptr,a
      001771 EC               [12] 5437 	mov	a,r4
      001772 A3               [24] 5438 	inc	dptr
      001773 F0               [24] 5439 	movx	@dptr,a
                                   5440 ;	../../../core/net/sicslowpan.c:876: if(context == NULL) {
      001774 EA               [12] 5441 	mov	a,r2
      001775 4B               [12] 5442 	orl	a,r3
      001776 70 03            [24] 5443 	jnz	00120$
                                   5444 ;	../../../core/net/sicslowpan.c:878: return;
      001778 02r1DrB1         [24] 5445 	ljmp	00155$
      00177B                       5446 00120$:
                                   5447 ;	../../../core/net/sicslowpan.c:884: (uip_lladdr_t *)packetbuf_addr(PACKETBUF_ADDR_SENDER));
      00177B 75 82 18         [24] 5448 	mov	dpl,#0x18
      00177E C0 07            [24] 5449 	push	ar7
      001780 C0 06            [24] 5450 	push	ar6
      001782 C0 05            [24] 5451 	push	ar5
      001784 78r00            [12] 5452 	mov	r0,#_packetbuf_addr
      001786 79s00            [12] 5453 	mov	r1,#(_packetbuf_addr >> 8)
      001788 7As00            [12] 5454 	mov	r2,#(_packetbuf_addr >> 16)
      00178A 12r00r00         [24] 5455 	lcall	__sdcc_banked_call
      00178D AA 82            [24] 5456 	mov	r2,dpl
      00178F AB 83            [24] 5457 	mov	r3,dph
      001791 AC F0            [24] 5458 	mov	r4,b
      001793 D0 05            [24] 5459 	pop	ar5
      001795 D0 06            [24] 5460 	pop	ar6
      001797 D0 07            [24] 5461 	pop	ar7
                                   5462 ;	../../../core/net/sicslowpan.c:883: tmp != 0 ? context->prefix : NULL, unc_ctxconf[tmp],
      001799 E5 81            [12] 5463 	mov	a,sp
      00179B 24 FD            [12] 5464 	add	a,#0xfd
      00179D F8               [12] 5465 	mov	r0,a
      00179E E6               [12] 5466 	mov	a,@r0
      00179F 24r04            [12] 5467 	add	a,#_unc_ctxconf
      0017A1 F5 82            [12] 5468 	mov	dpl,a
      0017A3 E4               [12] 5469 	clr	a
      0017A4 34s00            [12] 5470 	addc	a,#(_unc_ctxconf >> 8)
      0017A6 F5 83            [12] 5471 	mov	dph,a
      0017A8 E5 81            [12] 5472 	mov	a,sp
      0017AA 24 F5            [12] 5473 	add	a,#0xf5
      0017AC F8               [12] 5474 	mov	r0,a
      0017AD E4               [12] 5475 	clr	a
      0017AE 93               [24] 5476 	movc	a,@a+dptr
      0017AF F6               [12] 5477 	mov	@r0,a
      0017B0 E5 81            [12] 5478 	mov	a,sp
      0017B2 24 FD            [12] 5479 	add	a,#0xfd
      0017B4 F8               [12] 5480 	mov	r0,a
      0017B5 E6               [12] 5481 	mov	a,@r0
      0017B6 60 29            [24] 5482 	jz	00159$
      0017B8 C0 02            [24] 5483 	push	ar2
      0017BA C0 03            [24] 5484 	push	ar3
      0017BC C0 04            [24] 5485 	push	ar4
      0017BE 90r00r12         [24] 5486 	mov	dptr,#_context
      0017C1 E0               [24] 5487 	movx	a,@dptr
      0017C2 FA               [12] 5488 	mov	r2,a
      0017C3 A3               [24] 5489 	inc	dptr
      0017C4 E0               [24] 5490 	movx	a,@dptr
      0017C5 FB               [12] 5491 	mov	r3,a
      0017C6 A3               [24] 5492 	inc	dptr
      0017C7 E0               [24] 5493 	movx	a,@dptr
      0017C8 FC               [12] 5494 	mov	r4,a
      0017C9 E5 81            [12] 5495 	mov	a,sp
      0017CB 24 F4            [12] 5496 	add	a,#0xf4
      0017CD F8               [12] 5497 	mov	r0,a
      0017CE 74 02            [12] 5498 	mov	a,#0x02
      0017D0 2A               [12] 5499 	add	a,r2
      0017D1 F6               [12] 5500 	mov	@r0,a
      0017D2 E4               [12] 5501 	clr	a
      0017D3 3B               [12] 5502 	addc	a,r3
      0017D4 08               [12] 5503 	inc	r0
      0017D5 F6               [12] 5504 	mov	@r0,a
      0017D6 08               [12] 5505 	inc	r0
      0017D7 A6 04            [24] 5506 	mov	@r0,ar4
      0017D9 D0 04            [24] 5507 	pop	ar4
      0017DB D0 03            [24] 5508 	pop	ar3
      0017DD D0 02            [24] 5509 	pop	ar2
      0017DF 80 0C            [24] 5510 	sjmp	00160$
      0017E1                       5511 00159$:
      0017E1 E5 81            [12] 5512 	mov	a,sp
      0017E3 24 F7            [12] 5513 	add	a,#0xf7
      0017E5 F8               [12] 5514 	mov	r0,a
      0017E6 E4               [12] 5515 	clr	a
      0017E7 F6               [12] 5516 	mov	@r0,a
      0017E8 08               [12] 5517 	inc	r0
      0017E9 F6               [12] 5518 	mov	@r0,a
      0017EA 08               [12] 5519 	inc	r0
      0017EB 76 00            [12] 5520 	mov	@r0,#0x00
      0017ED                       5521 00160$:
                                   5522 ;	../../../core/net/sicslowpan.c:882: uncompress_addr(&SICSLOWPAN_IP_BUF->srcipaddr,
      0017ED C0 07            [24] 5523 	push	ar7
      0017EF C0 06            [24] 5524 	push	ar6
      0017F1 C0 05            [24] 5525 	push	ar5
      0017F3 C0 02            [24] 5526 	push	ar2
      0017F5 C0 03            [24] 5527 	push	ar3
      0017F7 C0 04            [24] 5528 	push	ar4
      0017F9 E5 81            [12] 5529 	mov	a,sp
      0017FB 24 EF            [12] 5530 	add	a,#0xef
      0017FD F8               [12] 5531 	mov	r0,a
      0017FE E6               [12] 5532 	mov	a,@r0
      0017FF C0 E0            [24] 5533 	push	acc
      001801 E5 81            [12] 5534 	mov	a,sp
      001803 24 F0            [12] 5535 	add	a,#0xf0
      001805 F8               [12] 5536 	mov	r0,a
      001806 E6               [12] 5537 	mov	a,@r0
      001807 C0 E0            [24] 5538 	push	acc
      001809 08               [12] 5539 	inc	r0
      00180A E6               [12] 5540 	mov	a,@r0
      00180B C0 E0            [24] 5541 	push	acc
      00180D 08               [12] 5542 	inc	r0
      00180E E6               [12] 5543 	mov	a,@r0
      00180F C0 E0            [24] 5544 	push	acc
      001811 90r00r08         [24] 5545 	mov	dptr,#(_uip_aligned_buf + 0x0008)
      001814 75 F0 00         [24] 5546 	mov	b,#0x00
      001817 78r1B            [12] 5547 	mov	r0,#_uncompress_addr
      001819 79s06            [12] 5548 	mov	r1,#(_uncompress_addr >> 8)
      00181B 7As00            [12] 5549 	mov	r2,#(_uncompress_addr >> 16)
      00181D 12r00r00         [24] 5550 	lcall	__sdcc_banked_call
      001820 E5 81            [12] 5551 	mov	a,sp
      001822 24 F9            [12] 5552 	add	a,#0xf9
      001824 F5 81            [12] 5553 	mov	sp,a
      001826 D0 05            [24] 5554 	pop	ar5
      001828 D0 06            [24] 5555 	pop	ar6
      00182A D0 07            [24] 5556 	pop	ar7
      00182C 80 66            [24] 5557 	sjmp	00123$
      00182E                       5558 00122$:
                                   5559 ;	../../../core/net/sicslowpan.c:888: (uip_lladdr_t *)packetbuf_addr(PACKETBUF_ADDR_SENDER));
      00182E C0 05            [24] 5560 	push	ar5
      001830 C0 06            [24] 5561 	push	ar6
      001832 75 82 18         [24] 5562 	mov	dpl,#0x18
      001835 C0 07            [24] 5563 	push	ar7
      001837 C0 06            [24] 5564 	push	ar6
      001839 C0 05            [24] 5565 	push	ar5
      00183B 78r00            [12] 5566 	mov	r0,#_packetbuf_addr
      00183D 79s00            [12] 5567 	mov	r1,#(_packetbuf_addr >> 8)
      00183F 7As00            [12] 5568 	mov	r2,#(_packetbuf_addr >> 16)
      001841 12r00r00         [24] 5569 	lcall	__sdcc_banked_call
      001844 AA 82            [24] 5570 	mov	r2,dpl
      001846 AB 83            [24] 5571 	mov	r3,dph
      001848 AC F0            [24] 5572 	mov	r4,b
      00184A D0 05            [24] 5573 	pop	ar5
      00184C D0 06            [24] 5574 	pop	ar6
      00184E D0 07            [24] 5575 	pop	ar7
                                   5576 ;	../../../core/net/sicslowpan.c:887: uncompress_addr(&SICSLOWPAN_IP_BUF->srcipaddr, llprefix, unc_llconf[tmp],
      001850 E5 81            [12] 5577 	mov	a,sp
      001852 24 FB            [12] 5578 	add	a,#0xfb
      001854 F8               [12] 5579 	mov	r0,a
      001855 E6               [12] 5580 	mov	a,@r0
      001856 90r00r00         [24] 5581 	mov	dptr,#_unc_llconf
      001859 93               [24] 5582 	movc	a,@a+dptr
      00185A FE               [12] 5583 	mov	r6,a
      00185B C0 07            [24] 5584 	push	ar7
      00185D C0 06            [24] 5585 	push	ar6
      00185F C0 05            [24] 5586 	push	ar5
      001861 C0 02            [24] 5587 	push	ar2
      001863 C0 03            [24] 5588 	push	ar3
      001865 C0 04            [24] 5589 	push	ar4
      001867 C0 06            [24] 5590 	push	ar6
      001869 74r0C            [12] 5591 	mov	a,#_llprefix
      00186B C0 E0            [24] 5592 	push	acc
      00186D 74s00            [12] 5593 	mov	a,#(_llprefix >> 8)
      00186F C0 E0            [24] 5594 	push	acc
      001871 74 80            [12] 5595 	mov	a,#0x80
      001873 C0 E0            [24] 5596 	push	acc
      001875 90r00r08         [24] 5597 	mov	dptr,#(_uip_aligned_buf + 0x0008)
      001878 75 F0 00         [24] 5598 	mov	b,#0x00
      00187B 78r1B            [12] 5599 	mov	r0,#_uncompress_addr
      00187D 79s06            [12] 5600 	mov	r1,#(_uncompress_addr >> 8)
      00187F 7As00            [12] 5601 	mov	r2,#(_uncompress_addr >> 16)
      001881 12r00r00         [24] 5602 	lcall	__sdcc_banked_call
      001884 E5 81            [12] 5603 	mov	a,sp
      001886 24 F9            [12] 5604 	add	a,#0xf9
      001888 F5 81            [12] 5605 	mov	sp,a
      00188A D0 05            [24] 5606 	pop	ar5
      00188C D0 06            [24] 5607 	pop	ar6
      00188E D0 07            [24] 5608 	pop	ar7
                                   5609 ;	../../../core/net/sicslowpan.c:1028: return;
      001890 D0 06            [24] 5610 	pop	ar6
      001892 D0 05            [24] 5611 	pop	ar5
                                   5612 ;	../../../core/net/sicslowpan.c:887: uncompress_addr(&SICSLOWPAN_IP_BUF->srcipaddr, llprefix, unc_llconf[tmp],
      001894                       5613 00123$:
                                   5614 ;	../../../core/net/sicslowpan.c:893: tmp = ((iphc1 & SICSLOWPAN_IPHC_DAM_11) >> SICSLOWPAN_IPHC_DAM_BIT) & 0x03;
      001894 53 05 03         [24] 5615 	anl	ar5,#0x03
      001897 74 03            [12] 5616 	mov	a,#0x03
      001899 5D               [12] 5617 	anl	a,r5
      00189A FE               [12] 5618 	mov	r6,a
                                   5619 ;	../../../core/net/sicslowpan.c:896: if(iphc1 & SICSLOWPAN_IPHC_M) {
      00189B EF               [12] 5620 	mov	a,r7
      00189C 30 E3 70         [24] 5621 	jnb	acc.3,00136$
                                   5622 ;	../../../core/net/sicslowpan.c:898: if(iphc1 & SICSLOWPAN_IPHC_DAC) {
      00189F EF               [12] 5623 	mov	a,r7
      0018A0 30 E2 03         [24] 5624 	jnb	acc.2,00313$
      0018A3 02r1Ar23         [24] 5625 	ljmp	00137$
      0018A6                       5626 00313$:
                                   5627 ;	../../../core/net/sicslowpan.c:906: uint8_t prefix[] = {0xff, 0x02};
      0018A6 A9 81            [24] 5628 	mov	r1,sp
      0018A8 19               [12] 5629 	dec	r1
      0018A9 77 FF            [12] 5630 	mov	@r1,#0xff
      0018AB E9               [12] 5631 	mov	a,r1
      0018AC 04               [12] 5632 	inc	a
      0018AD F8               [12] 5633 	mov	r0,a
      0018AE 76 02            [12] 5634 	mov	@r0,#0x02
                                   5635 ;	../../../core/net/sicslowpan.c:907: if(tmp > 0 && tmp < 3) {
      0018B0 EE               [12] 5636 	mov	a,r6
      0018B1 60 29            [24] 5637 	jz	00125$
      0018B3 BE 03 00         [24] 5638 	cjne	r6,#0x03,00315$
      0018B6                       5639 00315$:
      0018B6 50 24            [24] 5640 	jnc	00125$
                                   5641 ;	../../../core/net/sicslowpan.c:908: prefix[1] = *hc06_ptr;
      0018B8 90r00r15         [24] 5642 	mov	dptr,#_hc06_ptr
      0018BB E0               [24] 5643 	movx	a,@dptr
      0018BC FB               [12] 5644 	mov	r3,a
      0018BD A3               [24] 5645 	inc	dptr
      0018BE E0               [24] 5646 	movx	a,@dptr
      0018BF FC               [12] 5647 	mov	r4,a
      0018C0 A3               [24] 5648 	inc	dptr
      0018C1 E0               [24] 5649 	movx	a,@dptr
      0018C2 FD               [12] 5650 	mov	r5,a
      0018C3 8B 82            [24] 5651 	mov	dpl,r3
      0018C5 8C 83            [24] 5652 	mov	dph,r4
      0018C7 8D F0            [24] 5653 	mov	b,r5
      0018C9 12r00r00         [24] 5654 	lcall	__gptrget
      0018CC FA               [12] 5655 	mov	r2,a
      0018CD F6               [12] 5656 	mov	@r0,a
                                   5657 ;	../../../core/net/sicslowpan.c:909: hc06_ptr++;
      0018CE 90r00r15         [24] 5658 	mov	dptr,#_hc06_ptr
      0018D1 74 01            [12] 5659 	mov	a,#0x01
      0018D3 2B               [12] 5660 	add	a,r3
      0018D4 F0               [24] 5661 	movx	@dptr,a
      0018D5 E4               [12] 5662 	clr	a
      0018D6 3C               [12] 5663 	addc	a,r4
      0018D7 A3               [24] 5664 	inc	dptr
      0018D8 F0               [24] 5665 	movx	@dptr,a
      0018D9 ED               [12] 5666 	mov	a,r5
      0018DA A3               [24] 5667 	inc	dptr
      0018DB F0               [24] 5668 	movx	@dptr,a
      0018DC                       5669 00125$:
                                   5670 ;	../../../core/net/sicslowpan.c:913: unc_mxconf[tmp], NULL);
      0018DC EE               [12] 5671 	mov	a,r6
      0018DD 90r00r08         [24] 5672 	mov	dptr,#_unc_mxconf
      0018E0 93               [24] 5673 	movc	a,@a+dptr
      0018E1 FD               [12] 5674 	mov	r5,a
                                   5675 ;	../../../core/net/sicslowpan.c:912: uncompress_addr(&SICSLOWPAN_IP_BUF->destipaddr, prefix,
      0018E2 89 04            [24] 5676 	mov	ar4,r1
      0018E4 7B 00            [12] 5677 	mov	r3,#0x00
      0018E6 7A 40            [12] 5678 	mov	r2,#0x40
      0018E8 E4               [12] 5679 	clr	a
      0018E9 C0 E0            [24] 5680 	push	acc
      0018EB C0 E0            [24] 5681 	push	acc
      0018ED C0 E0            [24] 5682 	push	acc
      0018EF C0 05            [24] 5683 	push	ar5
      0018F1 C0 04            [24] 5684 	push	ar4
      0018F3 C0 03            [24] 5685 	push	ar3
      0018F5 C0 02            [24] 5686 	push	ar2
      0018F7 90r00r18         [24] 5687 	mov	dptr,#(_uip_aligned_buf + 0x0018)
      0018FA 75 F0 00         [24] 5688 	mov	b,#0x00
      0018FD 78r1B            [12] 5689 	mov	r0,#_uncompress_addr
      0018FF 79s06            [12] 5690 	mov	r1,#(_uncompress_addr >> 8)
      001901 7As00            [12] 5691 	mov	r2,#(_uncompress_addr >> 16)
      001903 12r00r00         [24] 5692 	lcall	__sdcc_banked_call
      001906 E5 81            [12] 5693 	mov	a,sp
      001908 24 F9            [12] 5694 	add	a,#0xf9
      00190A F5 81            [12] 5695 	mov	sp,a
      00190C 02r1Ar23         [24] 5696 	ljmp	00137$
      00190F                       5697 00136$:
                                   5698 ;	../../../core/net/sicslowpan.c:918: if(iphc1 & SICSLOWPAN_IPHC_DAC) {
      00190F EF               [12] 5699 	mov	a,r7
      001910 20 E2 03         [24] 5700 	jb	acc.2,00317$
      001913 02r19rDE         [24] 5701 	ljmp	00133$
      001916                       5702 00317$:
                                   5703 ;	../../../core/net/sicslowpan.c:919: uint8_t dci = (iphc1 & SICSLOWPAN_IPHC_CID) ?
      001916 EF               [12] 5704 	mov	a,r7
      001917 30 E7 2F         [24] 5705 	jnb	acc.7,00161$
      00191A 90r00r03         [24] 5706 	mov	dptr,#_rime_hdr_len
      00191D E0               [24] 5707 	movx	a,@dptr
      00191E FF               [12] 5708 	mov	r7,a
      00191F 90r00r00         [24] 5709 	mov	dptr,#_rime_ptr
      001922 E0               [24] 5710 	movx	a,@dptr
      001923 FB               [12] 5711 	mov	r3,a
      001924 A3               [24] 5712 	inc	dptr
      001925 E0               [24] 5713 	movx	a,@dptr
      001926 FC               [12] 5714 	mov	r4,a
      001927 A3               [24] 5715 	inc	dptr
      001928 E0               [24] 5716 	movx	a,@dptr
      001929 FD               [12] 5717 	mov	r5,a
      00192A EF               [12] 5718 	mov	a,r7
      00192B 2B               [12] 5719 	add	a,r3
      00192C FB               [12] 5720 	mov	r3,a
      00192D E4               [12] 5721 	clr	a
      00192E 3C               [12] 5722 	addc	a,r4
      00192F FC               [12] 5723 	mov	r4,a
      001930 74 02            [12] 5724 	mov	a,#0x02
      001932 2B               [12] 5725 	add	a,r3
      001933 FB               [12] 5726 	mov	r3,a
      001934 E4               [12] 5727 	clr	a
      001935 3C               [12] 5728 	addc	a,r4
      001936 FC               [12] 5729 	mov	r4,a
      001937 8B 82            [24] 5730 	mov	dpl,r3
      001939 8C 83            [24] 5731 	mov	dph,r4
      00193B 8D F0            [24] 5732 	mov	b,r5
      00193D 12r00r00         [24] 5733 	lcall	__gptrget
      001940 FB               [12] 5734 	mov	r3,a
      001941 74 0F            [12] 5735 	mov	a,#0x0f
      001943 5B               [12] 5736 	anl	a,r3
      001944 FD               [12] 5737 	mov	r5,a
      001945 7F 00            [12] 5738 	mov	r7,#0x00
      001947 80 04            [24] 5739 	sjmp	00162$
      001949                       5740 00161$:
      001949 7D 00            [12] 5741 	mov	r5,#0x00
      00194B 7F 00            [12] 5742 	mov	r7,#0x00
      00194D                       5743 00162$:
                                   5744 ;	../../../core/net/sicslowpan.c:921: context = addr_context_lookup_by_number(dci);
      00194D 8D 82            [24] 5745 	mov	dpl,r5
      00194F C0 06            [24] 5746 	push	ar6
      001951 78rD6            [12] 5747 	mov	r0,#_addr_context_lookup_by_number
      001953 79s01            [12] 5748 	mov	r1,#(_addr_context_lookup_by_number >> 8)
      001955 7As00            [12] 5749 	mov	r2,#(_addr_context_lookup_by_number >> 16)
      001957 12r00r00         [24] 5750 	lcall	__sdcc_banked_call
      00195A AC 82            [24] 5751 	mov	r4,dpl
      00195C AD 83            [24] 5752 	mov	r5,dph
      00195E AF F0            [24] 5753 	mov	r7,b
      001960 D0 06            [24] 5754 	pop	ar6
      001962 90r00r12         [24] 5755 	mov	dptr,#_context
      001965 EC               [12] 5756 	mov	a,r4
      001966 F0               [24] 5757 	movx	@dptr,a
      001967 ED               [12] 5758 	mov	a,r5
      001968 A3               [24] 5759 	inc	dptr
      001969 F0               [24] 5760 	movx	@dptr,a
      00196A EF               [12] 5761 	mov	a,r7
      00196B A3               [24] 5762 	inc	dptr
      00196C F0               [24] 5763 	movx	@dptr,a
                                   5764 ;	../../../core/net/sicslowpan.c:924: if(context == NULL) {
      00196D EC               [12] 5765 	mov	a,r4
      00196E 4D               [12] 5766 	orl	a,r5
      00196F 70 03            [24] 5767 	jnz	00131$
                                   5768 ;	../../../core/net/sicslowpan.c:926: return;
      001971 02r1DrB1         [24] 5769 	ljmp	00155$
      001974                       5770 00131$:
                                   5771 ;	../../../core/net/sicslowpan.c:930: (uip_lladdr_t *)packetbuf_addr(PACKETBUF_ADDR_RECEIVER));
      001974 75 82 19         [24] 5772 	mov	dpl,#0x19
      001977 C0 06            [24] 5773 	push	ar6
      001979 78r00            [12] 5774 	mov	r0,#_packetbuf_addr
      00197B 79s00            [12] 5775 	mov	r1,#(_packetbuf_addr >> 8)
      00197D 7As00            [12] 5776 	mov	r2,#(_packetbuf_addr >> 16)
      00197F 12r00r00         [24] 5777 	lcall	__sdcc_banked_call
      001982 AC 82            [24] 5778 	mov	r4,dpl
      001984 AD 83            [24] 5779 	mov	r5,dph
      001986 AF F0            [24] 5780 	mov	r7,b
      001988 D0 06            [24] 5781 	pop	ar6
      00198A E5 81            [12] 5782 	mov	a,sp
      00198C 24 FA            [12] 5783 	add	a,#0xfa
      00198E F8               [12] 5784 	mov	r0,a
      00198F A6 04            [24] 5785 	mov	@r0,ar4
      001991 08               [12] 5786 	inc	r0
      001992 A6 05            [24] 5787 	mov	@r0,ar5
      001994 08               [12] 5788 	inc	r0
      001995 A6 07            [24] 5789 	mov	@r0,ar7
                                   5790 ;	../../../core/net/sicslowpan.c:929: unc_ctxconf[tmp],
      001997 EE               [12] 5791 	mov	a,r6
      001998 90r00r04         [24] 5792 	mov	dptr,#_unc_ctxconf
      00199B 93               [24] 5793 	movc	a,@a+dptr
      00199C FE               [12] 5794 	mov	r6,a
                                   5795 ;	../../../core/net/sicslowpan.c:928: uncompress_addr(&SICSLOWPAN_IP_BUF->destipaddr, context->prefix,
      00199D 90r00r12         [24] 5796 	mov	dptr,#_context
      0019A0 E0               [24] 5797 	movx	a,@dptr
      0019A1 FA               [12] 5798 	mov	r2,a
      0019A2 A3               [24] 5799 	inc	dptr
      0019A3 E0               [24] 5800 	movx	a,@dptr
      0019A4 FB               [12] 5801 	mov	r3,a
      0019A5 A3               [24] 5802 	inc	dptr
      0019A6 E0               [24] 5803 	movx	a,@dptr
      0019A7 FF               [12] 5804 	mov	r7,a
      0019A8 74 02            [12] 5805 	mov	a,#0x02
      0019AA 2A               [12] 5806 	add	a,r2
      0019AB FA               [12] 5807 	mov	r2,a
      0019AC E4               [12] 5808 	clr	a
      0019AD 3B               [12] 5809 	addc	a,r3
      0019AE FB               [12] 5810 	mov	r3,a
      0019AF E5 81            [12] 5811 	mov	a,sp
      0019B1 24 FA            [12] 5812 	add	a,#0xfa
      0019B3 F8               [12] 5813 	mov	r0,a
      0019B4 E6               [12] 5814 	mov	a,@r0
      0019B5 C0 E0            [24] 5815 	push	acc
      0019B7 08               [12] 5816 	inc	r0
      0019B8 E6               [12] 5817 	mov	a,@r0
      0019B9 C0 E0            [24] 5818 	push	acc
      0019BB 08               [12] 5819 	inc	r0
      0019BC E6               [12] 5820 	mov	a,@r0
      0019BD C0 E0            [24] 5821 	push	acc
      0019BF C0 06            [24] 5822 	push	ar6
      0019C1 C0 02            [24] 5823 	push	ar2
      0019C3 C0 03            [24] 5824 	push	ar3
      0019C5 C0 07            [24] 5825 	push	ar7
      0019C7 90r00r18         [24] 5826 	mov	dptr,#(_uip_aligned_buf + 0x0018)
      0019CA 75 F0 00         [24] 5827 	mov	b,#0x00
      0019CD 78r1B            [12] 5828 	mov	r0,#_uncompress_addr
      0019CF 79s06            [12] 5829 	mov	r1,#(_uncompress_addr >> 8)
      0019D1 7As00            [12] 5830 	mov	r2,#(_uncompress_addr >> 16)
      0019D3 12r00r00         [24] 5831 	lcall	__sdcc_banked_call
      0019D6 E5 81            [12] 5832 	mov	a,sp
      0019D8 24 F9            [12] 5833 	add	a,#0xf9
      0019DA F5 81            [12] 5834 	mov	sp,a
      0019DC 80 45            [24] 5835 	sjmp	00137$
      0019DE                       5836 00133$:
                                   5837 ;	../../../core/net/sicslowpan.c:935: (uip_lladdr_t *)packetbuf_addr(PACKETBUF_ADDR_RECEIVER));
      0019DE 75 82 19         [24] 5838 	mov	dpl,#0x19
      0019E1 C0 06            [24] 5839 	push	ar6
      0019E3 78r00            [12] 5840 	mov	r0,#_packetbuf_addr
      0019E5 79s00            [12] 5841 	mov	r1,#(_packetbuf_addr >> 8)
      0019E7 7As00            [12] 5842 	mov	r2,#(_packetbuf_addr >> 16)
      0019E9 12r00r00         [24] 5843 	lcall	__sdcc_banked_call
      0019EC AC 82            [24] 5844 	mov	r4,dpl
      0019EE AD 83            [24] 5845 	mov	r5,dph
      0019F0 AF F0            [24] 5846 	mov	r7,b
      0019F2 D0 06            [24] 5847 	pop	ar6
                                   5848 ;	../../../core/net/sicslowpan.c:934: unc_llconf[tmp],
      0019F4 EE               [12] 5849 	mov	a,r6
      0019F5 90r00r00         [24] 5850 	mov	dptr,#_unc_llconf
      0019F8 93               [24] 5851 	movc	a,@a+dptr
      0019F9 FE               [12] 5852 	mov	r6,a
                                   5853 ;	../../../core/net/sicslowpan.c:933: uncompress_addr(&SICSLOWPAN_IP_BUF->destipaddr, llprefix,
      0019FA C0 04            [24] 5854 	push	ar4
      0019FC C0 05            [24] 5855 	push	ar5
      0019FE C0 07            [24] 5856 	push	ar7
      001A00 C0 06            [24] 5857 	push	ar6
      001A02 74r0C            [12] 5858 	mov	a,#_llprefix
      001A04 C0 E0            [24] 5859 	push	acc
      001A06 74s00            [12] 5860 	mov	a,#(_llprefix >> 8)
      001A08 C0 E0            [24] 5861 	push	acc
      001A0A 74 80            [12] 5862 	mov	a,#0x80
      001A0C C0 E0            [24] 5863 	push	acc
      001A0E 90r00r18         [24] 5864 	mov	dptr,#(_uip_aligned_buf + 0x0018)
      001A11 75 F0 00         [24] 5865 	mov	b,#0x00
      001A14 78r1B            [12] 5866 	mov	r0,#_uncompress_addr
      001A16 79s06            [12] 5867 	mov	r1,#(_uncompress_addr >> 8)
      001A18 7As00            [12] 5868 	mov	r2,#(_uncompress_addr >> 16)
      001A1A 12r00r00         [24] 5869 	lcall	__sdcc_banked_call
      001A1D E5 81            [12] 5870 	mov	a,sp
      001A1F 24 F9            [12] 5871 	add	a,#0xf9
      001A21 F5 81            [12] 5872 	mov	sp,a
      001A23                       5873 00137$:
                                   5874 ;	../../../core/net/sicslowpan.c:938: uncomp_hdr_len += UIP_IPH_LEN;
      001A23 90r00r05         [24] 5875 	mov	dptr,#_uncomp_hdr_len
      001A26 E0               [24] 5876 	movx	a,@dptr
      001A27 FF               [12] 5877 	mov	r7,a
      001A28 24 28            [12] 5878 	add	a,#0x28
      001A2A F0               [24] 5879 	movx	@dptr,a
                                   5880 ;	../../../core/net/sicslowpan.c:941: if((iphc0 & SICSLOWPAN_IPHC_NH_C)) {
      001A2B A8 81            [24] 5881 	mov	r0,sp
      001A2D 18               [12] 5882 	dec	r0
      001A2E 18               [12] 5883 	dec	r0
      001A2F E6               [12] 5884 	mov	a,@r0
      001A30 20 E2 03         [24] 5885 	jb	acc.2,00320$
      001A33 02r1Dr13         [24] 5886 	ljmp	00149$
      001A36                       5887 00320$:
                                   5888 ;	../../../core/net/sicslowpan.c:943: if((*hc06_ptr & SICSLOWPAN_NHC_UDP_MASK) == SICSLOWPAN_NHC_UDP_ID) {
      001A36 90r00r15         [24] 5889 	mov	dptr,#_hc06_ptr
      001A39 E0               [24] 5890 	movx	a,@dptr
      001A3A FD               [12] 5891 	mov	r5,a
      001A3B A3               [24] 5892 	inc	dptr
      001A3C E0               [24] 5893 	movx	a,@dptr
      001A3D FE               [12] 5894 	mov	r6,a
      001A3E A3               [24] 5895 	inc	dptr
      001A3F E0               [24] 5896 	movx	a,@dptr
      001A40 FF               [12] 5897 	mov	r7,a
      001A41 8D 82            [24] 5898 	mov	dpl,r5
      001A43 8E 83            [24] 5899 	mov	dph,r6
      001A45 8F F0            [24] 5900 	mov	b,r7
      001A47 12r00r00         [24] 5901 	lcall	__gptrget
      001A4A FD               [12] 5902 	mov	r5,a
      001A4B 53 05 F8         [24] 5903 	anl	ar5,#0xf8
      001A4E 7F 00            [12] 5904 	mov	r7,#0x00
      001A50 BD F0 05         [24] 5905 	cjne	r5,#0xf0,00321$
      001A53 BF 00 02         [24] 5906 	cjne	r7,#0x00,00321$
      001A56 80 03            [24] 5907 	sjmp	00322$
      001A58                       5908 00321$:
      001A58 02r1Dr13         [24] 5909 	ljmp	00149$
      001A5B                       5910 00322$:
                                   5911 ;	../../../core/net/sicslowpan.c:945: SICSLOWPAN_IP_BUF->proto = UIP_PROTO_UDP;
      001A5B 90r00r06         [24] 5912 	mov	dptr,#(_uip_aligned_buf + 0x0006)
      001A5E 74 11            [12] 5913 	mov	a,#0x11
      001A60 F0               [24] 5914 	movx	@dptr,a
                                   5915 ;	../../../core/net/sicslowpan.c:946: checksum_compressed = *hc06_ptr & SICSLOWPAN_NHC_UDP_CHECKSUMC;
      001A61 90r00r15         [24] 5916 	mov	dptr,#_hc06_ptr
      001A64 E0               [24] 5917 	movx	a,@dptr
      001A65 FD               [12] 5918 	mov	r5,a
      001A66 A3               [24] 5919 	inc	dptr
      001A67 E0               [24] 5920 	movx	a,@dptr
      001A68 FE               [12] 5921 	mov	r6,a
      001A69 A3               [24] 5922 	inc	dptr
      001A6A E0               [24] 5923 	movx	a,@dptr
      001A6B FF               [12] 5924 	mov	r7,a
      001A6C 8D 82            [24] 5925 	mov	dpl,r5
      001A6E 8E 83            [24] 5926 	mov	dph,r6
      001A70 8F F0            [24] 5927 	mov	b,r7
      001A72 12r00r00         [24] 5928 	lcall	__gptrget
      001A75 FC               [12] 5929 	mov	r4,a
      001A76 74 04            [12] 5930 	mov	a,#0x04
      001A78 5C               [12] 5931 	anl	a,r4
      001A79 FB               [12] 5932 	mov	r3,a
                                   5933 ;	../../../core/net/sicslowpan.c:948: switch(*hc06_ptr & SICSLOWPAN_NHC_UDP_CS_P_11) {
      001A7A 53 04 F3         [24] 5934 	anl	ar4,#0xf3
      001A7D 7A 00            [12] 5935 	mov	r2,#0x00
      001A7F BC F0 05         [24] 5936 	cjne	r4,#0xf0,00323$
      001A82 BA 00 02         [24] 5937 	cjne	r2,#0x00,00323$
      001A85 80 1E            [24] 5938 	sjmp	00138$
      001A87                       5939 00323$:
      001A87 BC F1 06         [24] 5940 	cjne	r4,#0xf1,00324$
      001A8A BA 00 03         [24] 5941 	cjne	r2,#0x00,00324$
      001A8D 02r1Br2C         [24] 5942 	ljmp	00139$
      001A90                       5943 00324$:
      001A90 BC F2 06         [24] 5944 	cjne	r4,#0xf2,00325$
      001A93 BA 00 03         [24] 5945 	cjne	r2,#0x00,00325$
      001A96 02r1BrB3         [24] 5946 	ljmp	00140$
      001A99                       5947 00325$:
      001A99 BC F3 06         [24] 5948 	cjne	r4,#0xf3,00326$
      001A9C BA 00 03         [24] 5949 	cjne	r2,#0x00,00326$
      001A9F 02r1Cr3A         [24] 5950 	ljmp	00141$
      001AA2                       5951 00326$:
      001AA2 02r1DrB1         [24] 5952 	ljmp	00155$
                                   5953 ;	../../../core/net/sicslowpan.c:949: case SICSLOWPAN_NHC_UDP_CS_P_00:
      001AA5                       5954 00138$:
                                   5955 ;	../../../core/net/sicslowpan.c:951: memcpy(&SICSLOWPAN_UDP_BUF->srcport, hc06_ptr + 1, 2);
      001AA5 C0 03            [24] 5956 	push	ar3
      001AA7 74 01            [12] 5957 	mov	a,#0x01
      001AA9 2D               [12] 5958 	add	a,r5
      001AAA FA               [12] 5959 	mov	r2,a
      001AAB E4               [12] 5960 	clr	a
      001AAC 3E               [12] 5961 	addc	a,r6
      001AAD FB               [12] 5962 	mov	r3,a
      001AAE 8F 04            [24] 5963 	mov	ar4,r7
      001AB0 C0 03            [24] 5964 	push	ar3
      001AB2 74 02            [12] 5965 	mov	a,#0x02
      001AB4 C0 E0            [24] 5966 	push	acc
      001AB6 E4               [12] 5967 	clr	a
      001AB7 C0 E0            [24] 5968 	push	acc
      001AB9 C0 02            [24] 5969 	push	ar2
      001ABB C0 03            [24] 5970 	push	ar3
      001ABD C0 04            [24] 5971 	push	ar4
      001ABF 90r00r28         [24] 5972 	mov	dptr,#(_uip_aligned_buf + 0x0028)
      001AC2 75 F0 00         [24] 5973 	mov	b,#0x00
      001AC5 78r00            [12] 5974 	mov	r0,#___memcpy
      001AC7 79s00            [12] 5975 	mov	r1,#(___memcpy >> 8)
      001AC9 7As00            [12] 5976 	mov	r2,#(___memcpy >> 16)
      001ACB 12r00r00         [24] 5977 	lcall	__sdcc_banked_call
      001ACE E5 81            [12] 5978 	mov	a,sp
      001AD0 24 FB            [12] 5979 	add	a,#0xfb
      001AD2 F5 81            [12] 5980 	mov	sp,a
      001AD4 D0 03            [24] 5981 	pop	ar3
                                   5982 ;	../../../core/net/sicslowpan.c:952: memcpy(&SICSLOWPAN_UDP_BUF->destport, hc06_ptr + 3, 2);
      001AD6 90r00r15         [24] 5983 	mov	dptr,#_hc06_ptr
      001AD9 E0               [24] 5984 	movx	a,@dptr
      001ADA FA               [12] 5985 	mov	r2,a
      001ADB A3               [24] 5986 	inc	dptr
      001ADC E0               [24] 5987 	movx	a,@dptr
      001ADD FB               [12] 5988 	mov	r3,a
      001ADE A3               [24] 5989 	inc	dptr
      001ADF E0               [24] 5990 	movx	a,@dptr
      001AE0 FC               [12] 5991 	mov	r4,a
      001AE1 74 03            [12] 5992 	mov	a,#0x03
      001AE3 2A               [12] 5993 	add	a,r2
      001AE4 FA               [12] 5994 	mov	r2,a
      001AE5 E4               [12] 5995 	clr	a
      001AE6 3B               [12] 5996 	addc	a,r3
      001AE7 FB               [12] 5997 	mov	r3,a
      001AE8 C0 03            [24] 5998 	push	ar3
      001AEA 74 02            [12] 5999 	mov	a,#0x02
      001AEC C0 E0            [24] 6000 	push	acc
      001AEE E4               [12] 6001 	clr	a
      001AEF C0 E0            [24] 6002 	push	acc
      001AF1 C0 02            [24] 6003 	push	ar2
      001AF3 C0 03            [24] 6004 	push	ar3
      001AF5 C0 04            [24] 6005 	push	ar4
      001AF7 90r00r2A         [24] 6006 	mov	dptr,#(_uip_aligned_buf + 0x002a)
      001AFA 75 F0 00         [24] 6007 	mov	b,#0x00
      001AFD 78r00            [12] 6008 	mov	r0,#___memcpy
      001AFF 79s00            [12] 6009 	mov	r1,#(___memcpy >> 8)
      001B01 7As00            [12] 6010 	mov	r2,#(___memcpy >> 16)
      001B03 12r00r00         [24] 6011 	lcall	__sdcc_banked_call
      001B06 E5 81            [12] 6012 	mov	a,sp
      001B08 24 FB            [12] 6013 	add	a,#0xfb
      001B0A F5 81            [12] 6014 	mov	sp,a
      001B0C D0 03            [24] 6015 	pop	ar3
                                   6016 ;	../../../core/net/sicslowpan.c:955: hc06_ptr += 5;
      001B0E 90r00r15         [24] 6017 	mov	dptr,#_hc06_ptr
      001B11 E0               [24] 6018 	movx	a,@dptr
      001B12 FA               [12] 6019 	mov	r2,a
      001B13 A3               [24] 6020 	inc	dptr
      001B14 E0               [24] 6021 	movx	a,@dptr
      001B15 FB               [12] 6022 	mov	r3,a
      001B16 A3               [24] 6023 	inc	dptr
      001B17 E0               [24] 6024 	movx	a,@dptr
      001B18 FC               [12] 6025 	mov	r4,a
      001B19 90r00r15         [24] 6026 	mov	dptr,#_hc06_ptr
      001B1C 74 05            [12] 6027 	mov	a,#0x05
      001B1E 2A               [12] 6028 	add	a,r2
      001B1F F0               [24] 6029 	movx	@dptr,a
      001B20 E4               [12] 6030 	clr	a
      001B21 3B               [12] 6031 	addc	a,r3
      001B22 A3               [24] 6032 	inc	dptr
      001B23 F0               [24] 6033 	movx	@dptr,a
      001B24 EC               [12] 6034 	mov	a,r4
      001B25 A3               [24] 6035 	inc	dptr
      001B26 F0               [24] 6036 	movx	@dptr,a
                                   6037 ;	../../../core/net/sicslowpan.c:956: break;
      001B27 D0 03            [24] 6038 	pop	ar3
      001B29 02r1CrC2         [24] 6039 	ljmp	00143$
                                   6040 ;	../../../core/net/sicslowpan.c:958: case SICSLOWPAN_NHC_UDP_CS_P_01:
      001B2C                       6041 00139$:
                                   6042 ;	../../../core/net/sicslowpan.c:961: memcpy(&SICSLOWPAN_UDP_BUF->srcport, hc06_ptr + 1, 2);
      001B2C C0 03            [24] 6043 	push	ar3
      001B2E 74 01            [12] 6044 	mov	a,#0x01
      001B30 2D               [12] 6045 	add	a,r5
      001B31 FA               [12] 6046 	mov	r2,a
      001B32 E4               [12] 6047 	clr	a
      001B33 3E               [12] 6048 	addc	a,r6
      001B34 FB               [12] 6049 	mov	r3,a
      001B35 8F 04            [24] 6050 	mov	ar4,r7
      001B37 C0 03            [24] 6051 	push	ar3
      001B39 74 02            [12] 6052 	mov	a,#0x02
      001B3B C0 E0            [24] 6053 	push	acc
      001B3D E4               [12] 6054 	clr	a
      001B3E C0 E0            [24] 6055 	push	acc
      001B40 C0 02            [24] 6056 	push	ar2
      001B42 C0 03            [24] 6057 	push	ar3
      001B44 C0 04            [24] 6058 	push	ar4
      001B46 90r00r28         [24] 6059 	mov	dptr,#(_uip_aligned_buf + 0x0028)
      001B49 75 F0 00         [24] 6060 	mov	b,#0x00
      001B4C 78r00            [12] 6061 	mov	r0,#___memcpy
      001B4E 79s00            [12] 6062 	mov	r1,#(___memcpy >> 8)
      001B50 7As00            [12] 6063 	mov	r2,#(___memcpy >> 16)
      001B52 12r00r00         [24] 6064 	lcall	__sdcc_banked_call
      001B55 E5 81            [12] 6065 	mov	a,sp
      001B57 24 FB            [12] 6066 	add	a,#0xfb
      001B59 F5 81            [12] 6067 	mov	sp,a
      001B5B D0 03            [24] 6068 	pop	ar3
                                   6069 ;	../../../core/net/sicslowpan.c:962: SICSLOWPAN_UDP_BUF->destport = UIP_HTONS(SICSLOWPAN_UDP_8_BIT_PORT_MIN + (*(hc06_ptr + 3)));
      001B5D 90r00r15         [24] 6070 	mov	dptr,#_hc06_ptr
      001B60 E0               [24] 6071 	movx	a,@dptr
      001B61 FA               [12] 6072 	mov	r2,a
      001B62 A3               [24] 6073 	inc	dptr
      001B63 E0               [24] 6074 	movx	a,@dptr
      001B64 FB               [12] 6075 	mov	r3,a
      001B65 A3               [24] 6076 	inc	dptr
      001B66 E0               [24] 6077 	movx	a,@dptr
      001B67 FC               [12] 6078 	mov	r4,a
      001B68 74 03            [12] 6079 	mov	a,#0x03
      001B6A 2A               [12] 6080 	add	a,r2
      001B6B FA               [12] 6081 	mov	r2,a
      001B6C E4               [12] 6082 	clr	a
      001B6D 3B               [12] 6083 	addc	a,r3
      001B6E FB               [12] 6084 	mov	r3,a
      001B6F 8A 82            [24] 6085 	mov	dpl,r2
      001B71 8B 83            [24] 6086 	mov	dph,r3
      001B73 8C F0            [24] 6087 	mov	b,r4
      001B75 12r00r00         [24] 6088 	lcall	__gptrget
      001B78 FA               [12] 6089 	mov	r2,a
      001B79 7C 00            [12] 6090 	mov	r4,#0x00
      001B7B 74 F0            [12] 6091 	mov	a,#0xf0
      001B7D 2C               [12] 6092 	add	a,r4
      001B7E FC               [12] 6093 	mov	r4,a
      001B7F 8A 06            [24] 6094 	mov	ar6,r2
      001B81 7F 00            [12] 6095 	mov	r7,#0x00
      001B83 8C 02            [24] 6096 	mov	ar2,r4
      001B85 7C 00            [12] 6097 	mov	r4,#0x00
      001B87 EF               [12] 6098 	mov	a,r7
      001B88 42 02            [12] 6099 	orl	ar2,a
      001B8A EE               [12] 6100 	mov	a,r6
      001B8B 42 04            [12] 6101 	orl	ar4,a
      001B8D 90r00r2A         [24] 6102 	mov	dptr,#(_uip_aligned_buf + 0x002a)
      001B90 EA               [12] 6103 	mov	a,r2
      001B91 F0               [24] 6104 	movx	@dptr,a
      001B92 EC               [12] 6105 	mov	a,r4
      001B93 A3               [24] 6106 	inc	dptr
      001B94 F0               [24] 6107 	movx	@dptr,a
                                   6108 ;	../../../core/net/sicslowpan.c:965: hc06_ptr += 4;
      001B95 90r00r15         [24] 6109 	mov	dptr,#_hc06_ptr
      001B98 E0               [24] 6110 	movx	a,@dptr
      001B99 FA               [12] 6111 	mov	r2,a
      001B9A A3               [24] 6112 	inc	dptr
      001B9B E0               [24] 6113 	movx	a,@dptr
      001B9C FB               [12] 6114 	mov	r3,a
      001B9D A3               [24] 6115 	inc	dptr
      001B9E E0               [24] 6116 	movx	a,@dptr
      001B9F FC               [12] 6117 	mov	r4,a
      001BA0 90r00r15         [24] 6118 	mov	dptr,#_hc06_ptr
      001BA3 74 04            [12] 6119 	mov	a,#0x04
      001BA5 2A               [12] 6120 	add	a,r2
      001BA6 F0               [24] 6121 	movx	@dptr,a
      001BA7 E4               [12] 6122 	clr	a
      001BA8 3B               [12] 6123 	addc	a,r3
      001BA9 A3               [24] 6124 	inc	dptr
      001BAA F0               [24] 6125 	movx	@dptr,a
      001BAB EC               [12] 6126 	mov	a,r4
      001BAC A3               [24] 6127 	inc	dptr
      001BAD F0               [24] 6128 	movx	@dptr,a
                                   6129 ;	../../../core/net/sicslowpan.c:966: break;
      001BAE D0 03            [24] 6130 	pop	ar3
      001BB0 02r1CrC2         [24] 6131 	ljmp	00143$
                                   6132 ;	../../../core/net/sicslowpan.c:968: case SICSLOWPAN_NHC_UDP_CS_P_10:
      001BB3                       6133 00140$:
                                   6134 ;	../../../core/net/sicslowpan.c:971: SICSLOWPAN_UDP_BUF->srcport = UIP_HTONS(SICSLOWPAN_UDP_8_BIT_PORT_MIN +
      001BB3 C0 03            [24] 6135 	push	ar3
      001BB5 74 01            [12] 6136 	mov	a,#0x01
      001BB7 2D               [12] 6137 	add	a,r5
      001BB8 FA               [12] 6138 	mov	r2,a
      001BB9 E4               [12] 6139 	clr	a
      001BBA 3E               [12] 6140 	addc	a,r6
      001BBB FB               [12] 6141 	mov	r3,a
      001BBC 8F 04            [24] 6142 	mov	ar4,r7
      001BBE 8A 82            [24] 6143 	mov	dpl,r2
      001BC0 8B 83            [24] 6144 	mov	dph,r3
      001BC2 8C F0            [24] 6145 	mov	b,r4
      001BC4 12r00r00         [24] 6146 	lcall	__gptrget
      001BC7 FA               [12] 6147 	mov	r2,a
      001BC8 7C 00            [12] 6148 	mov	r4,#0x00
      001BCA 74 F0            [12] 6149 	mov	a,#0xf0
      001BCC 2C               [12] 6150 	add	a,r4
      001BCD FC               [12] 6151 	mov	r4,a
      001BCE 8A 06            [24] 6152 	mov	ar6,r2
      001BD0 7F 00            [12] 6153 	mov	r7,#0x00
      001BD2 8C 02            [24] 6154 	mov	ar2,r4
      001BD4 7C 00            [12] 6155 	mov	r4,#0x00
      001BD6 EF               [12] 6156 	mov	a,r7
      001BD7 42 02            [12] 6157 	orl	ar2,a
      001BD9 EE               [12] 6158 	mov	a,r6
      001BDA 42 04            [12] 6159 	orl	ar4,a
      001BDC 90r00r28         [24] 6160 	mov	dptr,#(_uip_aligned_buf + 0x0028)
      001BDF EA               [12] 6161 	mov	a,r2
      001BE0 F0               [24] 6162 	movx	@dptr,a
      001BE1 EC               [12] 6163 	mov	a,r4
      001BE2 A3               [24] 6164 	inc	dptr
      001BE3 F0               [24] 6165 	movx	@dptr,a
                                   6166 ;	../../../core/net/sicslowpan.c:973: memcpy(&SICSLOWPAN_UDP_BUF->destport, hc06_ptr + 2, 2);
      001BE4 90r00r15         [24] 6167 	mov	dptr,#_hc06_ptr
      001BE7 E0               [24] 6168 	movx	a,@dptr
      001BE8 FA               [12] 6169 	mov	r2,a
      001BE9 A3               [24] 6170 	inc	dptr
      001BEA E0               [24] 6171 	movx	a,@dptr
      001BEB FB               [12] 6172 	mov	r3,a
      001BEC A3               [24] 6173 	inc	dptr
      001BED E0               [24] 6174 	movx	a,@dptr
      001BEE FC               [12] 6175 	mov	r4,a
      001BEF 74 02            [12] 6176 	mov	a,#0x02
      001BF1 2A               [12] 6177 	add	a,r2
      001BF2 FA               [12] 6178 	mov	r2,a
      001BF3 E4               [12] 6179 	clr	a
      001BF4 3B               [12] 6180 	addc	a,r3
      001BF5 FB               [12] 6181 	mov	r3,a
      001BF6 C0 03            [24] 6182 	push	ar3
      001BF8 74 02            [12] 6183 	mov	a,#0x02
      001BFA C0 E0            [24] 6184 	push	acc
      001BFC E4               [12] 6185 	clr	a
      001BFD C0 E0            [24] 6186 	push	acc
      001BFF C0 02            [24] 6187 	push	ar2
      001C01 C0 03            [24] 6188 	push	ar3
      001C03 C0 04            [24] 6189 	push	ar4
      001C05 90r00r2A         [24] 6190 	mov	dptr,#(_uip_aligned_buf + 0x002a)
      001C08 75 F0 00         [24] 6191 	mov	b,#0x00
      001C0B 78r00            [12] 6192 	mov	r0,#___memcpy
      001C0D 79s00            [12] 6193 	mov	r1,#(___memcpy >> 8)
      001C0F 7As00            [12] 6194 	mov	r2,#(___memcpy >> 16)
      001C11 12r00r00         [24] 6195 	lcall	__sdcc_banked_call
      001C14 E5 81            [12] 6196 	mov	a,sp
      001C16 24 FB            [12] 6197 	add	a,#0xfb
      001C18 F5 81            [12] 6198 	mov	sp,a
      001C1A D0 03            [24] 6199 	pop	ar3
                                   6200 ;	../../../core/net/sicslowpan.c:976: hc06_ptr += 4;
      001C1C 90r00r15         [24] 6201 	mov	dptr,#_hc06_ptr
      001C1F E0               [24] 6202 	movx	a,@dptr
      001C20 FA               [12] 6203 	mov	r2,a
      001C21 A3               [24] 6204 	inc	dptr
      001C22 E0               [24] 6205 	movx	a,@dptr
      001C23 FB               [12] 6206 	mov	r3,a
      001C24 A3               [24] 6207 	inc	dptr
      001C25 E0               [24] 6208 	movx	a,@dptr
      001C26 FC               [12] 6209 	mov	r4,a
      001C27 90r00r15         [24] 6210 	mov	dptr,#_hc06_ptr
      001C2A 74 04            [12] 6211 	mov	a,#0x04
      001C2C 2A               [12] 6212 	add	a,r2
      001C2D F0               [24] 6213 	movx	@dptr,a
      001C2E E4               [12] 6214 	clr	a
      001C2F 3B               [12] 6215 	addc	a,r3
      001C30 A3               [24] 6216 	inc	dptr
      001C31 F0               [24] 6217 	movx	@dptr,a
      001C32 EC               [12] 6218 	mov	a,r4
      001C33 A3               [24] 6219 	inc	dptr
      001C34 F0               [24] 6220 	movx	@dptr,a
                                   6221 ;	../../../core/net/sicslowpan.c:977: break;
      001C35 D0 03            [24] 6222 	pop	ar3
      001C37 02r1CrC2         [24] 6223 	ljmp	00143$
                                   6224 ;	../../../core/net/sicslowpan.c:979: case SICSLOWPAN_NHC_UDP_CS_P_11:
      001C3A                       6225 00141$:
                                   6226 ;	../../../core/net/sicslowpan.c:981: SICSLOWPAN_UDP_BUF->srcport = UIP_HTONS(SICSLOWPAN_UDP_4_BIT_PORT_MIN +
      001C3A 0D               [12] 6227 	inc	r5
      001C3B BD 00 01         [24] 6228 	cjne	r5,#0x00,00327$
      001C3E 0E               [12] 6229 	inc	r6
      001C3F                       6230 00327$:
      001C3F 8D 82            [24] 6231 	mov	dpl,r5
      001C41 8E 83            [24] 6232 	mov	dph,r6
      001C43 8F F0            [24] 6233 	mov	b,r7
      001C45 12r00r00         [24] 6234 	lcall	__gptrget
      001C48 C4               [12] 6235 	swap	a
      001C49 54 0F            [12] 6236 	anl	a,#0x0f
      001C4B FD               [12] 6237 	mov	r5,a
      001C4C 7F 00            [12] 6238 	mov	r7,#0x00
      001C4E 74 B0            [12] 6239 	mov	a,#0xb0
      001C50 2D               [12] 6240 	add	a,r5
      001C51 FD               [12] 6241 	mov	r5,a
      001C52 74 F0            [12] 6242 	mov	a,#0xf0
      001C54 3F               [12] 6243 	addc	a,r7
      001C55 FF               [12] 6244 	mov	r7,a
      001C56 8D 06            [24] 6245 	mov	ar6,r5
      001C58 7C 00            [12] 6246 	mov	r4,#0x00
      001C5A 8F 05            [24] 6247 	mov	ar5,r7
      001C5C 7F 00            [12] 6248 	mov	r7,#0x00
      001C5E ED               [12] 6249 	mov	a,r5
      001C5F 42 04            [12] 6250 	orl	ar4,a
      001C61 EF               [12] 6251 	mov	a,r7
      001C62 42 06            [12] 6252 	orl	ar6,a
      001C64 90r00r28         [24] 6253 	mov	dptr,#(_uip_aligned_buf + 0x0028)
      001C67 EC               [12] 6254 	mov	a,r4
      001C68 F0               [24] 6255 	movx	@dptr,a
      001C69 EE               [12] 6256 	mov	a,r6
      001C6A A3               [24] 6257 	inc	dptr
      001C6B F0               [24] 6258 	movx	@dptr,a
                                   6259 ;	../../../core/net/sicslowpan.c:983: SICSLOWPAN_UDP_BUF->destport = UIP_HTONS(SICSLOWPAN_UDP_4_BIT_PORT_MIN +
      001C6C 90r00r15         [24] 6260 	mov	dptr,#_hc06_ptr
      001C6F E0               [24] 6261 	movx	a,@dptr
      001C70 FD               [12] 6262 	mov	r5,a
      001C71 A3               [24] 6263 	inc	dptr
      001C72 E0               [24] 6264 	movx	a,@dptr
      001C73 FE               [12] 6265 	mov	r6,a
      001C74 A3               [24] 6266 	inc	dptr
      001C75 E0               [24] 6267 	movx	a,@dptr
      001C76 FF               [12] 6268 	mov	r7,a
      001C77 0D               [12] 6269 	inc	r5
      001C78 BD 00 01         [24] 6270 	cjne	r5,#0x00,00328$
      001C7B 0E               [12] 6271 	inc	r6
      001C7C                       6272 00328$:
      001C7C 8D 82            [24] 6273 	mov	dpl,r5
      001C7E 8E 83            [24] 6274 	mov	dph,r6
      001C80 8F F0            [24] 6275 	mov	b,r7
      001C82 12r00r00         [24] 6276 	lcall	__gptrget
      001C85 FD               [12] 6277 	mov	r5,a
      001C86 53 05 0F         [24] 6278 	anl	ar5,#0x0f
      001C89 7F 00            [12] 6279 	mov	r7,#0x00
      001C8B 74 B0            [12] 6280 	mov	a,#0xb0
      001C8D 2D               [12] 6281 	add	a,r5
      001C8E FD               [12] 6282 	mov	r5,a
      001C8F 74 F0            [12] 6283 	mov	a,#0xf0
      001C91 3F               [12] 6284 	addc	a,r7
      001C92 FF               [12] 6285 	mov	r7,a
      001C93 8D 06            [24] 6286 	mov	ar6,r5
      001C95 7C 00            [12] 6287 	mov	r4,#0x00
      001C97 8F 05            [24] 6288 	mov	ar5,r7
      001C99 7F 00            [12] 6289 	mov	r7,#0x00
      001C9B ED               [12] 6290 	mov	a,r5
      001C9C 42 04            [12] 6291 	orl	ar4,a
      001C9E EF               [12] 6292 	mov	a,r7
      001C9F 42 06            [12] 6293 	orl	ar6,a
      001CA1 90r00r2A         [24] 6294 	mov	dptr,#(_uip_aligned_buf + 0x002a)
      001CA4 EC               [12] 6295 	mov	a,r4
      001CA5 F0               [24] 6296 	movx	@dptr,a
      001CA6 EE               [12] 6297 	mov	a,r6
      001CA7 A3               [24] 6298 	inc	dptr
      001CA8 F0               [24] 6299 	movx	@dptr,a
                                   6300 ;	../../../core/net/sicslowpan.c:987: hc06_ptr += 2;
      001CA9 90r00r15         [24] 6301 	mov	dptr,#_hc06_ptr
      001CAC E0               [24] 6302 	movx	a,@dptr
      001CAD FD               [12] 6303 	mov	r5,a
      001CAE A3               [24] 6304 	inc	dptr
      001CAF E0               [24] 6305 	movx	a,@dptr
      001CB0 FE               [12] 6306 	mov	r6,a
      001CB1 A3               [24] 6307 	inc	dptr
      001CB2 E0               [24] 6308 	movx	a,@dptr
      001CB3 FF               [12] 6309 	mov	r7,a
      001CB4 90r00r15         [24] 6310 	mov	dptr,#_hc06_ptr
      001CB7 74 02            [12] 6311 	mov	a,#0x02
      001CB9 2D               [12] 6312 	add	a,r5
      001CBA F0               [24] 6313 	movx	@dptr,a
      001CBB E4               [12] 6314 	clr	a
      001CBC 3E               [12] 6315 	addc	a,r6
      001CBD A3               [24] 6316 	inc	dptr
      001CBE F0               [24] 6317 	movx	@dptr,a
      001CBF EF               [12] 6318 	mov	a,r7
      001CC0 A3               [24] 6319 	inc	dptr
      001CC1 F0               [24] 6320 	movx	@dptr,a
                                   6321 ;	../../../core/net/sicslowpan.c:988: break;
                                   6322 ;	../../../core/net/sicslowpan.c:990: default:
                                   6323 ;	../../../core/net/sicslowpan.c:992: return;
                                   6324 ;	../../../core/net/sicslowpan.c:993: }
      001CC2                       6325 00143$:
                                   6326 ;	../../../core/net/sicslowpan.c:994: if(!checksum_compressed) { /* has_checksum, default  */
      001CC2 EB               [12] 6327 	mov	a,r3
      001CC3 70 46            [24] 6328 	jnz	00145$
                                   6329 ;	../../../core/net/sicslowpan.c:995: memcpy(&SICSLOWPAN_UDP_BUF->udpchksum, hc06_ptr, 2);
      001CC5 90r00r15         [24] 6330 	mov	dptr,#_hc06_ptr
      001CC8 E0               [24] 6331 	movx	a,@dptr
      001CC9 FD               [12] 6332 	mov	r5,a
      001CCA A3               [24] 6333 	inc	dptr
      001CCB E0               [24] 6334 	movx	a,@dptr
      001CCC FE               [12] 6335 	mov	r6,a
      001CCD A3               [24] 6336 	inc	dptr
      001CCE E0               [24] 6337 	movx	a,@dptr
      001CCF FF               [12] 6338 	mov	r7,a
      001CD0 74 02            [12] 6339 	mov	a,#0x02
      001CD2 C0 E0            [24] 6340 	push	acc
      001CD4 E4               [12] 6341 	clr	a
      001CD5 C0 E0            [24] 6342 	push	acc
      001CD7 C0 05            [24] 6343 	push	ar5
      001CD9 C0 06            [24] 6344 	push	ar6
      001CDB C0 07            [24] 6345 	push	ar7
      001CDD 90r00r2E         [24] 6346 	mov	dptr,#(_uip_aligned_buf + 0x002e)
      001CE0 75 F0 00         [24] 6347 	mov	b,#0x00
      001CE3 78r00            [12] 6348 	mov	r0,#___memcpy
      001CE5 79s00            [12] 6349 	mov	r1,#(___memcpy >> 8)
      001CE7 7As00            [12] 6350 	mov	r2,#(___memcpy >> 16)
      001CE9 12r00r00         [24] 6351 	lcall	__sdcc_banked_call
      001CEC E5 81            [12] 6352 	mov	a,sp
      001CEE 24 FB            [12] 6353 	add	a,#0xfb
      001CF0 F5 81            [12] 6354 	mov	sp,a
                                   6355 ;	../../../core/net/sicslowpan.c:996: hc06_ptr += 2;
      001CF2 90r00r15         [24] 6356 	mov	dptr,#_hc06_ptr
      001CF5 E0               [24] 6357 	movx	a,@dptr
      001CF6 FD               [12] 6358 	mov	r5,a
      001CF7 A3               [24] 6359 	inc	dptr
      001CF8 E0               [24] 6360 	movx	a,@dptr
      001CF9 FE               [12] 6361 	mov	r6,a
      001CFA A3               [24] 6362 	inc	dptr
      001CFB E0               [24] 6363 	movx	a,@dptr
      001CFC FF               [12] 6364 	mov	r7,a
      001CFD 90r00r15         [24] 6365 	mov	dptr,#_hc06_ptr
      001D00 74 02            [12] 6366 	mov	a,#0x02
      001D02 2D               [12] 6367 	add	a,r5
      001D03 F0               [24] 6368 	movx	@dptr,a
      001D04 E4               [12] 6369 	clr	a
      001D05 3E               [12] 6370 	addc	a,r6
      001D06 A3               [24] 6371 	inc	dptr
      001D07 F0               [24] 6372 	movx	@dptr,a
      001D08 EF               [12] 6373 	mov	a,r7
      001D09 A3               [24] 6374 	inc	dptr
      001D0A F0               [24] 6375 	movx	@dptr,a
      001D0B                       6376 00145$:
                                   6377 ;	../../../core/net/sicslowpan.c:1001: uncomp_hdr_len += UIP_UDPH_LEN;
      001D0B 90r00r05         [24] 6378 	mov	dptr,#_uncomp_hdr_len
      001D0E E0               [24] 6379 	movx	a,@dptr
      001D0F FF               [12] 6380 	mov	r7,a
      001D10 24 08            [12] 6381 	add	a,#0x08
      001D12 F0               [24] 6382 	movx	@dptr,a
      001D13                       6383 00149$:
                                   6384 ;	../../../core/net/sicslowpan.c:1010: rime_hdr_len = hc06_ptr - rime_ptr;
      001D13 90r00r00         [24] 6385 	mov	dptr,#_rime_ptr
      001D16 E0               [24] 6386 	movx	a,@dptr
      001D17 FD               [12] 6387 	mov	r5,a
      001D18 A3               [24] 6388 	inc	dptr
      001D19 E0               [24] 6389 	movx	a,@dptr
      001D1A A3               [24] 6390 	inc	dptr
      001D1B E0               [24] 6391 	movx	a,@dptr
      001D1C 90r00r15         [24] 6392 	mov	dptr,#_hc06_ptr
      001D1F E0               [24] 6393 	movx	a,@dptr
      001D20 FA               [12] 6394 	mov	r2,a
      001D21 A3               [24] 6395 	inc	dptr
      001D22 E0               [24] 6396 	movx	a,@dptr
      001D23 FB               [12] 6397 	mov	r3,a
      001D24 A3               [24] 6398 	inc	dptr
      001D25 E0               [24] 6399 	movx	a,@dptr
      001D26 FC               [12] 6400 	mov	r4,a
      001D27 90r00r03         [24] 6401 	mov	dptr,#_rime_hdr_len
      001D2A EA               [12] 6402 	mov	a,r2
      001D2B C3               [12] 6403 	clr	c
      001D2C 9D               [12] 6404 	subb	a,r5
      001D2D F0               [24] 6405 	movx	@dptr,a
                                   6406 ;	../../../core/net/sicslowpan.c:1013: if(ip_len == 0) {
      001D2E E5 81            [12] 6407 	mov	a,sp
      001D30 24 F3            [12] 6408 	add	a,#0xf3
      001D32 F8               [12] 6409 	mov	r0,a
      001D33 E6               [12] 6410 	mov	a,@r0
      001D34 08               [12] 6411 	inc	r0
      001D35 46               [12] 6412 	orl	a,@r0
      001D36 70 28            [24] 6413 	jnz	00151$
                                   6414 ;	../../../core/net/sicslowpan.c:1015: SICSLOWPAN_IP_BUF->len[0] = 0;
      001D38 90r00r04         [24] 6415 	mov	dptr,#(_uip_aligned_buf + 0x0004)
      001D3B E4               [12] 6416 	clr	a
      001D3C F0               [24] 6417 	movx	@dptr,a
                                   6418 ;	../../../core/net/sicslowpan.c:1016: SICSLOWPAN_IP_BUF->len[1] = packetbuf_datalen() - rime_hdr_len + uncomp_hdr_len - UIP_IPH_LEN;
      001D3D 78r00            [12] 6419 	mov	r0,#_packetbuf_datalen
      001D3F 79s00            [12] 6420 	mov	r1,#(_packetbuf_datalen >> 8)
      001D41 7As00            [12] 6421 	mov	r2,#(_packetbuf_datalen >> 16)
      001D43 12r00r00         [24] 6422 	lcall	__sdcc_banked_call
      001D46 AE 82            [24] 6423 	mov	r6,dpl
      001D48 90r00r03         [24] 6424 	mov	dptr,#_rime_hdr_len
      001D4B E0               [24] 6425 	movx	a,@dptr
      001D4C FF               [12] 6426 	mov	r7,a
      001D4D EE               [12] 6427 	mov	a,r6
      001D4E C3               [12] 6428 	clr	c
      001D4F 9F               [12] 6429 	subb	a,r7
      001D50 FE               [12] 6430 	mov	r6,a
      001D51 90r00r05         [24] 6431 	mov	dptr,#_uncomp_hdr_len
      001D54 E0               [24] 6432 	movx	a,@dptr
      001D55 FF               [12] 6433 	mov	r7,a
      001D56 2E               [12] 6434 	add	a,r6
      001D57 24 D8            [12] 6435 	add	a,#0xd8
      001D59 FE               [12] 6436 	mov	r6,a
      001D5A 90r00r05         [24] 6437 	mov	dptr,#(_uip_aligned_buf + 0x0005)
      001D5D F0               [24] 6438 	movx	@dptr,a
      001D5E 80 22            [24] 6439 	sjmp	00152$
      001D60                       6440 00151$:
                                   6441 ;	../../../core/net/sicslowpan.c:1019: SICSLOWPAN_IP_BUF->len[0] = (ip_len - UIP_IPH_LEN) >> 8;
      001D60 E5 81            [12] 6442 	mov	a,sp
      001D62 24 F3            [12] 6443 	add	a,#0xf3
      001D64 F8               [12] 6444 	mov	r0,a
      001D65 86 06            [24] 6445 	mov	ar6,@r0
      001D67 08               [12] 6446 	inc	r0
      001D68 86 07            [24] 6447 	mov	ar7,@r0
      001D6A EE               [12] 6448 	mov	a,r6
      001D6B 24 D8            [12] 6449 	add	a,#0xd8
      001D6D EF               [12] 6450 	mov	a,r7
      001D6E 34 FF            [12] 6451 	addc	a,#0xff
      001D70 FF               [12] 6452 	mov	r7,a
      001D71 90r00r04         [24] 6453 	mov	dptr,#(_uip_aligned_buf + 0x0004)
      001D74 F0               [24] 6454 	movx	@dptr,a
                                   6455 ;	../../../core/net/sicslowpan.c:1020: SICSLOWPAN_IP_BUF->len[1] = (ip_len - UIP_IPH_LEN) & 0x00FF;
      001D75 E5 81            [12] 6456 	mov	a,sp
      001D77 24 F3            [12] 6457 	add	a,#0xf3
      001D79 F8               [12] 6458 	mov	r0,a
      001D7A E6               [12] 6459 	mov	a,@r0
      001D7B 24 D8            [12] 6460 	add	a,#0xd8
      001D7D FE               [12] 6461 	mov	r6,a
      001D7E 90r00r05         [24] 6462 	mov	dptr,#(_uip_aligned_buf + 0x0005)
      001D81 F0               [24] 6463 	movx	@dptr,a
      001D82                       6464 00152$:
                                   6465 ;	../../../core/net/sicslowpan.c:1024: if(SICSLOWPAN_IP_BUF->proto == UIP_PROTO_UDP) {
      001D82 90r00r06         [24] 6466 	mov	dptr,#(_uip_aligned_buf + 0x0006)
      001D85 E0               [24] 6467 	movx	a,@dptr
      001D86 FF               [12] 6468 	mov	r7,a
      001D87 BF 11 27         [24] 6469 	cjne	r7,#0x11,00154$
                                   6470 ;	../../../core/net/sicslowpan.c:1025: memcpy(&SICSLOWPAN_UDP_BUF->udplen, &SICSLOWPAN_IP_BUF->len[0], 2);
      001D8A 74 02            [12] 6471 	mov	a,#0x02
      001D8C C0 E0            [24] 6472 	push	acc
      001D8E E4               [12] 6473 	clr	a
      001D8F C0 E0            [24] 6474 	push	acc
      001D91 74r04            [12] 6475 	mov	a,#(_uip_aligned_buf + 0x0004)
      001D93 C0 E0            [24] 6476 	push	acc
      001D95 74s00            [12] 6477 	mov	a,#((_uip_aligned_buf + 0x0004) >> 8)
      001D97 C0 E0            [24] 6478 	push	acc
      001D99 E4               [12] 6479 	clr	a
      001D9A C0 E0            [24] 6480 	push	acc
      001D9C 90r00r2C         [24] 6481 	mov	dptr,#(_uip_aligned_buf + 0x002c)
      001D9F 75 F0 00         [24] 6482 	mov	b,#0x00
      001DA2 78r00            [12] 6483 	mov	r0,#___memcpy
      001DA4 79s00            [12] 6484 	mov	r1,#(___memcpy >> 8)
      001DA6 7As00            [12] 6485 	mov	r2,#(___memcpy >> 16)
      001DA8 12r00r00         [24] 6486 	lcall	__sdcc_banked_call
      001DAB E5 81            [12] 6487 	mov	a,sp
      001DAD 24 FB            [12] 6488 	add	a,#0xfb
      001DAF F5 81            [12] 6489 	mov	sp,a
      001DB1                       6490 00154$:
                                   6491 ;	../../../core/net/sicslowpan.c:1028: return;
      001DB1                       6492 00155$:
                                   6493 ;	../../../core/net/sicslowpan.c:1029: }
      001DB1 E5 81            [12] 6494 	mov	a,sp
      001DB3 24 F2            [12] 6495 	add	a,#0xf2
      001DB5 F5 81            [12] 6496 	mov	sp,a
      001DB7 02r00r00         [24] 6497 	ljmp	__sdcc_banked_ret
                                   6498 ;------------------------------------------------------------
                                   6499 ;Allocation info for local variables in function 'compress_hdr_ipv6'
                                   6500 ;------------------------------------------------------------
                                   6501 ;rime_destaddr             Allocated to registers 
                                   6502 ;------------------------------------------------------------
                                   6503 ;	../../../core/net/sicslowpan.c:1297: compress_hdr_ipv6(rimeaddr_t *rime_destaddr)
                                   6504 ;	-----------------------------------------
                                   6505 ;	 function compress_hdr_ipv6
                                   6506 ;	-----------------------------------------
      001DBA                       6507 _compress_hdr_ipv6:
                                   6508 ;	../../../core/net/sicslowpan.c:1299: *rime_ptr = SICSLOWPAN_DISPATCH_IPV6;
      001DBA 90r00r00         [24] 6509 	mov	dptr,#_rime_ptr
      001DBD E0               [24] 6510 	movx	a,@dptr
      001DBE FD               [12] 6511 	mov	r5,a
      001DBF A3               [24] 6512 	inc	dptr
      001DC0 E0               [24] 6513 	movx	a,@dptr
      001DC1 FE               [12] 6514 	mov	r6,a
      001DC2 A3               [24] 6515 	inc	dptr
      001DC3 E0               [24] 6516 	movx	a,@dptr
      001DC4 FF               [12] 6517 	mov	r7,a
      001DC5 8D 82            [24] 6518 	mov	dpl,r5
      001DC7 8E 83            [24] 6519 	mov	dph,r6
      001DC9 8F F0            [24] 6520 	mov	b,r7
      001DCB 74 41            [12] 6521 	mov	a,#0x41
      001DCD 12r00r00         [24] 6522 	lcall	__gptrput
                                   6523 ;	../../../core/net/sicslowpan.c:1300: rime_hdr_len += SICSLOWPAN_IPV6_HDR_LEN;
      001DD0 90r00r03         [24] 6524 	mov	dptr,#_rime_hdr_len
      001DD3 E0               [24] 6525 	movx	a,@dptr
      001DD4 04               [12] 6526 	inc	a
      001DD5 F0               [24] 6527 	movx	@dptr,a
                                   6528 ;	../../../core/net/sicslowpan.c:1301: memcpy(rime_ptr + rime_hdr_len, UIP_IP_BUF, UIP_IPH_LEN);
      001DD6 E0               [24] 6529 	movx	a,@dptr
      001DD7 FF               [12] 6530 	mov	r7,a
      001DD8 90r00r00         [24] 6531 	mov	dptr,#_rime_ptr
      001DDB E0               [24] 6532 	movx	a,@dptr
      001DDC FC               [12] 6533 	mov	r4,a
      001DDD A3               [24] 6534 	inc	dptr
      001DDE E0               [24] 6535 	movx	a,@dptr
      001DDF FD               [12] 6536 	mov	r5,a
      001DE0 A3               [24] 6537 	inc	dptr
      001DE1 E0               [24] 6538 	movx	a,@dptr
      001DE2 FE               [12] 6539 	mov	r6,a
      001DE3 EF               [12] 6540 	mov	a,r7
      001DE4 2C               [12] 6541 	add	a,r4
      001DE5 FF               [12] 6542 	mov	r7,a
      001DE6 E4               [12] 6543 	clr	a
      001DE7 3D               [12] 6544 	addc	a,r5
      001DE8 FB               [12] 6545 	mov	r3,a
      001DE9 8E 02            [24] 6546 	mov	ar2,r6
      001DEB 74 28            [12] 6547 	mov	a,#0x28
      001DED C0 E0            [24] 6548 	push	acc
      001DEF E4               [12] 6549 	clr	a
      001DF0 C0 E0            [24] 6550 	push	acc
      001DF2 74r00            [12] 6551 	mov	a,#_uip_aligned_buf
      001DF4 C0 E0            [24] 6552 	push	acc
      001DF6 74s00            [12] 6553 	mov	a,#(_uip_aligned_buf >> 8)
      001DF8 C0 E0            [24] 6554 	push	acc
      001DFA E4               [12] 6555 	clr	a
      001DFB C0 E0            [24] 6556 	push	acc
      001DFD 8F 82            [24] 6557 	mov	dpl,r7
      001DFF 8B 83            [24] 6558 	mov	dph,r3
      001E01 8A F0            [24] 6559 	mov	b,r2
      001E03 78r00            [12] 6560 	mov	r0,#___memcpy
      001E05 79s00            [12] 6561 	mov	r1,#(___memcpy >> 8)
      001E07 7As00            [12] 6562 	mov	r2,#(___memcpy >> 16)
      001E09 12r00r00         [24] 6563 	lcall	__sdcc_banked_call
      001E0C E5 81            [12] 6564 	mov	a,sp
      001E0E 24 FB            [12] 6565 	add	a,#0xfb
      001E10 F5 81            [12] 6566 	mov	sp,a
                                   6567 ;	../../../core/net/sicslowpan.c:1302: rime_hdr_len += UIP_IPH_LEN;
      001E12 90r00r03         [24] 6568 	mov	dptr,#_rime_hdr_len
      001E15 E0               [24] 6569 	movx	a,@dptr
      001E16 24 28            [12] 6570 	add	a,#0x28
      001E18 F0               [24] 6571 	movx	@dptr,a
                                   6572 ;	../../../core/net/sicslowpan.c:1303: uncomp_hdr_len += UIP_IPH_LEN;
      001E19 90r00r05         [24] 6573 	mov	dptr,#_uncomp_hdr_len
      001E1C E0               [24] 6574 	movx	a,@dptr
      001E1D FF               [12] 6575 	mov	r7,a
      001E1E 24 28            [12] 6576 	add	a,#0x28
      001E20 F0               [24] 6577 	movx	@dptr,a
                                   6578 ;	../../../core/net/sicslowpan.c:1304: return;
                                   6579 ;	../../../core/net/sicslowpan.c:1305: }
      001E21 02r00r00         [24] 6580 	ljmp	__sdcc_banked_ret
                                   6581 ;------------------------------------------------------------
                                   6582 ;Allocation info for local variables in function 'packet_sent'
                                   6583 ;------------------------------------------------------------
                                   6584 ;status                    Allocated to stack - sp -4
                                   6585 ;transmissions             Allocated to stack - sp -6
                                   6586 ;ptr                       Allocated to registers 
                                   6587 ;------------------------------------------------------------
                                   6588 ;	../../../core/net/sicslowpan.c:1316: packet_sent(void *ptr, int status, int transmissions)
                                   6589 ;	-----------------------------------------
                                   6590 ;	 function packet_sent
                                   6591 ;	-----------------------------------------
      001E24                       6592 _packet_sent:
                                   6593 ;	../../../core/net/sicslowpan.c:1319: neighbor_info_packet_sent(status, transmissions);
      001E24 E5 81            [12] 6594 	mov	a,sp
      001E26 24 FA            [12] 6595 	add	a,#0xfa
      001E28 F8               [12] 6596 	mov	r0,a
      001E29 E6               [12] 6597 	mov	a,@r0
      001E2A C0 E0            [24] 6598 	push	acc
      001E2C 08               [12] 6599 	inc	r0
      001E2D E6               [12] 6600 	mov	a,@r0
      001E2E C0 E0            [24] 6601 	push	acc
      001E30 E5 81            [12] 6602 	mov	a,sp
      001E32 24 FA            [12] 6603 	add	a,#0xfa
      001E34 F8               [12] 6604 	mov	r0,a
      001E35 86 82            [24] 6605 	mov	dpl,@r0
      001E37 08               [12] 6606 	inc	r0
      001E38 86 83            [24] 6607 	mov	dph,@r0
      001E3A 78r00            [12] 6608 	mov	r0,#_neighbor_info_packet_sent
      001E3C 79s00            [12] 6609 	mov	r1,#(_neighbor_info_packet_sent >> 8)
      001E3E 7As00            [12] 6610 	mov	r2,#(_neighbor_info_packet_sent >> 16)
      001E40 12r00r00         [24] 6611 	lcall	__sdcc_banked_call
      001E43 15 81            [12] 6612 	dec	sp
      001E45 15 81            [12] 6613 	dec	sp
                                   6614 ;	../../../core/net/sicslowpan.c:1321: if(callback != NULL) {
      001E47 90r00r00         [24] 6615 	mov	dptr,#_callback
      001E4A E0               [24] 6616 	movx	a,@dptr
      001E4B FD               [12] 6617 	mov	r5,a
      001E4C A3               [24] 6618 	inc	dptr
      001E4D E0               [24] 6619 	movx	a,@dptr
      001E4E FE               [12] 6620 	mov	r6,a
      001E4F A3               [24] 6621 	inc	dptr
      001E50 E0               [24] 6622 	movx	a,@dptr
      001E51 FF               [12] 6623 	mov	r7,a
      001E52 90r00r00         [24] 6624 	mov	dptr,#_callback
      001E55 E0               [24] 6625 	movx	a,@dptr
      001E56 F5 F0            [12] 6626 	mov	b,a
      001E58 A3               [24] 6627 	inc	dptr
      001E59 E0               [24] 6628 	movx	a,@dptr
      001E5A 45 F0            [12] 6629 	orl	a,b
      001E5C 60 40            [24] 6630 	jz	00102$
                                   6631 ;	../../../core/net/sicslowpan.c:1322: callback->output_callback(status);
      001E5E 74 06            [12] 6632 	mov	a,#0x06
      001E60 2D               [12] 6633 	add	a,r5
      001E61 FD               [12] 6634 	mov	r5,a
      001E62 E4               [12] 6635 	clr	a
      001E63 3E               [12] 6636 	addc	a,r6
      001E64 FE               [12] 6637 	mov	r6,a
      001E65 8D 82            [24] 6638 	mov	dpl,r5
      001E67 8E 83            [24] 6639 	mov	dph,r6
      001E69 8F F0            [24] 6640 	mov	b,r7
      001E6B 12r00r00         [24] 6641 	lcall	__gptrget
      001E6E FD               [12] 6642 	mov	r5,a
      001E6F A3               [24] 6643 	inc	dptr
      001E70 12r00r00         [24] 6644 	lcall	__gptrget
      001E73 FE               [12] 6645 	mov	r6,a
      001E74 A3               [24] 6646 	inc	dptr
      001E75 12r00r00         [24] 6647 	lcall	__gptrget
      001E78 FF               [12] 6648 	mov	r7,a
      001E79 C0 07            [24] 6649 	push	ar7
      001E7B C0 06            [24] 6650 	push	ar6
      001E7D C0 05            [24] 6651 	push	ar5
      001E7F C0 05            [24] 6652 	push	ar5
      001E81 C0 06            [24] 6653 	push	ar6
      001E83 C0 07            [24] 6654 	push	ar7
      001E85 E5 81            [12] 6655 	mov	a,sp
      001E87 24 F6            [12] 6656 	add	a,#0xf6
      001E89 F8               [12] 6657 	mov	r0,a
      001E8A 86 82            [24] 6658 	mov	dpl,@r0
      001E8C 08               [12] 6659 	inc	r0
      001E8D 86 83            [24] 6660 	mov	dph,@r0
      001E8F D0 02            [24] 6661 	pop	ar2
      001E91 D0 01            [24] 6662 	pop	ar1
      001E93 D0 00            [24] 6663 	pop	ar0
      001E95 12r00r00         [24] 6664 	lcall	__sdcc_banked_call
      001E98 D0 05            [24] 6665 	pop	ar5
      001E9A D0 06            [24] 6666 	pop	ar6
      001E9C D0 07            [24] 6667 	pop	ar7
      001E9E                       6668 00102$:
                                   6669 ;	../../../core/net/sicslowpan.c:1324: last_tx_status = status;
      001E9E E5 81            [12] 6670 	mov	a,sp
      001EA0 24 FC            [12] 6671 	add	a,#0xfc
      001EA2 F8               [12] 6672 	mov	r0,a
      001EA3 90r00r06         [24] 6673 	mov	dptr,#_last_tx_status
      001EA6 E6               [12] 6674 	mov	a,@r0
      001EA7 F0               [24] 6675 	movx	@dptr,a
      001EA8 08               [12] 6676 	inc	r0
      001EA9 E6               [12] 6677 	mov	a,@r0
      001EAA A3               [24] 6678 	inc	dptr
      001EAB F0               [24] 6679 	movx	@dptr,a
                                   6680 ;	../../../core/net/sicslowpan.c:1325: }
      001EAC 02r00r00         [24] 6681 	ljmp	__sdcc_banked_ret
                                   6682 ;------------------------------------------------------------
                                   6683 ;Allocation info for local variables in function 'send_packet'
                                   6684 ;------------------------------------------------------------
                                   6685 ;dest                      Allocated to registers r5 r6 r7 
                                   6686 ;------------------------------------------------------------
                                   6687 ;	../../../core/net/sicslowpan.c:1333: send_packet(rimeaddr_t *dest)
                                   6688 ;	-----------------------------------------
                                   6689 ;	 function send_packet
                                   6690 ;	-----------------------------------------
      001EAF                       6691 _send_packet:
      001EAF AD 82            [24] 6692 	mov	r5,dpl
      001EB1 AE 83            [24] 6693 	mov	r6,dph
      001EB3 AF F0            [24] 6694 	mov	r7,b
                                   6695 ;	../../../core/net/sicslowpan.c:1339: packetbuf_set_addr(PACKETBUF_ADDR_RECEIVER, dest);
      001EB5 C0 05            [24] 6696 	push	ar5
      001EB7 C0 06            [24] 6697 	push	ar6
      001EB9 C0 07            [24] 6698 	push	ar7
      001EBB 75 82 19         [24] 6699 	mov	dpl,#0x19
      001EBE 78r00            [12] 6700 	mov	r0,#_packetbuf_set_addr
      001EC0 79s00            [12] 6701 	mov	r1,#(_packetbuf_set_addr >> 8)
      001EC2 7As00            [12] 6702 	mov	r2,#(_packetbuf_set_addr >> 16)
      001EC4 12r00r00         [24] 6703 	lcall	__sdcc_banked_call
      001EC7 15 81            [12] 6704 	dec	sp
      001EC9 15 81            [12] 6705 	dec	sp
      001ECB 15 81            [12] 6706 	dec	sp
                                   6707 ;	../../../core/net/sicslowpan.c:1348: NETSTACK_MAC.send(&packet_sent, NULL);
      001ECD 90r00r06         [24] 6708 	mov	dptr,#(_csma_driver + 0x0006)
      001ED0 E4               [12] 6709 	clr	a
      001ED1 93               [24] 6710 	movc	a,@a+dptr
      001ED2 FD               [12] 6711 	mov	r5,a
      001ED3 A3               [24] 6712 	inc	dptr
      001ED4 E4               [12] 6713 	clr	a
      001ED5 93               [24] 6714 	movc	a,@a+dptr
      001ED6 FE               [12] 6715 	mov	r6,a
      001ED7 A3               [24] 6716 	inc	dptr
      001ED8 E4               [12] 6717 	clr	a
      001ED9 93               [24] 6718 	movc	a,@a+dptr
      001EDA FF               [12] 6719 	mov	r7,a
      001EDB C0 07            [24] 6720 	push	ar7
      001EDD C0 06            [24] 6721 	push	ar6
      001EDF C0 05            [24] 6722 	push	ar5
      001EE1 E4               [12] 6723 	clr	a
      001EE2 C0 E0            [24] 6724 	push	acc
      001EE4 C0 E0            [24] 6725 	push	acc
      001EE6 C0 E0            [24] 6726 	push	acc
      001EE8 C0 05            [24] 6727 	push	ar5
      001EEA C0 06            [24] 6728 	push	ar6
      001EEC C0 07            [24] 6729 	push	ar7
      001EEE 90r1Er24         [24] 6730 	mov	dptr,#_packet_sent
      001EF1 75 F0s00         [24] 6731 	mov	b,#(_packet_sent >> 16)
      001EF4 D0 02            [24] 6732 	pop	ar2
      001EF6 D0 01            [24] 6733 	pop	ar1
      001EF8 D0 00            [24] 6734 	pop	ar0
      001EFA 12r00r00         [24] 6735 	lcall	__sdcc_banked_call
      001EFD 15 81            [12] 6736 	dec	sp
      001EFF 15 81            [12] 6737 	dec	sp
      001F01 15 81            [12] 6738 	dec	sp
      001F03 D0 05            [24] 6739 	pop	ar5
      001F05 D0 06            [24] 6740 	pop	ar6
      001F07 D0 07            [24] 6741 	pop	ar7
                                   6742 ;	../../../core/net/sicslowpan.c:1352: watchdog_periodic();
      001F09 78r00            [12] 6743 	mov	r0,#_watchdog_periodic
      001F0B 79s00            [12] 6744 	mov	r1,#(_watchdog_periodic >> 8)
      001F0D 7As00            [12] 6745 	mov	r2,#(_watchdog_periodic >> 16)
      001F0F 12r00r00         [24] 6746 	lcall	__sdcc_banked_call
                                   6747 ;	../../../core/net/sicslowpan.c:1353: }
      001F12 02r00r00         [24] 6748 	ljmp	__sdcc_banked_ret
                                   6749 ;------------------------------------------------------------
                                   6750 ;Allocation info for local variables in function 'output'
                                   6751 ;------------------------------------------------------------
                                   6752 ;localdest                 Allocated to registers r5 r6 r7 
                                   6753 ;sloc0                     Allocated to stack - sp -3
                                   6754 ;sloc1                     Allocated to stack - sp -1
                                   6755 ;sloc2                     Allocated to stack - sp +0
                                   6756 ;dest                      Allocated with name '_output_dest_65536_561'
                                   6757 ;------------------------------------------------------------
                                   6758 ;	../../../core/net/sicslowpan.c:1365: output(uip_lladdr_t *localdest)
                                   6759 ;	-----------------------------------------
                                   6760 ;	 function output
                                   6761 ;	-----------------------------------------
      001F15                       6762 _output:
      001F15 E5 81            [12] 6763 	mov	a,sp
      001F17 24 04            [12] 6764 	add	a,#0x04
      001F19 F5 81            [12] 6765 	mov	sp,a
      001F1B AD 82            [24] 6766 	mov	r5,dpl
      001F1D AE 83            [24] 6767 	mov	r6,dph
      001F1F AF F0            [24] 6768 	mov	r7,b
                                   6769 ;	../../../core/net/sicslowpan.c:1376: uncomp_hdr_len = 0;
      001F21 90r00r05         [24] 6770 	mov	dptr,#_uncomp_hdr_len
      001F24 E4               [12] 6771 	clr	a
      001F25 F0               [24] 6772 	movx	@dptr,a
                                   6773 ;	../../../core/net/sicslowpan.c:1377: rime_hdr_len = 0;
      001F26 90r00r03         [24] 6774 	mov	dptr,#_rime_hdr_len
      001F29 F0               [24] 6775 	movx	@dptr,a
                                   6776 ;	../../../core/net/sicslowpan.c:1380: packetbuf_clear();
      001F2A C0 07            [24] 6777 	push	ar7
      001F2C C0 06            [24] 6778 	push	ar6
      001F2E C0 05            [24] 6779 	push	ar5
      001F30 78r00            [12] 6780 	mov	r0,#_packetbuf_clear
      001F32 79s00            [12] 6781 	mov	r1,#(_packetbuf_clear >> 8)
      001F34 7As00            [12] 6782 	mov	r2,#(_packetbuf_clear >> 16)
      001F36 12r00r00         [24] 6783 	lcall	__sdcc_banked_call
                                   6784 ;	../../../core/net/sicslowpan.c:1381: rime_ptr = packetbuf_dataptr();
      001F39 78r00            [12] 6785 	mov	r0,#_packetbuf_dataptr
      001F3B 79s00            [12] 6786 	mov	r1,#(_packetbuf_dataptr >> 8)
      001F3D 7As00            [12] 6787 	mov	r2,#(_packetbuf_dataptr >> 16)
      001F3F 12r00r00         [24] 6788 	lcall	__sdcc_banked_call
      001F42 AA 82            [24] 6789 	mov	r2,dpl
      001F44 AB 83            [24] 6790 	mov	r3,dph
      001F46 AC F0            [24] 6791 	mov	r4,b
      001F48 90r00r00         [24] 6792 	mov	dptr,#_rime_ptr
      001F4B EA               [12] 6793 	mov	a,r2
      001F4C F0               [24] 6794 	movx	@dptr,a
      001F4D EB               [12] 6795 	mov	a,r3
      001F4E A3               [24] 6796 	inc	dptr
      001F4F F0               [24] 6797 	movx	@dptr,a
      001F50 EC               [12] 6798 	mov	a,r4
      001F51 A3               [24] 6799 	inc	dptr
      001F52 F0               [24] 6800 	movx	@dptr,a
                                   6801 ;	../../../core/net/sicslowpan.c:1383: packetbuf_set_attr(PACKETBUF_ATTR_MAX_MAC_TRANSMISSIONS,
      001F53 74 04            [12] 6802 	mov	a,#0x04
      001F55 C0 E0            [24] 6803 	push	acc
      001F57 E4               [12] 6804 	clr	a
      001F58 C0 E0            [24] 6805 	push	acc
      001F5A 75 82 09         [24] 6806 	mov	dpl,#0x09
      001F5D 78r00            [12] 6807 	mov	r0,#_packetbuf_set_attr
      001F5F 79s00            [12] 6808 	mov	r1,#(_packetbuf_set_attr >> 8)
      001F61 7As00            [12] 6809 	mov	r2,#(_packetbuf_set_attr >> 16)
      001F63 12r00r00         [24] 6810 	lcall	__sdcc_banked_call
      001F66 15 81            [12] 6811 	dec	sp
      001F68 15 81            [12] 6812 	dec	sp
      001F6A D0 05            [24] 6813 	pop	ar5
      001F6C D0 06            [24] 6814 	pop	ar6
      001F6E D0 07            [24] 6815 	pop	ar7
                                   6816 ;	../../../core/net/sicslowpan.c:1386: if(callback) {
      001F70 90r00r00         [24] 6817 	mov	dptr,#_callback
      001F73 E0               [24] 6818 	movx	a,@dptr
      001F74 F5 F0            [12] 6819 	mov	b,a
      001F76 A3               [24] 6820 	inc	dptr
      001F77 E0               [24] 6821 	movx	a,@dptr
      001F78 45 F0            [12] 6822 	orl	a,b
      001F7A 60 15            [24] 6823 	jz	00102$
                                   6824 ;	../../../core/net/sicslowpan.c:1389: set_packet_attrs();
      001F7C C0 07            [24] 6825 	push	ar7
      001F7E C0 06            [24] 6826 	push	ar6
      001F80 C0 05            [24] 6827 	push	ar5
      001F82 78r1F            [12] 6828 	mov	r0,#_set_packet_attrs
      001F84 79s00            [12] 6829 	mov	r1,#(_set_packet_attrs >> 8)
      001F86 7As00            [12] 6830 	mov	r2,#(_set_packet_attrs >> 16)
      001F88 12r00r00         [24] 6831 	lcall	__sdcc_banked_call
      001F8B D0 05            [24] 6832 	pop	ar5
      001F8D D0 06            [24] 6833 	pop	ar6
      001F8F D0 07            [24] 6834 	pop	ar7
      001F91                       6835 00102$:
                                   6836 ;	../../../core/net/sicslowpan.c:1396: if(UIP_IP_BUF->proto == UIP_PROTO_TCP &&
      001F91 90r00r06         [24] 6837 	mov	dptr,#(_uip_aligned_buf + 0x0006)
      001F94 E0               [24] 6838 	movx	a,@dptr
      001F95 FC               [12] 6839 	mov	r4,a
      001F96 BC 06 3F         [24] 6840 	cjne	r4,#0x06,00107$
                                   6841 ;	../../../core/net/sicslowpan.c:1397: (UIP_TCP_BUF->flags & TCP_FIN) == 0 &&
      001F99 90r00r35         [24] 6842 	mov	dptr,#(_uip_aligned_buf + 0x0035)
      001F9C E0               [24] 6843 	movx	a,@dptr
      001F9D FC               [12] 6844 	mov	r4,a
      001F9E 20 E0 37         [24] 6845 	jb	acc.0,00107$
                                   6846 ;	../../../core/net/sicslowpan.c:1398: (UIP_TCP_BUF->flags & TCP_CTL) != TCP_ACK) {
      001FA1 90r00r35         [24] 6847 	mov	dptr,#(_uip_aligned_buf + 0x0035)
      001FA4 E0               [24] 6848 	movx	a,@dptr
      001FA5 FC               [12] 6849 	mov	r4,a
      001FA6 53 04 3F         [24] 6850 	anl	ar4,#0x3f
      001FA9 7B 00            [12] 6851 	mov	r3,#0x00
      001FAB BC 10 05         [24] 6852 	cjne	r4,#0x10,00158$
      001FAE BB 00 02         [24] 6853 	cjne	r3,#0x00,00158$
      001FB1 80 25            [24] 6854 	sjmp	00107$
      001FB3                       6855 00158$:
                                   6856 ;	../../../core/net/sicslowpan.c:1399: packetbuf_set_attr(PACKETBUF_ATTR_PACKET_TYPE,
      001FB3 C0 07            [24] 6857 	push	ar7
      001FB5 C0 06            [24] 6858 	push	ar6
      001FB7 C0 05            [24] 6859 	push	ar5
      001FB9 74 02            [12] 6860 	mov	a,#0x02
      001FBB C0 E0            [24] 6861 	push	acc
      001FBD E4               [12] 6862 	clr	a
      001FBE C0 E0            [24] 6863 	push	acc
      001FC0 75 82 0E         [24] 6864 	mov	dpl,#0x0e
      001FC3 78r00            [12] 6865 	mov	r0,#_packetbuf_set_attr
      001FC5 79s00            [12] 6866 	mov	r1,#(_packetbuf_set_attr >> 8)
      001FC7 7As00            [12] 6867 	mov	r2,#(_packetbuf_set_attr >> 16)
      001FC9 12r00r00         [24] 6868 	lcall	__sdcc_banked_call
      001FCC 15 81            [12] 6869 	dec	sp
      001FCE 15 81            [12] 6870 	dec	sp
      001FD0 D0 05            [24] 6871 	pop	ar5
      001FD2 D0 06            [24] 6872 	pop	ar6
      001FD4 D0 07            [24] 6873 	pop	ar7
      001FD6 80 3B            [24] 6874 	sjmp	00108$
      001FD8                       6875 00107$:
                                   6876 ;	../../../core/net/sicslowpan.c:1401: } else if(UIP_IP_BUF->proto == UIP_PROTO_TCP &&
      001FD8 90r00r06         [24] 6877 	mov	dptr,#(_uip_aligned_buf + 0x0006)
      001FDB E0               [24] 6878 	movx	a,@dptr
      001FDC FC               [12] 6879 	mov	r4,a
      001FDD BC 06 33         [24] 6880 	cjne	r4,#0x06,00108$
                                   6881 ;	../../../core/net/sicslowpan.c:1402: (UIP_TCP_BUF->flags & TCP_FIN) == TCP_FIN) {
      001FE0 90r00r35         [24] 6882 	mov	dptr,#(_uip_aligned_buf + 0x0035)
      001FE3 E0               [24] 6883 	movx	a,@dptr
      001FE4 FC               [12] 6884 	mov	r4,a
      001FE5 53 04 01         [24] 6885 	anl	ar4,#0x01
      001FE8 7B 00            [12] 6886 	mov	r3,#0x00
      001FEA BC 01 26         [24] 6887 	cjne	r4,#0x01,00108$
      001FED BB 00 23         [24] 6888 	cjne	r3,#0x00,00108$
                                   6889 ;	../../../core/net/sicslowpan.c:1403: packetbuf_set_attr(PACKETBUF_ATTR_PACKET_TYPE,
      001FF0 C0 07            [24] 6890 	push	ar7
      001FF2 C0 06            [24] 6891 	push	ar6
      001FF4 C0 05            [24] 6892 	push	ar5
      001FF6 74 03            [12] 6893 	mov	a,#0x03
      001FF8 C0 E0            [24] 6894 	push	acc
      001FFA E4               [12] 6895 	clr	a
      001FFB C0 E0            [24] 6896 	push	acc
      001FFD 75 82 0E         [24] 6897 	mov	dpl,#0x0e
      002000 78r00            [12] 6898 	mov	r0,#_packetbuf_set_attr
      002002 79s00            [12] 6899 	mov	r1,#(_packetbuf_set_attr >> 8)
      002004 7As00            [12] 6900 	mov	r2,#(_packetbuf_set_attr >> 16)
      002006 12r00r00         [24] 6901 	lcall	__sdcc_banked_call
      002009 15 81            [12] 6902 	dec	sp
      00200B 15 81            [12] 6903 	dec	sp
      00200D D0 05            [24] 6904 	pop	ar5
      00200F D0 06            [24] 6905 	pop	ar6
      002011 D0 07            [24] 6906 	pop	ar7
      002013                       6907 00108$:
                                   6908 ;	../../../core/net/sicslowpan.c:1412: if(localdest == NULL) {
      002013 ED               [12] 6909 	mov	a,r5
      002014 4E               [12] 6910 	orl	a,r6
      002015 70 23            [24] 6911 	jnz	00112$
                                   6912 ;	../../../core/net/sicslowpan.c:1413: rimeaddr_copy(&dest, &rimeaddr_null);
      002017 74r00            [12] 6913 	mov	a,#_rimeaddr_null
      002019 C0 E0            [24] 6914 	push	acc
      00201B 74s00            [12] 6915 	mov	a,#(_rimeaddr_null >> 8)
      00201D C0 E0            [24] 6916 	push	acc
      00201F 74 80            [12] 6917 	mov	a,#0x80
      002021 C0 E0            [24] 6918 	push	acc
      002023 90r00r18         [24] 6919 	mov	dptr,#_output_dest_65536_561
      002026 75 F0 00         [24] 6920 	mov	b,#0x00
      002029 78r00            [12] 6921 	mov	r0,#_rimeaddr_copy
      00202B 79s00            [12] 6922 	mov	r1,#(_rimeaddr_copy >> 8)
      00202D 7As00            [12] 6923 	mov	r2,#(_rimeaddr_copy >> 16)
      00202F 12r00r00         [24] 6924 	lcall	__sdcc_banked_call
      002032 15 81            [12] 6925 	dec	sp
      002034 15 81            [12] 6926 	dec	sp
      002036 15 81            [12] 6927 	dec	sp
      002038 80 1B            [24] 6928 	sjmp	00114$
      00203A                       6929 00112$:
                                   6930 ;	../../../core/net/sicslowpan.c:1415: rimeaddr_copy(&dest, (const rimeaddr_t *)localdest);
      00203A C0 05            [24] 6931 	push	ar5
      00203C C0 06            [24] 6932 	push	ar6
      00203E C0 07            [24] 6933 	push	ar7
      002040 90r00r18         [24] 6934 	mov	dptr,#_output_dest_65536_561
      002043 75 F0 00         [24] 6935 	mov	b,#0x00
      002046 78r00            [12] 6936 	mov	r0,#_rimeaddr_copy
      002048 79s00            [12] 6937 	mov	r1,#(_rimeaddr_copy >> 8)
      00204A 7As00            [12] 6938 	mov	r2,#(_rimeaddr_copy >> 16)
      00204C 12r00r00         [24] 6939 	lcall	__sdcc_banked_call
      00204F 15 81            [12] 6940 	dec	sp
      002051 15 81            [12] 6941 	dec	sp
      002053 15 81            [12] 6942 	dec	sp
                                   6943 ;	../../../core/net/sicslowpan.c:1420: if(uip_len >= COMPRESSION_THRESHOLD) {
      002055                       6944 00114$:
                                   6945 ;	../../../core/net/sicslowpan.c:1429: compress_hdr_hc06(&dest);
      002055 90r00r18         [24] 6946 	mov	dptr,#_output_dest_65536_561
      002058 75 F0 00         [24] 6947 	mov	b,#0x00
      00205B 78r01            [12] 6948 	mov	r0,#_compress_hdr_hc06
      00205D 79s08            [12] 6949 	mov	r1,#(_compress_hdr_hc06 >> 8)
      00205F 7As00            [12] 6950 	mov	r2,#(_compress_hdr_hc06 >> 16)
      002061 12r00r00         [24] 6951 	lcall	__sdcc_banked_call
                                   6952 ;	../../../core/net/sicslowpan.c:1436: if(uip_len - uncomp_hdr_len > MAC_MAX_PAYLOAD - rime_hdr_len) {
      002064 90r00r05         [24] 6953 	mov	dptr,#_uncomp_hdr_len
      002067 A8 81            [24] 6954 	mov	r0,sp
      002069 E0               [24] 6955 	movx	a,@dptr
      00206A F6               [12] 6956 	mov	@r0,a
      00206B A8 81            [24] 6957 	mov	r0,sp
      00206D 86 05            [24] 6958 	mov	ar5,@r0
      00206F 7E 00            [12] 6959 	mov	r6,#0x00
      002071 90r00r00         [24] 6960 	mov	dptr,#_uip_len
      002074 E0               [24] 6961 	movx	a,@dptr
      002075 FB               [12] 6962 	mov	r3,a
      002076 A3               [24] 6963 	inc	dptr
      002077 E0               [24] 6964 	movx	a,@dptr
      002078 FC               [12] 6965 	mov	r4,a
      002079 E5 81            [12] 6966 	mov	a,sp
      00207B 24 FD            [12] 6967 	add	a,#0xfd
      00207D F8               [12] 6968 	mov	r0,a
      00207E EB               [12] 6969 	mov	a,r3
      00207F C3               [12] 6970 	clr	c
      002080 9D               [12] 6971 	subb	a,r5
      002081 F6               [12] 6972 	mov	@r0,a
      002082 EC               [12] 6973 	mov	a,r4
      002083 9E               [12] 6974 	subb	a,r6
      002084 08               [12] 6975 	inc	r0
      002085 F6               [12] 6976 	mov	@r0,a
      002086 90r00r03         [24] 6977 	mov	dptr,#_rime_hdr_len
      002089 A8 81            [24] 6978 	mov	r0,sp
      00208B 18               [12] 6979 	dec	r0
      00208C E0               [24] 6980 	movx	a,@dptr
      00208D F6               [12] 6981 	mov	@r0,a
      00208E A8 81            [24] 6982 	mov	r0,sp
      002090 18               [12] 6983 	dec	r0
      002091 86 02            [24] 6984 	mov	ar2,@r0
      002093 7F 00            [12] 6985 	mov	r7,#0x00
      002095 74 66            [12] 6986 	mov	a,#0x66
      002097 C3               [12] 6987 	clr	c
      002098 9A               [12] 6988 	subb	a,r2
      002099 FA               [12] 6989 	mov	r2,a
      00209A E4               [12] 6990 	clr	a
      00209B 9F               [12] 6991 	subb	a,r7
      00209C FF               [12] 6992 	mov	r7,a
      00209D E5 81            [12] 6993 	mov	a,sp
      00209F 24 FD            [12] 6994 	add	a,#0xfd
      0020A1 F8               [12] 6995 	mov	r0,a
      0020A2 C3               [12] 6996 	clr	c
      0020A3 EA               [12] 6997 	mov	a,r2
      0020A4 96               [12] 6998 	subb	a,@r0
      0020A5 EF               [12] 6999 	mov	a,r7
      0020A6 08               [12] 7000 	inc	r0
      0020A7 96               [12] 7001 	subb	a,@r0
      0020A8 50 06            [24] 7002 	jnc	00118$
                                   7003 ;	../../../core/net/sicslowpan.c:1541: return 0;
      0020AA 75 82 00         [24] 7004 	mov	dpl,#0x00
      0020AD 02r21r44         [24] 7005 	ljmp	00120$
      0020B0                       7006 00118$:
                                   7007 ;	../../../core/net/sicslowpan.c:1552: memcpy(rime_ptr + rime_hdr_len, (uint8_t *)UIP_IP_BUF + uncomp_hdr_len,
      0020B0 E5 81            [12] 7008 	mov	a,sp
      0020B2 24 FD            [12] 7009 	add	a,#0xfd
      0020B4 F8               [12] 7010 	mov	r0,a
      0020B5 EB               [12] 7011 	mov	a,r3
      0020B6 C3               [12] 7012 	clr	c
      0020B7 9D               [12] 7013 	subb	a,r5
      0020B8 F6               [12] 7014 	mov	@r0,a
      0020B9 EC               [12] 7015 	mov	a,r4
      0020BA 9E               [12] 7016 	subb	a,r6
      0020BB 08               [12] 7017 	inc	r0
      0020BC F6               [12] 7018 	mov	@r0,a
      0020BD A8 81            [24] 7019 	mov	r0,sp
      0020BF E6               [12] 7020 	mov	a,@r0
      0020C0 24r00            [12] 7021 	add	a,#_uip_aligned_buf
      0020C2 FD               [12] 7022 	mov	r5,a
      0020C3 E4               [12] 7023 	clr	a
      0020C4 34s00            [12] 7024 	addc	a,#(_uip_aligned_buf >> 8)
      0020C6 FE               [12] 7025 	mov	r6,a
      0020C7 7F 00            [12] 7026 	mov	r7,#0x00
      0020C9 90r00r00         [24] 7027 	mov	dptr,#_rime_ptr
      0020CC E0               [24] 7028 	movx	a,@dptr
      0020CD FA               [12] 7029 	mov	r2,a
      0020CE A3               [24] 7030 	inc	dptr
      0020CF E0               [24] 7031 	movx	a,@dptr
      0020D0 FB               [12] 7032 	mov	r3,a
      0020D1 A3               [24] 7033 	inc	dptr
      0020D2 E0               [24] 7034 	movx	a,@dptr
      0020D3 FC               [12] 7035 	mov	r4,a
      0020D4 A8 81            [24] 7036 	mov	r0,sp
      0020D6 18               [12] 7037 	dec	r0
      0020D7 E6               [12] 7038 	mov	a,@r0
      0020D8 2A               [12] 7039 	add	a,r2
      0020D9 FA               [12] 7040 	mov	r2,a
      0020DA E4               [12] 7041 	clr	a
      0020DB 3B               [12] 7042 	addc	a,r3
      0020DC FB               [12] 7043 	mov	r3,a
      0020DD E5 81            [12] 7044 	mov	a,sp
      0020DF 24 FD            [12] 7045 	add	a,#0xfd
      0020E1 F8               [12] 7046 	mov	r0,a
      0020E2 E6               [12] 7047 	mov	a,@r0
      0020E3 C0 E0            [24] 7048 	push	acc
      0020E5 08               [12] 7049 	inc	r0
      0020E6 E6               [12] 7050 	mov	a,@r0
      0020E7 C0 E0            [24] 7051 	push	acc
      0020E9 C0 05            [24] 7052 	push	ar5
      0020EB C0 06            [24] 7053 	push	ar6
      0020ED C0 07            [24] 7054 	push	ar7
      0020EF 8A 82            [24] 7055 	mov	dpl,r2
      0020F1 8B 83            [24] 7056 	mov	dph,r3
      0020F3 8C F0            [24] 7057 	mov	b,r4
      0020F5 78r00            [12] 7058 	mov	r0,#___memcpy
      0020F7 79s00            [12] 7059 	mov	r1,#(___memcpy >> 8)
      0020F9 7As00            [12] 7060 	mov	r2,#(___memcpy >> 16)
      0020FB 12r00r00         [24] 7061 	lcall	__sdcc_banked_call
      0020FE E5 81            [12] 7062 	mov	a,sp
      002100 24 FB            [12] 7063 	add	a,#0xfb
      002102 F5 81            [12] 7064 	mov	sp,a
                                   7065 ;	../../../core/net/sicslowpan.c:1554: packetbuf_set_datalen(uip_len - uncomp_hdr_len + rime_hdr_len);
      002104 90r00r05         [24] 7066 	mov	dptr,#_uncomp_hdr_len
      002107 E0               [24] 7067 	movx	a,@dptr
      002108 FF               [12] 7068 	mov	r7,a
      002109 7E 00            [12] 7069 	mov	r6,#0x00
      00210B 90r00r00         [24] 7070 	mov	dptr,#_uip_len
      00210E E0               [24] 7071 	movx	a,@dptr
      00210F FC               [12] 7072 	mov	r4,a
      002110 A3               [24] 7073 	inc	dptr
      002111 E0               [24] 7074 	movx	a,@dptr
      002112 FD               [12] 7075 	mov	r5,a
      002113 EC               [12] 7076 	mov	a,r4
      002114 C3               [12] 7077 	clr	c
      002115 9F               [12] 7078 	subb	a,r7
      002116 FC               [12] 7079 	mov	r4,a
      002117 ED               [12] 7080 	mov	a,r5
      002118 9E               [12] 7081 	subb	a,r6
      002119 FD               [12] 7082 	mov	r5,a
      00211A 90r00r03         [24] 7083 	mov	dptr,#_rime_hdr_len
      00211D E0               [24] 7084 	movx	a,@dptr
      00211E 7E 00            [12] 7085 	mov	r6,#0x00
      002120 2C               [12] 7086 	add	a,r4
      002121 FC               [12] 7087 	mov	r4,a
      002122 EE               [12] 7088 	mov	a,r6
      002123 3D               [12] 7089 	addc	a,r5
      002124 FD               [12] 7090 	mov	r5,a
      002125 8C 82            [24] 7091 	mov	dpl,r4
      002127 8D 83            [24] 7092 	mov	dph,r5
      002129 78r00            [12] 7093 	mov	r0,#_packetbuf_set_datalen
      00212B 79s00            [12] 7094 	mov	r1,#(_packetbuf_set_datalen >> 8)
      00212D 7As00            [12] 7095 	mov	r2,#(_packetbuf_set_datalen >> 16)
      00212F 12r00r00         [24] 7096 	lcall	__sdcc_banked_call
                                   7097 ;	../../../core/net/sicslowpan.c:1555: send_packet(&dest);
      002132 90r00r18         [24] 7098 	mov	dptr,#_output_dest_65536_561
      002135 75 F0 00         [24] 7099 	mov	b,#0x00
      002138 78rAF            [12] 7100 	mov	r0,#_send_packet
      00213A 79s1E            [12] 7101 	mov	r1,#(_send_packet >> 8)
      00213C 7As00            [12] 7102 	mov	r2,#(_send_packet >> 16)
      00213E 12r00r00         [24] 7103 	lcall	__sdcc_banked_call
                                   7104 ;	../../../core/net/sicslowpan.c:1557: return 1;
      002141 75 82 01         [24] 7105 	mov	dpl,#0x01
      002144                       7106 00120$:
                                   7107 ;	../../../core/net/sicslowpan.c:1558: }
      002144 E5 81            [12] 7108 	mov	a,sp
      002146 24 FC            [12] 7109 	add	a,#0xfc
      002148 F5 81            [12] 7110 	mov	sp,a
      00214A 02r00r00         [24] 7111 	ljmp	__sdcc_banked_ret
                                   7112 ;------------------------------------------------------------
                                   7113 ;Allocation info for local variables in function 'input'
                                   7114 ;------------------------------------------------------------
                                   7115 ;frag_size                 Allocated to registers 
                                   7116 ;frag_offset               Allocated to registers 
                                   7117 ;------------------------------------------------------------
                                   7118 ;	../../../core/net/sicslowpan.c:1574: input(void)
                                   7119 ;	-----------------------------------------
                                   7120 ;	 function input
                                   7121 ;	-----------------------------------------
      00214D                       7122 _input:
                                   7123 ;	../../../core/net/sicslowpan.c:1591: uncomp_hdr_len = 0;
      00214D 90r00r05         [24] 7124 	mov	dptr,#_uncomp_hdr_len
      002150 E4               [12] 7125 	clr	a
      002151 F0               [24] 7126 	movx	@dptr,a
                                   7127 ;	../../../core/net/sicslowpan.c:1592: rime_hdr_len = 0;
      002152 90r00r03         [24] 7128 	mov	dptr,#_rime_hdr_len
      002155 F0               [24] 7129 	movx	@dptr,a
                                   7130 ;	../../../core/net/sicslowpan.c:1595: rime_ptr = packetbuf_dataptr();
      002156 78r00            [12] 7131 	mov	r0,#_packetbuf_dataptr
      002158 79s00            [12] 7132 	mov	r1,#(_packetbuf_dataptr >> 8)
      00215A 7As00            [12] 7133 	mov	r2,#(_packetbuf_dataptr >> 16)
      00215C 12r00r00         [24] 7134 	lcall	__sdcc_banked_call
      00215F AD 82            [24] 7135 	mov	r5,dpl
      002161 AE 83            [24] 7136 	mov	r6,dph
      002163 AF F0            [24] 7137 	mov	r7,b
      002165 90r00r00         [24] 7138 	mov	dptr,#_rime_ptr
      002168 ED               [12] 7139 	mov	a,r5
      002169 F0               [24] 7140 	movx	@dptr,a
      00216A EE               [12] 7141 	mov	a,r6
      00216B A3               [24] 7142 	inc	dptr
      00216C F0               [24] 7143 	movx	@dptr,a
      00216D EF               [12] 7144 	mov	a,r7
      00216E A3               [24] 7145 	inc	dptr
      00216F F0               [24] 7146 	movx	@dptr,a
                                   7147 ;	../../../core/net/sicslowpan.c:1687: if((RIME_HC1_PTR[RIME_HC1_DISPATCH] & 0xe0) == SICSLOWPAN_DISPATCH_IPHC) {
      002170 90r00r03         [24] 7148 	mov	dptr,#_rime_hdr_len
      002173 E0               [24] 7149 	movx	a,@dptr
      002174 FC               [12] 7150 	mov	r4,a
      002175 2D               [12] 7151 	add	a,r5
      002176 F9               [12] 7152 	mov	r1,a
      002177 E4               [12] 7153 	clr	a
      002178 3E               [12] 7154 	addc	a,r6
      002179 FA               [12] 7155 	mov	r2,a
      00217A 8F 03            [24] 7156 	mov	ar3,r7
      00217C 89 82            [24] 7157 	mov	dpl,r1
      00217E 8A 83            [24] 7158 	mov	dph,r2
      002180 8B F0            [24] 7159 	mov	b,r3
      002182 12r00r00         [24] 7160 	lcall	__gptrget
      002185 FB               [12] 7161 	mov	r3,a
      002186 F9               [12] 7162 	mov	r1,a
      002187 53 01 E0         [24] 7163 	anl	ar1,#0xe0
      00218A 7A 00            [12] 7164 	mov	r2,#0x00
      00218C B9 60 11         [24] 7165 	cjne	r1,#0x60,00105$
      00218F BA 00 0E         [24] 7166 	cjne	r2,#0x00,00105$
                                   7167 ;	../../../core/net/sicslowpan.c:1689: uncompress_hdr_hc06(frag_size);
      002192 90 00 00         [24] 7168 	mov	dptr,#0x0000
      002195 78r43            [12] 7169 	mov	r0,#_uncompress_hdr_hc06
      002197 79s14            [12] 7170 	mov	r1,#(_uncompress_hdr_hc06 >> 8)
      002199 7As00            [12] 7171 	mov	r2,#(_uncompress_hdr_hc06 >> 16)
      00219B 12r00r00         [24] 7172 	lcall	__sdcc_banked_call
      00219E 80 45            [24] 7173 	sjmp	00106$
      0021A0                       7174 00105$:
                                   7175 ;	../../../core/net/sicslowpan.c:1692: switch(RIME_HC1_PTR[RIME_HC1_DISPATCH]) {
      0021A0 BB 41 3F         [24] 7176 	cjne	r3,#0x41,00102$
                                   7177 ;	../../../core/net/sicslowpan.c:1701: rime_hdr_len += SICSLOWPAN_IPV6_HDR_LEN;
      0021A3 90r00r03         [24] 7178 	mov	dptr,#_rime_hdr_len
      0021A6 EC               [12] 7179 	mov	a,r4
      0021A7 04               [12] 7180 	inc	a
      0021A8 F0               [24] 7181 	movx	@dptr,a
                                   7182 ;	../../../core/net/sicslowpan.c:1704: memcpy(SICSLOWPAN_IP_BUF, rime_ptr + rime_hdr_len, UIP_IPH_LEN);
      0021A9 E0               [24] 7183 	movx	a,@dptr
      0021AA 2D               [12] 7184 	add	a,r5
      0021AB FD               [12] 7185 	mov	r5,a
      0021AC E4               [12] 7186 	clr	a
      0021AD 3E               [12] 7187 	addc	a,r6
      0021AE FE               [12] 7188 	mov	r6,a
      0021AF 74 28            [12] 7189 	mov	a,#0x28
      0021B1 C0 E0            [24] 7190 	push	acc
      0021B3 E4               [12] 7191 	clr	a
      0021B4 C0 E0            [24] 7192 	push	acc
      0021B6 C0 05            [24] 7193 	push	ar5
      0021B8 C0 06            [24] 7194 	push	ar6
      0021BA C0 07            [24] 7195 	push	ar7
      0021BC 90r00r00         [24] 7196 	mov	dptr,#_uip_aligned_buf
      0021BF 75 F0 00         [24] 7197 	mov	b,#0x00
      0021C2 78r00            [12] 7198 	mov	r0,#___memcpy
      0021C4 79s00            [12] 7199 	mov	r1,#(___memcpy >> 8)
      0021C6 7As00            [12] 7200 	mov	r2,#(___memcpy >> 16)
      0021C8 12r00r00         [24] 7201 	lcall	__sdcc_banked_call
      0021CB E5 81            [12] 7202 	mov	a,sp
      0021CD 24 FB            [12] 7203 	add	a,#0xfb
      0021CF F5 81            [12] 7204 	mov	sp,a
                                   7205 ;	../../../core/net/sicslowpan.c:1707: rime_hdr_len += UIP_IPH_LEN;
      0021D1 90r00r03         [24] 7206 	mov	dptr,#_rime_hdr_len
      0021D4 E0               [24] 7207 	movx	a,@dptr
      0021D5 24 28            [12] 7208 	add	a,#0x28
      0021D7 F0               [24] 7209 	movx	@dptr,a
                                   7210 ;	../../../core/net/sicslowpan.c:1708: uncomp_hdr_len += UIP_IPH_LEN;
      0021D8 90r00r05         [24] 7211 	mov	dptr,#_uncomp_hdr_len
      0021DB E0               [24] 7212 	movx	a,@dptr
      0021DC FF               [12] 7213 	mov	r7,a
      0021DD 24 28            [12] 7214 	add	a,#0x28
      0021DF F0               [24] 7215 	movx	@dptr,a
                                   7216 ;	../../../core/net/sicslowpan.c:1709: break;
                                   7217 ;	../../../core/net/sicslowpan.c:1710: default:
      0021E0 80 03            [24] 7218 	sjmp	00106$
      0021E2                       7219 00102$:
                                   7220 ;	../../../core/net/sicslowpan.c:1714: return;
      0021E2 02r00r00         [24] 7221 	ljmp	__sdcc_banked_ret
                                   7222 ;	../../../core/net/sicslowpan.c:1715: }
      0021E5                       7223 00106$:
                                   7224 ;	../../../core/net/sicslowpan.c:1728: if(packetbuf_datalen() < rime_hdr_len) {
      0021E5 78r00            [12] 7225 	mov	r0,#_packetbuf_datalen
      0021E7 79s00            [12] 7226 	mov	r1,#(_packetbuf_datalen >> 8)
      0021E9 7As00            [12] 7227 	mov	r2,#(_packetbuf_datalen >> 16)
      0021EB 12r00r00         [24] 7228 	lcall	__sdcc_banked_call
      0021EE AE 82            [24] 7229 	mov	r6,dpl
      0021F0 AF 83            [24] 7230 	mov	r7,dph
      0021F2 90r00r03         [24] 7231 	mov	dptr,#_rime_hdr_len
      0021F5 E0               [24] 7232 	movx	a,@dptr
      0021F6 FD               [12] 7233 	mov	r5,a
      0021F7 7C 00            [12] 7234 	mov	r4,#0x00
      0021F9 C3               [12] 7235 	clr	c
      0021FA EE               [12] 7236 	mov	a,r6
      0021FB 9D               [12] 7237 	subb	a,r5
      0021FC EF               [12] 7238 	mov	a,r7
      0021FD 9C               [12] 7239 	subb	a,r4
      0021FE 50 03            [24] 7240 	jnc	00108$
                                   7241 ;	../../../core/net/sicslowpan.c:1730: return;
      002200 02r00r00         [24] 7242 	ljmp	__sdcc_banked_ret
      002203                       7243 00108$:
                                   7244 ;	../../../core/net/sicslowpan.c:1732: rime_payload_len = packetbuf_datalen() - rime_hdr_len;
      002203 78r00            [12] 7245 	mov	r0,#_packetbuf_datalen
      002205 79s00            [12] 7246 	mov	r1,#(_packetbuf_datalen >> 8)
      002207 7As00            [12] 7247 	mov	r2,#(_packetbuf_datalen >> 16)
      002209 12r00r00         [24] 7248 	lcall	__sdcc_banked_call
      00220C AE 82            [24] 7249 	mov	r6,dpl
      00220E 90r00r03         [24] 7250 	mov	dptr,#_rime_hdr_len
      002211 E0               [24] 7251 	movx	a,@dptr
      002212 FF               [12] 7252 	mov	r7,a
      002213 EE               [12] 7253 	mov	a,r6
      002214 C3               [12] 7254 	clr	c
      002215 9F               [12] 7255 	subb	a,r7
      002216 FE               [12] 7256 	mov	r6,a
      002217 90r00r04         [24] 7257 	mov	dptr,#_rime_payload_len
      00221A F0               [24] 7258 	movx	@dptr,a
                                   7259 ;	../../../core/net/sicslowpan.c:1733: memcpy((uint8_t *)SICSLOWPAN_IP_BUF + uncomp_hdr_len + (uint16_t)(frag_offset << 3), rime_ptr + rime_hdr_len, rime_payload_len);
      00221B 7D 00            [12] 7260 	mov	r5,#0x00
      00221D 90r00r00         [24] 7261 	mov	dptr,#_rime_ptr
      002220 E0               [24] 7262 	movx	a,@dptr
      002221 FA               [12] 7263 	mov	r2,a
      002222 A3               [24] 7264 	inc	dptr
      002223 E0               [24] 7265 	movx	a,@dptr
      002224 FB               [12] 7266 	mov	r3,a
      002225 A3               [24] 7267 	inc	dptr
      002226 E0               [24] 7268 	movx	a,@dptr
      002227 FC               [12] 7269 	mov	r4,a
      002228 EF               [12] 7270 	mov	a,r7
      002229 2A               [12] 7271 	add	a,r2
      00222A FA               [12] 7272 	mov	r2,a
      00222B E4               [12] 7273 	clr	a
      00222C 3B               [12] 7274 	addc	a,r3
      00222D FB               [12] 7275 	mov	r3,a
      00222E 90r00r05         [24] 7276 	mov	dptr,#_uncomp_hdr_len
      002231 E0               [24] 7277 	movx	a,@dptr
      002232 24r00            [12] 7278 	add	a,#_uip_aligned_buf
      002234 F8               [12] 7279 	mov	r0,a
      002235 E4               [12] 7280 	clr	a
      002236 34s00            [12] 7281 	addc	a,#(_uip_aligned_buf >> 8)
      002238 F9               [12] 7282 	mov	r1,a
      002239 7F 00            [12] 7283 	mov	r7,#0x00
      00223B C0 06            [24] 7284 	push	ar6
      00223D C0 05            [24] 7285 	push	ar5
      00223F C0 02            [24] 7286 	push	ar2
      002241 C0 03            [24] 7287 	push	ar3
      002243 C0 04            [24] 7288 	push	ar4
      002245 88 82            [24] 7289 	mov	dpl,r0
      002247 89 83            [24] 7290 	mov	dph,r1
      002249 8F F0            [24] 7291 	mov	b,r7
      00224B 78r00            [12] 7292 	mov	r0,#___memcpy
      00224D 79s00            [12] 7293 	mov	r1,#(___memcpy >> 8)
      00224F 7As00            [12] 7294 	mov	r2,#(___memcpy >> 16)
      002251 12r00r00         [24] 7295 	lcall	__sdcc_banked_call
      002254 E5 81            [12] 7296 	mov	a,sp
      002256 24 FB            [12] 7297 	add	a,#0xfb
      002258 F5 81            [12] 7298 	mov	sp,a
                                   7299 ;	../../../core/net/sicslowpan.c:1754: sicslowpan_len = rime_payload_len + uncomp_hdr_len;
      00225A 90r00r04         [24] 7300 	mov	dptr,#_rime_payload_len
      00225D E0               [24] 7301 	movx	a,@dptr
      00225E FF               [12] 7302 	mov	r7,a
      00225F 7E 00            [12] 7303 	mov	r6,#0x00
      002261 90r00r05         [24] 7304 	mov	dptr,#_uncomp_hdr_len
      002264 E0               [24] 7305 	movx	a,@dptr
      002265 7C 00            [12] 7306 	mov	r4,#0x00
      002267 2F               [12] 7307 	add	a,r7
      002268 FF               [12] 7308 	mov	r7,a
      002269 EC               [12] 7309 	mov	a,r4
      00226A 3E               [12] 7310 	addc	a,r6
      00226B FE               [12] 7311 	mov	r6,a
      00226C 90r00r00         [24] 7312 	mov	dptr,#_uip_len
      00226F EF               [12] 7313 	mov	a,r7
      002270 F0               [24] 7314 	movx	@dptr,a
      002271 EE               [12] 7315 	mov	a,r6
      002272 A3               [24] 7316 	inc	dptr
      002273 F0               [24] 7317 	movx	@dptr,a
                                   7318 ;	../../../core/net/sicslowpan.c:1786: neighbor_info_packet_received();
      002274 78r00            [12] 7319 	mov	r0,#_neighbor_info_packet_received
      002276 79s00            [12] 7320 	mov	r1,#(_neighbor_info_packet_received >> 8)
      002278 7As00            [12] 7321 	mov	r2,#(_neighbor_info_packet_received >> 16)
      00227A 12r00r00         [24] 7322 	lcall	__sdcc_banked_call
                                   7323 ;	../../../core/net/sicslowpan.c:1790: if(callback) {
      00227D 90r00r00         [24] 7324 	mov	dptr,#_callback
      002280 E0               [24] 7325 	movx	a,@dptr
      002281 F5 F0            [12] 7326 	mov	b,a
      002283 A3               [24] 7327 	inc	dptr
      002284 E0               [24] 7328 	movx	a,@dptr
      002285 45 F0            [12] 7329 	orl	a,b
      002287 60 4A            [24] 7330 	jz	00110$
                                   7331 ;	../../../core/net/sicslowpan.c:1791: set_packet_attrs();
      002289 78r1F            [12] 7332 	mov	r0,#_set_packet_attrs
      00228B 79s00            [12] 7333 	mov	r1,#(_set_packet_attrs >> 8)
      00228D 7As00            [12] 7334 	mov	r2,#(_set_packet_attrs >> 16)
      00228F 12r00r00         [24] 7335 	lcall	__sdcc_banked_call
                                   7336 ;	../../../core/net/sicslowpan.c:1792: callback->input_callback();
      002292 90r00r00         [24] 7337 	mov	dptr,#_callback
      002295 E0               [24] 7338 	movx	a,@dptr
      002296 FD               [12] 7339 	mov	r5,a
      002297 A3               [24] 7340 	inc	dptr
      002298 E0               [24] 7341 	movx	a,@dptr
      002299 FE               [12] 7342 	mov	r6,a
      00229A A3               [24] 7343 	inc	dptr
      00229B E0               [24] 7344 	movx	a,@dptr
      00229C FF               [12] 7345 	mov	r7,a
      00229D 74 03            [12] 7346 	mov	a,#0x03
      00229F 2D               [12] 7347 	add	a,r5
      0022A0 FD               [12] 7348 	mov	r5,a
      0022A1 E4               [12] 7349 	clr	a
      0022A2 3E               [12] 7350 	addc	a,r6
      0022A3 FE               [12] 7351 	mov	r6,a
      0022A4 8D 82            [24] 7352 	mov	dpl,r5
      0022A6 8E 83            [24] 7353 	mov	dph,r6
      0022A8 8F F0            [24] 7354 	mov	b,r7
      0022AA 12r00r00         [24] 7355 	lcall	__gptrget
      0022AD FD               [12] 7356 	mov	r5,a
      0022AE A3               [24] 7357 	inc	dptr
      0022AF 12r00r00         [24] 7358 	lcall	__gptrget
      0022B2 FE               [12] 7359 	mov	r6,a
      0022B3 A3               [24] 7360 	inc	dptr
      0022B4 12r00r00         [24] 7361 	lcall	__gptrget
      0022B7 FF               [12] 7362 	mov	r7,a
      0022B8 C0 07            [24] 7363 	push	ar7
      0022BA C0 06            [24] 7364 	push	ar6
      0022BC C0 05            [24] 7365 	push	ar5
      0022BE C0 05            [24] 7366 	push	ar5
      0022C0 C0 06            [24] 7367 	push	ar6
      0022C2 C0 07            [24] 7368 	push	ar7
      0022C4 D0 02            [24] 7369 	pop	ar2
      0022C6 D0 01            [24] 7370 	pop	ar1
      0022C8 D0 00            [24] 7371 	pop	ar0
      0022CA 12r00r00         [24] 7372 	lcall	__sdcc_banked_call
      0022CD D0 05            [24] 7373 	pop	ar5
      0022CF D0 06            [24] 7374 	pop	ar6
      0022D1 D0 07            [24] 7375 	pop	ar7
      0022D3                       7376 00110$:
                                   7377 ;	../../../core/net/sicslowpan.c:1795: tcpip_input();
      0022D3 78r00            [12] 7378 	mov	r0,#_tcpip_input
      0022D5 79s00            [12] 7379 	mov	r1,#(_tcpip_input >> 8)
      0022D7 7As00            [12] 7380 	mov	r2,#(_tcpip_input >> 16)
      0022D9 12r00r00         [24] 7381 	lcall	__sdcc_banked_call
                                   7382 ;	../../../core/net/sicslowpan.c:1799: }
      0022DC 02r00r00         [24] 7383 	ljmp	__sdcc_banked_ret
                                   7384 ;------------------------------------------------------------
                                   7385 ;Allocation info for local variables in function 'sicslowpan_init'
                                   7386 ;------------------------------------------------------------
                                   7387 ;	../../../core/net/sicslowpan.c:1806: sicslowpan_init(void)
                                   7388 ;	-----------------------------------------
                                   7389 ;	 function sicslowpan_init
                                   7390 ;	-----------------------------------------
      0022DF                       7391 _sicslowpan_init:
                                   7392 ;	../../../core/net/sicslowpan.c:1812: tcpip_set_outputfunc(output);
      0022DF 90r1Fr15         [24] 7393 	mov	dptr,#_output
      0022E2 75 F0s00         [24] 7394 	mov	b,#(_output >> 16)
      0022E5 78r00            [12] 7395 	mov	r0,#_tcpip_set_outputfunc
      0022E7 79s00            [12] 7396 	mov	r1,#(_tcpip_set_outputfunc >> 8)
      0022E9 7As00            [12] 7397 	mov	r2,#(_tcpip_set_outputfunc >> 16)
      0022EB 12r00r00         [24] 7398 	lcall	__sdcc_banked_call
                                   7399 ;	../../../core/net/sicslowpan.c:1821: addr_contexts[0].used   = 1;
      0022EE 90r00r08         [24] 7400 	mov	dptr,#_addr_contexts
      0022F1 74 01            [12] 7401 	mov	a,#0x01
      0022F3 F0               [24] 7402 	movx	@dptr,a
                                   7403 ;	../../../core/net/sicslowpan.c:1822: addr_contexts[0].number = 0;
      0022F4 90r00r09         [24] 7404 	mov	dptr,#(_addr_contexts + 0x0001)
      0022F7 E4               [12] 7405 	clr	a
      0022F8 F0               [24] 7406 	movx	@dptr,a
                                   7407 ;	../../../core/net/sicslowpan.c:1824: SICSLOWPAN_CONF_ADDR_CONTEXT_0;
      0022F9 90r00r0A         [24] 7408 	mov	dptr,#(_addr_contexts + 0x0002)
      0022FC 74 AA            [12] 7409 	mov	a,#0xaa
      0022FE F0               [24] 7410 	movx	@dptr,a
      0022FF 90r00r0B         [24] 7411 	mov	dptr,#(_addr_contexts + 0x0003)
      002302 F0               [24] 7412 	movx	@dptr,a
                                   7413 ;	../../../core/net/sicslowpan.c:1858: }
      002303 02r00r00         [24] 7414 	ljmp	__sdcc_banked_ret
                                   7415 	.area CSEG    (CODE)
                                   7416 	.area CONST   (CODE)
      000000                       7417 _unc_llconf:
      000000 0F                    7418 	.db #0x0f	; 15
      000001 28                    7419 	.db #0x28	; 40
      000002 22                    7420 	.db #0x22	; 34
      000003 20                    7421 	.db #0x20	; 32
      000004                       7422 _unc_ctxconf:
      000004 00                    7423 	.db #0x00	; 0
      000005 88                    7424 	.db #0x88	; 136
      000006 82                    7425 	.db #0x82	; 130
      000007 80                    7426 	.db #0x80	; 128
      000008                       7427 _unc_mxconf:
      000008 0F                    7428 	.db #0x0f	; 15
      000009 25                    7429 	.db #0x25	; 37
      00000A 23                    7430 	.db #0x23	; 35
      00000B 21                    7431 	.db #0x21	; 33
      00000C                       7432 _llprefix:
      00000C FE                    7433 	.db #0xfe	; 254
      00000D 80                    7434 	.db #0x80	; 128
      00000E                       7435 _ttl_values:
      00000E 00                    7436 	.db #0x00	; 0
      00000F 01                    7437 	.db #0x01	; 1
      000010 40                    7438 	.db #0x40	; 64
      000011 FF                    7439 	.db #0xff	; 255
      000012                       7440 _sicslowpan_driver:
      000012r1Bs00 80              7441 	.byte __str_0, (__str_0 >> 8),#0x80
      000015rDFs22s00              7442 	.byte _sicslowpan_init, (_sicslowpan_init >> 8), (_sicslowpan_init >> 16)
      000018r4Ds21s00              7443 	.byte _input, (_input >> 8), (_input >> 16)
                                   7444 	.area CONST   (CODE)
      00001B                       7445 __str_0:
      00001B 73 69 63 73 6C 6F 77  7446 	.ascii "sicslowpan"
             70 61 6E
      000025 00                    7447 	.db 0x00
                                   7448 	.area BANK1   (CODE)
                                   7449 	.area XINIT   (CODE)
      000000                       7450 __xinit__callback:
                                   7451 ; generic printIvalPtr
      000000 00 00 00              7452 	.byte #0x00,#0x00,#0x00
                                   7453 	.area CABS    (ABS,CODE)
